C000  4C F5 C5  JMP $C5F5                       A:00 X:00       |       C000  4C F5 C5  JMP $C5F5                       A:00 X:00
C5F5  A2 00     LDX #$00                        A:00 X:00       |       C5F5  A2 00     LDX #$00                        A:00 X:00
C5F7  86 00     STX $00 = 00                    A:00 X:00       |       C5F7  86 00     STX $00 = 00                    A:00 X:00
C5F9  86 10     STX $10 = 00                    A:00 X:00       |       C5F9  86 10     STX $10 = 00                    A:00 X:00
C5FB  86 11     STX $11 = 00                    A:00 X:00       |       C5FB  86 11     STX $11 = 00                    A:00 X:00
C5FD  20 2D C7  JSR $C72D                       A:00 X:00       |       C5FD  20 2D C7  JSR $C72D                       A:00 X:00
C72D  EA        NOP                             A:00 X:00       |       C72D  EA        NOP                             A:00 X:00
C72E  38        SEC                             A:00 X:00       |       C72E  38        SEC                             A:00 X:00
C72F  B0 04     BCS $C735                       A:00 X:00       |       C72F  B0 04     BCS $C735                       A:00 X:00
C735  EA        NOP                             A:00 X:00       |       C735  EA        NOP                             A:00 X:00
C736  18        CLC                             A:00 X:00       |       C736  18        CLC                             A:00 X:00
C737  B0 03     BCS $C73C                       A:00 X:00       |       C737  B0 03     BCS $C73C                       A:00 X:00
C739  4C 40 C7  JMP $C740                       A:00 X:00       |       C739  4C 40 C7  JMP $C740                       A:00 X:00
C740  EA        NOP                             A:00 X:00       |       C740  EA        NOP                             A:00 X:00
C741  38        SEC                             A:00 X:00       |       C741  38        SEC                             A:00 X:00
C742  90 03     BCC $C747                       A:00 X:00       |       C742  90 03     BCC $C747                       A:00 X:00
C744  4C 4B C7  JMP $C74B                       A:00 X:00       |       C744  4C 4B C7  JMP $C74B                       A:00 X:00
C74B  EA        NOP                             A:00 X:00       |       C74B  EA        NOP                             A:00 X:00
C74C  18        CLC                             A:00 X:00       |       C74C  18        CLC                             A:00 X:00
C74D  90 04     BCC $C753                       A:00 X:00       |       C74D  90 04     BCC $C753                       A:00 X:00
C753  EA        NOP                             A:00 X:00       |       C753  EA        NOP                             A:00 X:00
C754  A9 00     LDA #$00                        A:00 X:00       |       C754  A9 00     LDA #$00                        A:00 X:00
C756  F0 04     BEQ $C75C                       A:00 X:00       |       C756  F0 04     BEQ $C75C                       A:00 X:00
C75C  EA        NOP                             A:00 X:00       |       C75C  EA        NOP                             A:00 X:00
C75D  A9 40     LDA #$40                        A:00 X:00       |       C75D  A9 40     LDA #$40                        A:00 X:00
C75F  F0 03     BEQ $C764                       A:40 X:00       |       C75F  F0 03     BEQ $C764                       A:40 X:00
C761  4C 68 C7  JMP $C768                       A:40 X:00       |       C761  4C 68 C7  JMP $C768                       A:40 X:00
C768  EA        NOP                             A:40 X:00       |       C768  EA        NOP                             A:40 X:00
C769  A9 40     LDA #$40                        A:40 X:00       |       C769  A9 40     LDA #$40                        A:40 X:00
C76B  D0 04     BNE $C771                       A:40 X:00       |       C76B  D0 04     BNE $C771                       A:40 X:00
C771  EA        NOP                             A:40 X:00       |       C771  EA        NOP                             A:40 X:00
C772  A9 00     LDA #$00                        A:40 X:00       |       C772  A9 00     LDA #$00                        A:40 X:00
C774  D0 03     BNE $C779                       A:00 X:00       |       C774  D0 03     BNE $C779                       A:00 X:00
C776  4C 7D C7  JMP $C77D                       A:00 X:00       |       C776  4C 7D C7  JMP $C77D                       A:00 X:00
C77D  EA        NOP                             A:00 X:00       |       C77D  EA        NOP                             A:00 X:00
C77E  A9 FF     LDA #$FF                        A:00 X:00       |       C77E  A9 FF     LDA #$FF                        A:00 X:00
C780  85 01     STA $01 = 00                    A:FF X:00       |       C780  85 01     STA $01 = 00                    A:FF X:00
C782  24 01     BIT $01 = FF                    A:FF X:00       |       C782  24 01     BIT $01 = FF                    A:FF X:00
C784  70 04     BVS $C78A                       A:FF X:00       |       C784  70 04     BVS $C78A                       A:FF X:00
C78A  EA        NOP                             A:FF X:00       |       C78A  EA        NOP                             A:FF X:00
C78B  24 01     BIT $01 = FF                    A:FF X:00       |       C78B  24 01     BIT $01 = FF                    A:FF X:00
C78D  50 03     BVC $C792                       A:FF X:00       |       C78D  50 03     BVC $C792                       A:FF X:00
C78F  4C 96 C7  JMP $C796                       A:FF X:00       |       C78F  4C 96 C7  JMP $C796                       A:FF X:00
C796  EA        NOP                             A:FF X:00       |       C796  EA        NOP                             A:FF X:00
C797  A9 00     LDA #$00                        A:FF X:00       |       C797  A9 00     LDA #$00                        A:FF X:00
C799  85 01     STA $01 = FF                    A:00 X:00       |       C799  85 01     STA $01 = FF                    A:00 X:00
C79B  24 01     BIT $01 = 00                    A:00 X:00       |       C79B  24 01     BIT $01 = 00                    A:00 X:00
C79D  50 04     BVC $C7A3                       A:00 X:00       |       C79D  50 04     BVC $C7A3                       A:00 X:00
C7A3  EA        NOP                             A:00 X:00       |       C7A3  EA        NOP                             A:00 X:00
C7A4  24 01     BIT $01 = 00                    A:00 X:00       |       C7A4  24 01     BIT $01 = 00                    A:00 X:00
C7A6  70 03     BVS $C7AB                       A:00 X:00       |       C7A6  70 03     BVS $C7AB                       A:00 X:00
C7A8  4C AF C7  JMP $C7AF                       A:00 X:00       |       C7A8  4C AF C7  JMP $C7AF                       A:00 X:00
C7AF  EA        NOP                             A:00 X:00       |       C7AF  EA        NOP                             A:00 X:00
C7B0  A9 00     LDA #$00                        A:00 X:00       |       C7B0  A9 00     LDA #$00                        A:00 X:00
C7B2  10 04     BPL $C7B8                       A:00 X:00       |       C7B2  10 04     BPL $C7B8                       A:00 X:00
C7B8  EA        NOP                             A:00 X:00       |       C7B8  EA        NOP                             A:00 X:00
C7B9  A9 80     LDA #$80                        A:00 X:00       |       C7B9  A9 80     LDA #$80                        A:00 X:00
C7BB  10 03     BPL $C7C0                       A:80 X:00       |       C7BB  10 03     BPL $C7C0                       A:80 X:00
C7BD  4C D9 C7  JMP $C7D9                       A:80 X:00       |       C7BD  4C D9 C7  JMP $C7D9                       A:80 X:00
C7D9  EA        NOP                             A:80 X:00       |       C7D9  EA        NOP                             A:80 X:00
C7DA  60        RTS                             A:80 X:00       |       C7DA  60        RTS                             A:80 X:00
C600  20 DB C7  JSR $C7DB                       A:80 X:00       |       C600  20 DB C7  JSR $C7DB                       A:80 X:00
C7DB  EA        NOP                             A:80 X:00       |       C7DB  EA        NOP                             A:80 X:00
C7DC  A9 FF     LDA #$FF                        A:80 X:00       |       C7DC  A9 FF     LDA #$FF                        A:80 X:00
C7DE  85 01     STA $01 = 00                    A:FF X:00       |       C7DE  85 01     STA $01 = 00                    A:FF X:00
C7E0  24 01     BIT $01 = FF                    A:FF X:00       |       C7E0  24 01     BIT $01 = FF                    A:FF X:00
C7E2  A9 00     LDA #$00                        A:FF X:00       |       C7E2  A9 00     LDA #$00                        A:FF X:00
C7E4  38        SEC                             A:00 X:00       |       C7E4  38        SEC                             A:00 X:00
C7E5  78        SEI                             A:00 X:00       |       C7E5  78        SEI                             A:00 X:00
C7E6  F8        SED                             A:00 X:00       |       C7E6  F8        SED                             A:00 X:00
C7E7  08        PHP                             A:00 X:00       |       C7E7  08        PHP                             A:00 X:00
C7E8  68        PLA                             A:00 X:00       |       C7E8  68        PLA                             A:00 X:00
C7E9  29 EF     AND #$EF                        A:7F X:00       |       C7E9  29 EF     AND #$EF                        A:7F X:00
C7EB  C9 6F     CMP #$6F                        A:6F X:00       |       C7EB  C9 6F     CMP #$6F                        A:6F X:00
C7ED  F0 04     BEQ $C7F3                       A:6F X:00       |       C7ED  F0 04     BEQ $C7F3                       A:6F X:00
C7F3  EA        NOP                             A:6F X:00       |       C7F3  EA        NOP                             A:6F X:00
C7F4  A9 40     LDA #$40                        A:6F X:00       |       C7F4  A9 40     LDA #$40                        A:6F X:00
C7F6  85 01     STA $01 = FF                    A:40 X:00       |       C7F6  85 01     STA $01 = FF                    A:40 X:00
C7F8  24 01     BIT $01 = 40                    A:40 X:00       |       C7F8  24 01     BIT $01 = 40                    A:40 X:00
C7FA  D8        CLD                             A:40 X:00       |       C7FA  D8        CLD                             A:40 X:00
C7FB  A9 10     LDA #$10                        A:40 X:00       |       C7FB  A9 10     LDA #$10                        A:40 X:00
C7FD  18        CLC                             A:10 X:00       |       C7FD  18        CLC                             A:10 X:00
C7FE  08        PHP                             A:10 X:00       |       C7FE  08        PHP                             A:10 X:00
C7FF  68        PLA                             A:10 X:00       |       C7FF  68        PLA                             A:10 X:00
C800  29 EF     AND #$EF                        A:74 X:00       |       C800  29 EF     AND #$EF                        A:74 X:00
C802  C9 64     CMP #$64                        A:64 X:00       |       C802  C9 64     CMP #$64                        A:64 X:00
C804  F0 04     BEQ $C80A                       A:64 X:00       |       C804  F0 04     BEQ $C80A                       A:64 X:00
C80A  EA        NOP                             A:64 X:00       |       C80A  EA        NOP                             A:64 X:00
C80B  A9 80     LDA #$80                        A:64 X:00       |       C80B  A9 80     LDA #$80                        A:64 X:00
C80D  85 01     STA $01 = 40                    A:80 X:00       |       C80D  85 01     STA $01 = 40                    A:80 X:00
C80F  24 01     BIT $01 = 80                    A:80 X:00       |       C80F  24 01     BIT $01 = 80                    A:80 X:00
C811  F8        SED                             A:80 X:00       |       C811  F8        SED                             A:80 X:00
C812  A9 00     LDA #$00                        A:80 X:00       |       C812  A9 00     LDA #$00                        A:80 X:00
C814  38        SEC                             A:00 X:00       |       C814  38        SEC                             A:00 X:00
C815  08        PHP                             A:00 X:00       |       C815  08        PHP                             A:00 X:00
C816  68        PLA                             A:00 X:00       |       C816  68        PLA                             A:00 X:00
C817  29 EF     AND #$EF                        A:3F X:00       |       C817  29 EF     AND #$EF                        A:3F X:00
C819  C9 2F     CMP #$2F                        A:2F X:00       |       C819  C9 2F     CMP #$2F                        A:2F X:00
C81B  F0 04     BEQ $C821                       A:2F X:00       |       C81B  F0 04     BEQ $C821                       A:2F X:00
C821  EA        NOP                             A:2F X:00       |       C821  EA        NOP                             A:2F X:00
C822  A9 FF     LDA #$FF                        A:2F X:00       |       C822  A9 FF     LDA #$FF                        A:2F X:00
C824  48        PHA                             A:FF X:00       |       C824  48        PHA                             A:FF X:00
C825  28        PLP                             A:FF X:00       |       C825  28        PLP                             A:FF X:00
C826  D0 09     BNE $C831                       A:FF X:00       |       C826  D0 09     BNE $C831                       A:FF X:00
C828  10 07     BPL $C831                       A:FF X:00       |       C828  10 07     BPL $C831                       A:FF X:00
C82A  50 05     BVC $C831                       A:FF X:00       |       C82A  50 05     BVC $C831                       A:FF X:00
C82C  90 03     BCC $C831                       A:FF X:00       |       C82C  90 03     BCC $C831                       A:FF X:00
C82E  4C 35 C8  JMP $C835                       A:FF X:00       |       C82E  4C 35 C8  JMP $C835                       A:FF X:00
C835  EA        NOP                             A:FF X:00       |       C835  EA        NOP                             A:FF X:00
C836  A9 04     LDA #$04                        A:FF X:00       |       C836  A9 04     LDA #$04                        A:FF X:00
C838  48        PHA                             A:04 X:00       |       C838  48        PHA                             A:04 X:00
C839  28        PLP                             A:04 X:00       |       C839  28        PLP                             A:04 X:00
C83A  F0 09     BEQ $C845                       A:04 X:00       |       C83A  F0 09     BEQ $C845                       A:04 X:00
C83C  30 07     BMI $C845                       A:04 X:00       |       C83C  30 07     BMI $C845                       A:04 X:00
C83E  70 05     BVS $C845                       A:04 X:00       |       C83E  70 05     BVS $C845                       A:04 X:00
C840  B0 03     BCS $C845                       A:04 X:00       |       C840  B0 03     BCS $C845                       A:04 X:00
C842  4C 49 C8  JMP $C849                       A:04 X:00       |       C842  4C 49 C8  JMP $C849                       A:04 X:00
C849  EA        NOP                             A:04 X:00       |       C849  EA        NOP                             A:04 X:00
C84A  F8        SED                             A:04 X:00       |       C84A  F8        SED                             A:04 X:00
C84B  A9 FF     LDA #$FF                        A:04 X:00       |       C84B  A9 FF     LDA #$FF                        A:04 X:00
C84D  85 01     STA $01 = 80                    A:FF X:00       |       C84D  85 01     STA $01 = 80                    A:FF X:00
C84F  24 01     BIT $01 = FF                    A:FF X:00       |       C84F  24 01     BIT $01 = FF                    A:FF X:00
C851  18        CLC                             A:FF X:00       |       C851  18        CLC                             A:FF X:00
C852  A9 00     LDA #$00                        A:FF X:00       |       C852  A9 00     LDA #$00                        A:FF X:00
C854  48        PHA                             A:00 X:00       |       C854  48        PHA                             A:00 X:00
C855  A9 FF     LDA #$FF                        A:00 X:00       |       C855  A9 FF     LDA #$FF                        A:00 X:00
C857  68        PLA                             A:FF X:00       |       C857  68        PLA                             A:FF X:00
C858  D0 09     BNE $C863                       A:00 X:00       |       C858  D0 09     BNE $C863                       A:00 X:00
C85A  30 07     BMI $C863                       A:00 X:00       |       C85A  30 07     BMI $C863                       A:00 X:00
C85C  50 05     BVC $C863                       A:00 X:00       |       C85C  50 05     BVC $C863                       A:00 X:00
C85E  B0 03     BCS $C863                       A:00 X:00       |       C85E  B0 03     BCS $C863                       A:00 X:00
C860  4C 67 C8  JMP $C867                       A:00 X:00       |       C860  4C 67 C8  JMP $C867                       A:00 X:00
C867  EA        NOP                             A:00 X:00       |       C867  EA        NOP                             A:00 X:00
C868  A9 00     LDA #$00                        A:00 X:00       |       C868  A9 00     LDA #$00                        A:00 X:00
C86A  85 01     STA $01 = FF                    A:00 X:00       |       C86A  85 01     STA $01 = FF                    A:00 X:00
C86C  24 01     BIT $01 = 00                    A:00 X:00       |       C86C  24 01     BIT $01 = 00                    A:00 X:00
C86E  38        SEC                             A:00 X:00       |       C86E  38        SEC                             A:00 X:00
C86F  A9 FF     LDA #$FF                        A:00 X:00       |       C86F  A9 FF     LDA #$FF                        A:00 X:00
C871  48        PHA                             A:FF X:00       |       C871  48        PHA                             A:FF X:00
C872  A9 00     LDA #$00                        A:FF X:00       |       C872  A9 00     LDA #$00                        A:FF X:00
C874  68        PLA                             A:00 X:00       |       C874  68        PLA                             A:00 X:00
C875  F0 09     BEQ $C880                       A:FF X:00       |       C875  F0 09     BEQ $C880                       A:FF X:00
C877  10 07     BPL $C880                       A:FF X:00       |       C877  10 07     BPL $C880                       A:FF X:00
C879  70 05     BVS $C880                       A:FF X:00       |       C879  70 05     BVS $C880                       A:FF X:00
C87B  90 03     BCC $C880                       A:FF X:00       |       C87B  90 03     BCC $C880                       A:FF X:00
C87D  4C 84 C8  JMP $C884                       A:FF X:00       |       C87D  4C 84 C8  JMP $C884                       A:FF X:00
C884  60        RTS                             A:FF X:00       |       C884  60        RTS                             A:FF X:00
C603  20 85 C8  JSR $C885                       A:FF X:00       |       C603  20 85 C8  JSR $C885                       A:FF X:00
C885  EA        NOP                             A:FF X:00       |       C885  EA        NOP                             A:FF X:00
C886  18        CLC                             A:FF X:00       |       C886  18        CLC                             A:FF X:00
C887  A9 FF     LDA #$FF                        A:FF X:00       |       C887  A9 FF     LDA #$FF                        A:FF X:00
C889  85 01     STA $01 = 00                    A:FF X:00       |       C889  85 01     STA $01 = 00                    A:FF X:00
C88B  24 01     BIT $01 = FF                    A:FF X:00       |       C88B  24 01     BIT $01 = FF                    A:FF X:00
C88D  A9 55     LDA #$55                        A:FF X:00       |       C88D  A9 55     LDA #$55                        A:FF X:00
C88F  09 AA     ORA #$AA                        A:55 X:00       |       C88F  09 AA     ORA #$AA                        A:55 X:00
C891  B0 0B     BCS $C89E                       A:FF X:00       |       C891  B0 0B     BCS $C89E                       A:FF X:00
C893  10 09     BPL $C89E                       A:FF X:00       |       C893  10 09     BPL $C89E                       A:FF X:00
C895  C9 FF     CMP #$FF                        A:FF X:00       |       C895  C9 FF     CMP #$FF                        A:FF X:00
C897  D0 05     BNE $C89E                       A:FF X:00       |       C897  D0 05     BNE $C89E                       A:FF X:00
C899  50 03     BVC $C89E                       A:FF X:00       |       C899  50 03     BVC $C89E                       A:FF X:00
C89B  4C A2 C8  JMP $C8A2                       A:FF X:00       |       C89B  4C A2 C8  JMP $C8A2                       A:FF X:00
C8A2  EA        NOP                             A:FF X:00       |       C8A2  EA        NOP                             A:FF X:00
C8A3  38        SEC                             A:FF X:00       |       C8A3  38        SEC                             A:FF X:00
C8A4  B8        CLV                             A:FF X:00       |       C8A4  B8        CLV                             A:FF X:00
C8A5  A9 00     LDA #$00                        A:FF X:00       |       C8A5  A9 00     LDA #$00                        A:FF X:00
C8A7  09 00     ORA #$00                        A:00 X:00       |       C8A7  09 00     ORA #$00                        A:00 X:00
C8A9  D0 09     BNE $C8B4                       A:00 X:00       |       C8A9  D0 09     BNE $C8B4                       A:00 X:00
C8AB  70 07     BVS $C8B4                       A:00 X:00       |       C8AB  70 07     BVS $C8B4                       A:00 X:00
C8AD  90 05     BCC $C8B4                       A:00 X:00       |       C8AD  90 05     BCC $C8B4                       A:00 X:00
C8AF  30 03     BMI $C8B4                       A:00 X:00       |       C8AF  30 03     BMI $C8B4                       A:00 X:00
C8B1  4C B8 C8  JMP $C8B8                       A:00 X:00       |       C8B1  4C B8 C8  JMP $C8B8                       A:00 X:00
C8B8  EA        NOP                             A:00 X:00       |       C8B8  EA        NOP                             A:00 X:00
C8B9  18        CLC                             A:00 X:00       |       C8B9  18        CLC                             A:00 X:00
C8BA  24 01     BIT $01 = FF                    A:00 X:00       |       C8BA  24 01     BIT $01 = FF                    A:00 X:00
C8BC  A9 55     LDA #$55                        A:00 X:00       |       C8BC  A9 55     LDA #$55                        A:00 X:00
C8BE  29 AA     AND #$AA                        A:55 X:00       |       C8BE  29 AA     AND #$AA                        A:55 X:00
C8C0  D0 09     BNE $C8CB                       A:00 X:00       |       C8C0  D0 09     BNE $C8CB                       A:00 X:00
C8C2  50 07     BVC $C8CB                       A:00 X:00       |       C8C2  50 07     BVC $C8CB                       A:00 X:00
C8C4  B0 05     BCS $C8CB                       A:00 X:00       |       C8C4  B0 05     BCS $C8CB                       A:00 X:00
C8C6  30 03     BMI $C8CB                       A:00 X:00       |       C8C6  30 03     BMI $C8CB                       A:00 X:00
C8C8  4C CF C8  JMP $C8CF                       A:00 X:00       |       C8C8  4C CF C8  JMP $C8CF                       A:00 X:00
C8CF  EA        NOP                             A:00 X:00       |       C8CF  EA        NOP                             A:00 X:00
C8D0  38        SEC                             A:00 X:00       |       C8D0  38        SEC                             A:00 X:00
C8D1  B8        CLV                             A:00 X:00       |       C8D1  B8        CLV                             A:00 X:00
C8D2  A9 F8     LDA #$F8                        A:00 X:00       |       C8D2  A9 F8     LDA #$F8                        A:00 X:00
C8D4  29 EF     AND #$EF                        A:F8 X:00       |       C8D4  29 EF     AND #$EF                        A:F8 X:00
C8D6  90 0B     BCC $C8E3                       A:E8 X:00       |       C8D6  90 0B     BCC $C8E3                       A:E8 X:00
C8D8  10 09     BPL $C8E3                       A:E8 X:00       |       C8D8  10 09     BPL $C8E3                       A:E8 X:00
C8DA  C9 E8     CMP #$E8                        A:E8 X:00       |       C8DA  C9 E8     CMP #$E8                        A:E8 X:00
C8DC  D0 05     BNE $C8E3                       A:E8 X:00       |       C8DC  D0 05     BNE $C8E3                       A:E8 X:00
C8DE  70 03     BVS $C8E3                       A:E8 X:00       |       C8DE  70 03     BVS $C8E3                       A:E8 X:00
C8E0  4C E7 C8  JMP $C8E7                       A:E8 X:00       |       C8E0  4C E7 C8  JMP $C8E7                       A:E8 X:00
C8E7  EA        NOP                             A:E8 X:00       |       C8E7  EA        NOP                             A:E8 X:00
C8E8  18        CLC                             A:E8 X:00       |       C8E8  18        CLC                             A:E8 X:00
C8E9  24 01     BIT $01 = FF                    A:E8 X:00       |       C8E9  24 01     BIT $01 = FF                    A:E8 X:00
C8EB  A9 5F     LDA #$5F                        A:E8 X:00       |       C8EB  A9 5F     LDA #$5F                        A:E8 X:00
C8ED  49 AA     EOR #$AA                        A:5F X:00       |       C8ED  49 AA     EOR #$AA                        A:5F X:00
C8EF  B0 0B     BCS $C8FC                       A:F5 X:00       |       C8EF  B0 0B     BCS $C8FC                       A:F5 X:00
C8F1  10 09     BPL $C8FC                       A:F5 X:00       |       C8F1  10 09     BPL $C8FC                       A:F5 X:00
C8F3  C9 F5     CMP #$F5                        A:F5 X:00       |       C8F3  C9 F5     CMP #$F5                        A:F5 X:00
C8F5  D0 05     BNE $C8FC                       A:F5 X:00       |       C8F5  D0 05     BNE $C8FC                       A:F5 X:00
C8F7  50 03     BVC $C8FC                       A:F5 X:00       |       C8F7  50 03     BVC $C8FC                       A:F5 X:00
C8F9  4C 00 C9  JMP $C900                       A:F5 X:00       |       C8F9  4C 00 C9  JMP $C900                       A:F5 X:00
C900  EA        NOP                             A:F5 X:00       |       C900  EA        NOP                             A:F5 X:00
C901  38        SEC                             A:F5 X:00       |       C901  38        SEC                             A:F5 X:00
C902  B8        CLV                             A:F5 X:00       |       C902  B8        CLV                             A:F5 X:00
C903  A9 70     LDA #$70                        A:F5 X:00       |       C903  A9 70     LDA #$70                        A:F5 X:00
C905  49 70     EOR #$70                        A:70 X:00       |       C905  49 70     EOR #$70                        A:70 X:00
C907  D0 09     BNE $C912                       A:00 X:00       |       C907  D0 09     BNE $C912                       A:00 X:00
C909  70 07     BVS $C912                       A:00 X:00       |       C909  70 07     BVS $C912                       A:00 X:00
C90B  90 05     BCC $C912                       A:00 X:00       |       C90B  90 05     BCC $C912                       A:00 X:00
C90D  30 03     BMI $C912                       A:00 X:00       |       C90D  30 03     BMI $C912                       A:00 X:00
C90F  4C 16 C9  JMP $C916                       A:00 X:00       |       C90F  4C 16 C9  JMP $C916                       A:00 X:00
C916  EA        NOP                             A:00 X:00       |       C916  EA        NOP                             A:00 X:00
C917  18        CLC                             A:00 X:00       |       C917  18        CLC                             A:00 X:00
C918  24 01     BIT $01 = FF                    A:00 X:00       |       C918  24 01     BIT $01 = FF                    A:00 X:00
C91A  A9 00     LDA #$00                        A:00 X:00       |       C91A  A9 00     LDA #$00                        A:00 X:00
C91C  69 69     ADC #$69                        A:00 X:00       |       C91C  69 69     ADC #$69                        A:00 X:00
C91E  30 0B     BMI $C92B                       A:69 X:00       |       C91E  30 0B     BMI $C92B                       A:69 X:00
C920  B0 09     BCS $C92B                       A:69 X:00       |       C920  B0 09     BCS $C92B                       A:69 X:00
C922  C9 69     CMP #$69                        A:69 X:00       |       C922  C9 69     CMP #$69                        A:69 X:00
C924  D0 05     BNE $C92B                       A:69 X:00       |       C924  D0 05     BNE $C92B                       A:69 X:00
C926  70 03     BVS $C92B                       A:69 X:00       |       C926  70 03     BVS $C92B                       A:69 X:00
C928  4C 2F C9  JMP $C92F                       A:69 X:00       |       C928  4C 2F C9  JMP $C92F                       A:69 X:00
C92F  EA        NOP                             A:69 X:00       |       C92F  EA        NOP                             A:69 X:00
C930  38        SEC                             A:69 X:00       |       C930  38        SEC                             A:69 X:00
C931  F8        SED                             A:69 X:00       |       C931  F8        SED                             A:69 X:00
C932  24 01     BIT $01 = FF                    A:69 X:00       |       C932  24 01     BIT $01 = FF                    A:69 X:00
C934  A9 01     LDA #$01                        A:69 X:00       |       C934  A9 01     LDA #$01                        A:69 X:00
C936  69 69     ADC #$69                        A:01 X:00       |       C936  69 69     ADC #$69                        A:01 X:00
C938  30 0B     BMI $C945                       A:6B X:00       |       C938  30 0B     BMI $C945                       A:6B X:00
C93A  B0 09     BCS $C945                       A:6B X:00       |       C93A  B0 09     BCS $C945                       A:6B X:00
C93C  C9 6B     CMP #$6B                        A:6B X:00       |       C93C  C9 6B     CMP #$6B                        A:6B X:00
C93E  D0 05     BNE $C945                       A:6B X:00       |       C93E  D0 05     BNE $C945                       A:6B X:00
C940  70 03     BVS $C945                       A:6B X:00       |       C940  70 03     BVS $C945                       A:6B X:00
C942  4C 49 C9  JMP $C949                       A:6B X:00       |       C942  4C 49 C9  JMP $C949                       A:6B X:00
C949  EA        NOP                             A:6B X:00       |       C949  EA        NOP                             A:6B X:00
C94A  D8        CLD                             A:6B X:00       |       C94A  D8        CLD                             A:6B X:00
C94B  38        SEC                             A:6B X:00       |       C94B  38        SEC                             A:6B X:00
C94C  B8        CLV                             A:6B X:00       |       C94C  B8        CLV                             A:6B X:00
C94D  A9 7F     LDA #$7F                        A:6B X:00       |       C94D  A9 7F     LDA #$7F                        A:6B X:00
C94F  69 7F     ADC #$7F                        A:7F X:00       |       C94F  69 7F     ADC #$7F                        A:7F X:00
C951  10 0B     BPL $C95E                       A:FF X:00       |       C951  10 0B     BPL $C95E                       A:FF X:00
C953  B0 09     BCS $C95E                       A:FF X:00       |       C953  B0 09     BCS $C95E                       A:FF X:00
C955  C9 FF     CMP #$FF                        A:FF X:00       |       C955  C9 FF     CMP #$FF                        A:FF X:00
C957  D0 05     BNE $C95E                       A:FF X:00       |       C957  D0 05     BNE $C95E                       A:FF X:00
C959  50 03     BVC $C95E                       A:FF X:00       |       C959  50 03     BVC $C95E                       A:FF X:00
C95B  4C 62 C9  JMP $C962                       A:FF X:00       |       C95B  4C 62 C9  JMP $C962                       A:FF X:00
C962  EA        NOP                             A:FF X:00       |       C962  EA        NOP                             A:FF X:00
C963  18        CLC                             A:FF X:00       |       C963  18        CLC                             A:FF X:00
C964  24 01     BIT $01 = FF                    A:FF X:00       |       C964  24 01     BIT $01 = FF                    A:FF X:00
C966  A9 7F     LDA #$7F                        A:FF X:00       |       C966  A9 7F     LDA #$7F                        A:FF X:00
C968  69 80     ADC #$80                        A:7F X:00       |       C968  69 80     ADC #$80                        A:7F X:00
C96A  10 0B     BPL $C977                       A:FF X:00       |       C96A  10 0B     BPL $C977                       A:FF X:00
C96C  B0 09     BCS $C977                       A:FF X:00       |       C96C  B0 09     BCS $C977                       A:FF X:00
C96E  C9 FF     CMP #$FF                        A:FF X:00       |       C96E  C9 FF     CMP #$FF                        A:FF X:00
C970  D0 05     BNE $C977                       A:FF X:00       |       C970  D0 05     BNE $C977                       A:FF X:00
C972  70 03     BVS $C977                       A:FF X:00       |       C972  70 03     BVS $C977                       A:FF X:00
C974  4C 7B C9  JMP $C97B                       A:FF X:00       |       C974  4C 7B C9  JMP $C97B                       A:FF X:00
C97B  EA        NOP                             A:FF X:00       |       C97B  EA        NOP                             A:FF X:00
C97C  38        SEC                             A:FF X:00       |       C97C  38        SEC                             A:FF X:00
C97D  B8        CLV                             A:FF X:00       |       C97D  B8        CLV                             A:FF X:00
C97E  A9 7F     LDA #$7F                        A:FF X:00       |       C97E  A9 7F     LDA #$7F                        A:FF X:00
C980  69 80     ADC #$80                        A:7F X:00       |       C980  69 80     ADC #$80                        A:7F X:00
C982  D0 09     BNE $C98D                       A:00 X:00       |       C982  D0 09     BNE $C98D                       A:00 X:00
C984  30 07     BMI $C98D                       A:00 X:00       |       C984  30 07     BMI $C98D                       A:00 X:00
C986  70 05     BVS $C98D                       A:00 X:00       |       C986  70 05     BVS $C98D                       A:00 X:00
C988  90 03     BCC $C98D                       A:00 X:00       |       C988  90 03     BCC $C98D                       A:00 X:00
C98A  4C 91 C9  JMP $C991                       A:00 X:00       |       C98A  4C 91 C9  JMP $C991                       A:00 X:00
C991  EA        NOP                             A:00 X:00       |       C991  EA        NOP                             A:00 X:00
C992  38        SEC                             A:00 X:00       |       C992  38        SEC                             A:00 X:00
C993  B8        CLV                             A:00 X:00       |       C993  B8        CLV                             A:00 X:00
C994  A9 9F     LDA #$9F                        A:00 X:00       |       C994  A9 9F     LDA #$9F                        A:00 X:00
C996  F0 09     BEQ $C9A1                       A:9F X:00       |       C996  F0 09     BEQ $C9A1                       A:9F X:00
C998  10 07     BPL $C9A1                       A:9F X:00       |       C998  10 07     BPL $C9A1                       A:9F X:00
C99A  70 05     BVS $C9A1                       A:9F X:00       |       C99A  70 05     BVS $C9A1                       A:9F X:00
C99C  90 03     BCC $C9A1                       A:9F X:00       |       C99C  90 03     BCC $C9A1                       A:9F X:00
C99E  4C A5 C9  JMP $C9A5                       A:9F X:00       |       C99E  4C A5 C9  JMP $C9A5                       A:9F X:00
C9A5  EA        NOP                             A:9F X:00       |       C9A5  EA        NOP                             A:9F X:00
C9A6  18        CLC                             A:9F X:00       |       C9A6  18        CLC                             A:9F X:00
C9A7  24 01     BIT $01 = FF                    A:9F X:00       |       C9A7  24 01     BIT $01 = FF                    A:9F X:00
C9A9  A9 00     LDA #$00                        A:9F X:00       |       C9A9  A9 00     LDA #$00                        A:9F X:00
C9AB  D0 09     BNE $C9B6                       A:00 X:00       |       C9AB  D0 09     BNE $C9B6                       A:00 X:00
C9AD  30 07     BMI $C9B6                       A:00 X:00       |       C9AD  30 07     BMI $C9B6                       A:00 X:00
C9AF  50 05     BVC $C9B6                       A:00 X:00       |       C9AF  50 05     BVC $C9B6                       A:00 X:00
C9B1  B0 03     BCS $C9B6                       A:00 X:00       |       C9B1  B0 03     BCS $C9B6                       A:00 X:00
C9B3  4C BA C9  JMP $C9BA                       A:00 X:00       |       C9B3  4C BA C9  JMP $C9BA                       A:00 X:00
C9BA  EA        NOP                             A:00 X:00       |       C9BA  EA        NOP                             A:00 X:00
C9BB  24 01     BIT $01 = FF                    A:00 X:00       |       C9BB  24 01     BIT $01 = FF                    A:00 X:00
C9BD  A9 40     LDA #$40                        A:00 X:00       |       C9BD  A9 40     LDA #$40                        A:00 X:00
C9BF  C9 40     CMP #$40                        A:40 X:00       |       C9BF  C9 40     CMP #$40                        A:40 X:00
C9C1  30 09     BMI $C9CC                       A:40 X:00       |       C9C1  30 09     BMI $C9CC                       A:40 X:00
C9C3  90 07     BCC $C9CC                       A:40 X:00       |       C9C3  90 07     BCC $C9CC                       A:40 X:00
C9C5  D0 05     BNE $C9CC                       A:40 X:00       |       C9C5  D0 05     BNE $C9CC                       A:40 X:00
C9C7  50 03     BVC $C9CC                       A:40 X:00       |       C9C7  50 03     BVC $C9CC                       A:40 X:00
C9C9  4C D0 C9  JMP $C9D0                       A:40 X:00       |       C9C9  4C D0 C9  JMP $C9D0                       A:40 X:00
C9D0  EA        NOP                             A:40 X:00       |       C9D0  EA        NOP                             A:40 X:00
C9D1  B8        CLV                             A:40 X:00       |       C9D1  B8        CLV                             A:40 X:00
C9D2  C9 3F     CMP #$3F                        A:40 X:00       |       C9D2  C9 3F     CMP #$3F                        A:40 X:00
C9D4  F0 09     BEQ $C9DF                       A:40 X:00       |       C9D4  F0 09     BEQ $C9DF                       A:40 X:00
C9D6  30 07     BMI $C9DF                       A:40 X:00       |       C9D6  30 07     BMI $C9DF                       A:40 X:00
C9D8  90 05     BCC $C9DF                       A:40 X:00       |       C9D8  90 05     BCC $C9DF                       A:40 X:00
C9DA  70 03     BVS $C9DF                       A:40 X:00       |       C9DA  70 03     BVS $C9DF                       A:40 X:00
C9DC  4C E3 C9  JMP $C9E3                       A:40 X:00       |       C9DC  4C E3 C9  JMP $C9E3                       A:40 X:00
C9E3  EA        NOP                             A:40 X:00       |       C9E3  EA        NOP                             A:40 X:00
C9E4  C9 41     CMP #$41                        A:40 X:00       |       C9E4  C9 41     CMP #$41                        A:40 X:00
C9E6  F0 07     BEQ $C9EF                       A:40 X:00       |       C9E6  F0 07     BEQ $C9EF                       A:40 X:00
C9E8  10 05     BPL $C9EF                       A:40 X:00       |       C9E8  10 05     BPL $C9EF                       A:40 X:00
C9EA  10 03     BPL $C9EF                       A:40 X:00       |       C9EA  10 03     BPL $C9EF                       A:40 X:00
C9EC  4C F3 C9  JMP $C9F3                       A:40 X:00       |       C9EC  4C F3 C9  JMP $C9F3                       A:40 X:00
C9F3  EA        NOP                             A:40 X:00       |       C9F3  EA        NOP                             A:40 X:00
C9F4  A9 80     LDA #$80                        A:40 X:00       |       C9F4  A9 80     LDA #$80                        A:40 X:00
C9F6  C9 00     CMP #$00                        A:80 X:00       |       C9F6  C9 00     CMP #$00                        A:80 X:00
C9F8  F0 07     BEQ $CA01                       A:80 X:00       |       C9F8  F0 07     BEQ $CA01                       A:80 X:00
C9FA  10 05     BPL $CA01                       A:80 X:00       |       C9FA  10 05     BPL $CA01                       A:80 X:00
C9FC  90 03     BCC $CA01                       A:80 X:00       |       C9FC  90 03     BCC $CA01                       A:80 X:00
C9FE  4C 05 CA  JMP $CA05                       A:80 X:00       |       C9FE  4C 05 CA  JMP $CA05                       A:80 X:00
CA05  EA        NOP                             A:80 X:00       |       CA05  EA        NOP                             A:80 X:00
CA06  C9 80     CMP #$80                        A:80 X:00       |       CA06  C9 80     CMP #$80                        A:80 X:00
CA08  D0 07     BNE $CA11                       A:80 X:00       |       CA08  D0 07     BNE $CA11                       A:80 X:00
CA0A  30 05     BMI $CA11                       A:80 X:00       |       CA0A  30 05     BMI $CA11                       A:80 X:00
CA0C  90 03     BCC $CA11                       A:80 X:00       |       CA0C  90 03     BCC $CA11                       A:80 X:00
CA0E  4C 15 CA  JMP $CA15                       A:80 X:00       |       CA0E  4C 15 CA  JMP $CA15                       A:80 X:00
CA15  EA        NOP                             A:80 X:00       |       CA15  EA        NOP                             A:80 X:00
CA16  C9 81     CMP #$81                        A:80 X:00       |       CA16  C9 81     CMP #$81                        A:80 X:00
CA18  B0 07     BCS $CA21                       A:80 X:00       |       CA18  B0 07     BCS $CA21                       A:80 X:00
CA1A  F0 05     BEQ $CA21                       A:80 X:00       |       CA1A  F0 05     BEQ $CA21                       A:80 X:00
CA1C  10 03     BPL $CA21                       A:80 X:00       |       CA1C  10 03     BPL $CA21                       A:80 X:00
CA1E  4C 25 CA  JMP $CA25                       A:80 X:00       |       CA1E  4C 25 CA  JMP $CA25                       A:80 X:00
CA25  EA        NOP                             A:80 X:00       |       CA25  EA        NOP                             A:80 X:00
CA26  C9 7F     CMP #$7F                        A:80 X:00       |       CA26  C9 7F     CMP #$7F                        A:80 X:00
CA28  90 07     BCC $CA31                       A:80 X:00       |       CA28  90 07     BCC $CA31                       A:80 X:00
CA2A  F0 05     BEQ $CA31                       A:80 X:00       |       CA2A  F0 05     BEQ $CA31                       A:80 X:00
CA2C  30 03     BMI $CA31                       A:80 X:00       |       CA2C  30 03     BMI $CA31                       A:80 X:00
CA2E  4C 35 CA  JMP $CA35                       A:80 X:00       |       CA2E  4C 35 CA  JMP $CA35                       A:80 X:00
CA35  EA        NOP                             A:80 X:00       |       CA35  EA        NOP                             A:80 X:00
CA36  24 01     BIT $01 = FF                    A:80 X:00       |       CA36  24 01     BIT $01 = FF                    A:80 X:00
CA38  A0 40     LDY #$40                        A:80 X:00       |       CA38  A0 40     LDY #$40                        A:80 X:00
CA3A  C0 40     CPY #$40                        A:80 X:00       |       CA3A  C0 40     CPY #$40                        A:80 X:00
CA3C  D0 09     BNE $CA47                       A:80 X:00       |       CA3C  D0 09     BNE $CA47                       A:80 X:00
CA3E  30 07     BMI $CA47                       A:80 X:00       |       CA3E  30 07     BMI $CA47                       A:80 X:00
CA40  90 05     BCC $CA47                       A:80 X:00       |       CA40  90 05     BCC $CA47                       A:80 X:00
CA42  50 03     BVC $CA47                       A:80 X:00       |       CA42  50 03     BVC $CA47                       A:80 X:00
CA44  4C 4B CA  JMP $CA4B                       A:80 X:00       |       CA44  4C 4B CA  JMP $CA4B                       A:80 X:00
CA4B  EA        NOP                             A:80 X:00       |       CA4B  EA        NOP                             A:80 X:00
CA4C  B8        CLV                             A:80 X:00       |       CA4C  B8        CLV                             A:80 X:00
CA4D  C0 3F     CPY #$3F                        A:80 X:00       |       CA4D  C0 3F     CPY #$3F                        A:80 X:00
CA4F  F0 09     BEQ $CA5A                       A:80 X:00       |       CA4F  F0 09     BEQ $CA5A                       A:80 X:00
CA51  30 07     BMI $CA5A                       A:80 X:00       |       CA51  30 07     BMI $CA5A                       A:80 X:00
CA53  90 05     BCC $CA5A                       A:80 X:00       |       CA53  90 05     BCC $CA5A                       A:80 X:00
CA55  70 03     BVS $CA5A                       A:80 X:00       |       CA55  70 03     BVS $CA5A                       A:80 X:00
CA57  4C 5E CA  JMP $CA5E                       A:80 X:00       |       CA57  4C 5E CA  JMP $CA5E                       A:80 X:00
CA5E  EA        NOP                             A:80 X:00       |       CA5E  EA        NOP                             A:80 X:00
CA5F  C0 41     CPY #$41                        A:80 X:00       |       CA5F  C0 41     CPY #$41                        A:80 X:00
CA61  F0 07     BEQ $CA6A                       A:80 X:00       |       CA61  F0 07     BEQ $CA6A                       A:80 X:00
CA63  10 05     BPL $CA6A                       A:80 X:00       |       CA63  10 05     BPL $CA6A                       A:80 X:00
CA65  10 03     BPL $CA6A                       A:80 X:00       |       CA65  10 03     BPL $CA6A                       A:80 X:00
CA67  4C 6E CA  JMP $CA6E                       A:80 X:00       |       CA67  4C 6E CA  JMP $CA6E                       A:80 X:00
CA6E  EA        NOP                             A:80 X:00       |       CA6E  EA        NOP                             A:80 X:00
CA6F  A0 80     LDY #$80                        A:80 X:00       |       CA6F  A0 80     LDY #$80                        A:80 X:00
CA71  C0 00     CPY #$00                        A:80 X:00       |       CA71  C0 00     CPY #$00                        A:80 X:00
CA73  F0 07     BEQ $CA7C                       A:80 X:00       |       CA73  F0 07     BEQ $CA7C                       A:80 X:00
CA75  10 05     BPL $CA7C                       A:80 X:00       |       CA75  10 05     BPL $CA7C                       A:80 X:00
CA77  90 03     BCC $CA7C                       A:80 X:00       |       CA77  90 03     BCC $CA7C                       A:80 X:00
CA79  4C 80 CA  JMP $CA80                       A:80 X:00       |       CA79  4C 80 CA  JMP $CA80                       A:80 X:00
CA80  EA        NOP                             A:80 X:00       |       CA80  EA        NOP                             A:80 X:00
CA81  C0 80     CPY #$80                        A:80 X:00       |       CA81  C0 80     CPY #$80                        A:80 X:00
CA83  D0 07     BNE $CA8C                       A:80 X:00       |       CA83  D0 07     BNE $CA8C                       A:80 X:00
CA85  30 05     BMI $CA8C                       A:80 X:00       |       CA85  30 05     BMI $CA8C                       A:80 X:00
CA87  90 03     BCC $CA8C                       A:80 X:00       |       CA87  90 03     BCC $CA8C                       A:80 X:00
CA89  4C 90 CA  JMP $CA90                       A:80 X:00       |       CA89  4C 90 CA  JMP $CA90                       A:80 X:00
CA90  EA        NOP                             A:80 X:00       |       CA90  EA        NOP                             A:80 X:00
CA91  C0 81     CPY #$81                        A:80 X:00       |       CA91  C0 81     CPY #$81                        A:80 X:00
CA93  B0 07     BCS $CA9C                       A:80 X:00       |       CA93  B0 07     BCS $CA9C                       A:80 X:00
CA95  F0 05     BEQ $CA9C                       A:80 X:00       |       CA95  F0 05     BEQ $CA9C                       A:80 X:00
CA97  10 03     BPL $CA9C                       A:80 X:00       |       CA97  10 03     BPL $CA9C                       A:80 X:00
CA99  4C A0 CA  JMP $CAA0                       A:80 X:00       |       CA99  4C A0 CA  JMP $CAA0                       A:80 X:00
CAA0  EA        NOP                             A:80 X:00       |       CAA0  EA        NOP                             A:80 X:00
CAA1  C0 7F     CPY #$7F                        A:80 X:00       |       CAA1  C0 7F     CPY #$7F                        A:80 X:00
CAA3  90 07     BCC $CAAC                       A:80 X:00       |       CAA3  90 07     BCC $CAAC                       A:80 X:00
CAA5  F0 05     BEQ $CAAC                       A:80 X:00       |       CAA5  F0 05     BEQ $CAAC                       A:80 X:00
CAA7  30 03     BMI $CAAC                       A:80 X:00       |       CAA7  30 03     BMI $CAAC                       A:80 X:00
CAA9  4C B0 CA  JMP $CAB0                       A:80 X:00       |       CAA9  4C B0 CA  JMP $CAB0                       A:80 X:00
CAB0  EA        NOP                             A:80 X:00       |       CAB0  EA        NOP                             A:80 X:00
CAB1  24 01     BIT $01 = FF                    A:80 X:00       |       CAB1  24 01     BIT $01 = FF                    A:80 X:00
CAB3  A2 40     LDX #$40                        A:80 X:00       |       CAB3  A2 40     LDX #$40                        A:80 X:00
CAB5  E0 40     CPX #$40                        A:80 X:40       |       CAB5  E0 40     CPX #$40                        A:80 X:40
CAB7  D0 09     BNE $CAC2                       A:80 X:40       |       CAB7  D0 09     BNE $CAC2                       A:80 X:40
CAB9  30 07     BMI $CAC2                       A:80 X:40       |       CAB9  30 07     BMI $CAC2                       A:80 X:40
CABB  90 05     BCC $CAC2                       A:80 X:40       |       CABB  90 05     BCC $CAC2                       A:80 X:40
CABD  50 03     BVC $CAC2                       A:80 X:40       |       CABD  50 03     BVC $CAC2                       A:80 X:40
CABF  4C C6 CA  JMP $CAC6                       A:80 X:40       |       CABF  4C C6 CA  JMP $CAC6                       A:80 X:40
CAC6  EA        NOP                             A:80 X:40       |       CAC6  EA        NOP                             A:80 X:40
CAC7  B8        CLV                             A:80 X:40       |       CAC7  B8        CLV                             A:80 X:40
CAC8  E0 3F     CPX #$3F                        A:80 X:40       |       CAC8  E0 3F     CPX #$3F                        A:80 X:40
CACA  F0 09     BEQ $CAD5                       A:80 X:40       |       CACA  F0 09     BEQ $CAD5                       A:80 X:40
CACC  30 07     BMI $CAD5                       A:80 X:40       |       CACC  30 07     BMI $CAD5                       A:80 X:40
CACE  90 05     BCC $CAD5                       A:80 X:40       |       CACE  90 05     BCC $CAD5                       A:80 X:40
CAD0  70 03     BVS $CAD5                       A:80 X:40       |       CAD0  70 03     BVS $CAD5                       A:80 X:40
CAD2  4C D9 CA  JMP $CAD9                       A:80 X:40       |       CAD2  4C D9 CA  JMP $CAD9                       A:80 X:40
CAD9  EA        NOP                             A:80 X:40       |       CAD9  EA        NOP                             A:80 X:40
CADA  E0 41     CPX #$41                        A:80 X:40       |       CADA  E0 41     CPX #$41                        A:80 X:40
CADC  F0 07     BEQ $CAE5                       A:80 X:40       |       CADC  F0 07     BEQ $CAE5                       A:80 X:40
CADE  10 05     BPL $CAE5                       A:80 X:40       |       CADE  10 05     BPL $CAE5                       A:80 X:40
CAE0  10 03     BPL $CAE5                       A:80 X:40       |       CAE0  10 03     BPL $CAE5                       A:80 X:40
CAE2  4C E9 CA  JMP $CAE9                       A:80 X:40       |       CAE2  4C E9 CA  JMP $CAE9                       A:80 X:40
CAE9  EA        NOP                             A:80 X:40       |       CAE9  EA        NOP                             A:80 X:40
CAEA  A2 80     LDX #$80                        A:80 X:40       |       CAEA  A2 80     LDX #$80                        A:80 X:40
CAEC  E0 00     CPX #$00                        A:80 X:80       |       CAEC  E0 00     CPX #$00                        A:80 X:80
CAEE  F0 07     BEQ $CAF7                       A:80 X:80       |       CAEE  F0 07     BEQ $CAF7                       A:80 X:80
CAF0  10 05     BPL $CAF7                       A:80 X:80       |       CAF0  10 05     BPL $CAF7                       A:80 X:80
CAF2  90 03     BCC $CAF7                       A:80 X:80       |       CAF2  90 03     BCC $CAF7                       A:80 X:80
CAF4  4C FB CA  JMP $CAFB                       A:80 X:80       |       CAF4  4C FB CA  JMP $CAFB                       A:80 X:80
CAFB  EA        NOP                             A:80 X:80       |       CAFB  EA        NOP                             A:80 X:80
CAFC  E0 80     CPX #$80                        A:80 X:80       |       CAFC  E0 80     CPX #$80                        A:80 X:80
CAFE  D0 07     BNE $CB07                       A:80 X:80       |       CAFE  D0 07     BNE $CB07                       A:80 X:80
CB00  30 05     BMI $CB07                       A:80 X:80       |       CB00  30 05     BMI $CB07                       A:80 X:80
CB02  90 03     BCC $CB07                       A:80 X:80       |       CB02  90 03     BCC $CB07                       A:80 X:80
CB04  4C 0B CB  JMP $CB0B                       A:80 X:80       |       CB04  4C 0B CB  JMP $CB0B                       A:80 X:80
CB0B  EA        NOP                             A:80 X:80       |       CB0B  EA        NOP                             A:80 X:80
CB0C  E0 81     CPX #$81                        A:80 X:80       |       CB0C  E0 81     CPX #$81                        A:80 X:80
CB0E  B0 07     BCS $CB17                       A:80 X:80       |       CB0E  B0 07     BCS $CB17                       A:80 X:80
CB10  F0 05     BEQ $CB17                       A:80 X:80       |       CB10  F0 05     BEQ $CB17                       A:80 X:80
CB12  10 03     BPL $CB17                       A:80 X:80       |       CB12  10 03     BPL $CB17                       A:80 X:80
CB14  4C 1B CB  JMP $CB1B                       A:80 X:80       |       CB14  4C 1B CB  JMP $CB1B                       A:80 X:80
CB1B  EA        NOP                             A:80 X:80       |       CB1B  EA        NOP                             A:80 X:80
CB1C  E0 7F     CPX #$7F                        A:80 X:80       |       CB1C  E0 7F     CPX #$7F                        A:80 X:80
CB1E  90 07     BCC $CB27                       A:80 X:80       |       CB1E  90 07     BCC $CB27                       A:80 X:80
CB20  F0 05     BEQ $CB27                       A:80 X:80       |       CB20  F0 05     BEQ $CB27                       A:80 X:80
CB22  30 03     BMI $CB27                       A:80 X:80       |       CB22  30 03     BMI $CB27                       A:80 X:80
CB24  4C 2B CB  JMP $CB2B                       A:80 X:80       |       CB24  4C 2B CB  JMP $CB2B                       A:80 X:80
CB2B  EA        NOP                             A:80 X:80       |       CB2B  EA        NOP                             A:80 X:80
CB2C  38        SEC                             A:80 X:80       |       CB2C  38        SEC                             A:80 X:80
CB2D  B8        CLV                             A:80 X:80       |       CB2D  B8        CLV                             A:80 X:80
CB2E  A2 9F     LDX #$9F                        A:80 X:80       |       CB2E  A2 9F     LDX #$9F                        A:80 X:80
CB30  F0 09     BEQ $CB3B                       A:80 X:9F       |       CB30  F0 09     BEQ $CB3B                       A:80 X:9F
CB32  10 07     BPL $CB3B                       A:80 X:9F       |       CB32  10 07     BPL $CB3B                       A:80 X:9F
CB34  70 05     BVS $CB3B                       A:80 X:9F       |       CB34  70 05     BVS $CB3B                       A:80 X:9F
CB36  90 03     BCC $CB3B                       A:80 X:9F       |       CB36  90 03     BCC $CB3B                       A:80 X:9F
CB38  4C 3F CB  JMP $CB3F                       A:80 X:9F       |       CB38  4C 3F CB  JMP $CB3F                       A:80 X:9F
CB3F  EA        NOP                             A:80 X:9F       |       CB3F  EA        NOP                             A:80 X:9F
CB40  18        CLC                             A:80 X:9F       |       CB40  18        CLC                             A:80 X:9F
CB41  24 01     BIT $01 = FF                    A:80 X:9F       |       CB41  24 01     BIT $01 = FF                    A:80 X:9F
CB43  A2 00     LDX #$00                        A:80 X:9F       |       CB43  A2 00     LDX #$00                        A:80 X:9F
CB45  D0 09     BNE $CB50                       A:80 X:00       |       CB45  D0 09     BNE $CB50                       A:80 X:00
CB47  30 07     BMI $CB50                       A:80 X:00       |       CB47  30 07     BMI $CB50                       A:80 X:00
CB49  50 05     BVC $CB50                       A:80 X:00       |       CB49  50 05     BVC $CB50                       A:80 X:00
CB4B  B0 03     BCS $CB50                       A:80 X:00       |       CB4B  B0 03     BCS $CB50                       A:80 X:00
CB4D  4C 54 CB  JMP $CB54                       A:80 X:00       |       CB4D  4C 54 CB  JMP $CB54                       A:80 X:00
CB54  EA        NOP                             A:80 X:00       |       CB54  EA        NOP                             A:80 X:00
CB55  38        SEC                             A:80 X:00       |       CB55  38        SEC                             A:80 X:00
CB56  B8        CLV                             A:80 X:00       |       CB56  B8        CLV                             A:80 X:00
CB57  A0 9F     LDY #$9F                        A:80 X:00       |       CB57  A0 9F     LDY #$9F                        A:80 X:00
CB59  F0 09     BEQ $CB64                       A:80 X:00       |       CB59  F0 09     BEQ $CB64                       A:80 X:00
CB5B  10 07     BPL $CB64                       A:80 X:00       |       CB5B  10 07     BPL $CB64                       A:80 X:00
CB5D  70 05     BVS $CB64                       A:80 X:00       |       CB5D  70 05     BVS $CB64                       A:80 X:00
CB5F  90 03     BCC $CB64                       A:80 X:00       |       CB5F  90 03     BCC $CB64                       A:80 X:00
CB61  4C 68 CB  JMP $CB68                       A:80 X:00       |       CB61  4C 68 CB  JMP $CB68                       A:80 X:00
CB68  EA        NOP                             A:80 X:00       |       CB68  EA        NOP                             A:80 X:00
CB69  18        CLC                             A:80 X:00       |       CB69  18        CLC                             A:80 X:00
CB6A  24 01     BIT $01 = FF                    A:80 X:00       |       CB6A  24 01     BIT $01 = FF                    A:80 X:00
CB6C  A0 00     LDY #$00                        A:80 X:00       |       CB6C  A0 00     LDY #$00                        A:80 X:00
CB6E  D0 09     BNE $CB79                       A:80 X:00       |       CB6E  D0 09     BNE $CB79                       A:80 X:00
CB70  30 07     BMI $CB79                       A:80 X:00       |       CB70  30 07     BMI $CB79                       A:80 X:00
CB72  50 05     BVC $CB79                       A:80 X:00       |       CB72  50 05     BVC $CB79                       A:80 X:00
CB74  B0 03     BCS $CB79                       A:80 X:00       |       CB74  B0 03     BCS $CB79                       A:80 X:00
CB76  4C 7D CB  JMP $CB7D                       A:80 X:00       |       CB76  4C 7D CB  JMP $CB7D                       A:80 X:00
CB7D  EA        NOP                             A:80 X:00       |       CB7D  EA        NOP                             A:80 X:00
CB7E  A9 55     LDA #$55                        A:80 X:00       |       CB7E  A9 55     LDA #$55                        A:80 X:00
CB80  A2 AA     LDX #$AA                        A:55 X:00       |       CB80  A2 AA     LDX #$AA                        A:55 X:00
CB82  A0 33     LDY #$33                        A:55 X:AA       |       CB82  A0 33     LDY #$33                        A:55 X:AA
CB84  C9 55     CMP #$55                        A:55 X:AA       |       CB84  C9 55     CMP #$55                        A:55 X:AA
CB86  D0 23     BNE $CBAB                       A:55 X:AA       |       CB86  D0 23     BNE $CBAB                       A:55 X:AA
CB88  E0 AA     CPX #$AA                        A:55 X:AA       |       CB88  E0 AA     CPX #$AA                        A:55 X:AA
CB8A  D0 1F     BNE $CBAB                       A:55 X:AA       |       CB8A  D0 1F     BNE $CBAB                       A:55 X:AA
CB8C  C0 33     CPY #$33                        A:55 X:AA       |       CB8C  C0 33     CPY #$33                        A:55 X:AA
CB8E  D0 1B     BNE $CBAB                       A:55 X:AA       |       CB8E  D0 1B     BNE $CBAB                       A:55 X:AA
CB90  C9 55     CMP #$55                        A:55 X:AA       |       CB90  C9 55     CMP #$55                        A:55 X:AA
CB92  D0 17     BNE $CBAB                       A:55 X:AA       |       CB92  D0 17     BNE $CBAB                       A:55 X:AA
CB94  E0 AA     CPX #$AA                        A:55 X:AA       |       CB94  E0 AA     CPX #$AA                        A:55 X:AA
CB96  D0 13     BNE $CBAB                       A:55 X:AA       |       CB96  D0 13     BNE $CBAB                       A:55 X:AA
CB98  C0 33     CPY #$33                        A:55 X:AA       |       CB98  C0 33     CPY #$33                        A:55 X:AA
CB9A  D0 0F     BNE $CBAB                       A:55 X:AA       |       CB9A  D0 0F     BNE $CBAB                       A:55 X:AA
CB9C  C9 56     CMP #$56                        A:55 X:AA       |       CB9C  C9 56     CMP #$56                        A:55 X:AA
CB9E  F0 0B     BEQ $CBAB                       A:55 X:AA       |       CB9E  F0 0B     BEQ $CBAB                       A:55 X:AA
CBA0  E0 AB     CPX #$AB                        A:55 X:AA       |       CBA0  E0 AB     CPX #$AB                        A:55 X:AA
CBA2  F0 07     BEQ $CBAB                       A:55 X:AA       |       CBA2  F0 07     BEQ $CBAB                       A:55 X:AA
CBA4  C0 34     CPY #$34                        A:55 X:AA       |       CBA4  C0 34     CPY #$34                        A:55 X:AA
CBA6  F0 03     BEQ $CBAB                       A:55 X:AA       |       CBA6  F0 03     BEQ $CBAB                       A:55 X:AA
CBA8  4C AF CB  JMP $CBAF                       A:55 X:AA       |       CBA8  4C AF CB  JMP $CBAF                       A:55 X:AA
CBAF  A0 71     LDY #$71                        A:55 X:AA       |       CBAF  A0 71     LDY #$71                        A:55 X:AA
CBB1  20 31 F9  JSR $F931                       A:55 X:AA       |       CBB1  20 31 F9  JSR $F931                       A:55 X:AA
F931  24 01     BIT $01 = FF                    A:55 X:AA       |       F931  24 01     BIT $01 = FF                    A:55 X:AA
F933  A9 40     LDA #$40                        A:55 X:AA       |       F933  A9 40     LDA #$40                        A:55 X:AA
F935  38        SEC                             A:40 X:AA       |       F935  38        SEC                             A:40 X:AA
F936  60        RTS                             A:40 X:AA       |       F936  60        RTS                             A:40 X:AA
CBB4  E9 40     SBC #$40                        A:40 X:AA       |       CBB4  E9 40     SBC #$40                        A:40 X:AA
CBB6  20 37 F9  JSR $F937                       A:00 X:AA       |       CBB6  20 37 F9  JSR $F937                       A:00 X:AA
F937  30 0B     BMI $F944                       A:00 X:AA       |       F937  30 0B     BMI $F944                       A:00 X:AA
F939  90 09     BCC $F944                       A:00 X:AA       |       F939  90 09     BCC $F944                       A:00 X:AA
F93B  D0 07     BNE $F944                       A:00 X:AA       |       F93B  D0 07     BNE $F944                       A:00 X:AA
F93D  70 05     BVS $F944                       A:00 X:AA       |       F93D  70 05     BVS $F944                       A:00 X:AA
F93F  C9 00     CMP #$00                        A:00 X:AA       |       F93F  C9 00     CMP #$00                        A:00 X:AA
F941  D0 01     BNE $F944                       A:00 X:AA       |       F941  D0 01     BNE $F944                       A:00 X:AA
F943  60        RTS                             A:00 X:AA       |       F943  60        RTS                             A:00 X:AA
CBB9  C8        INY                             A:00 X:AA       |       CBB9  C8        INY                             A:00 X:AA
CBBA  20 47 F9  JSR $F947                       A:00 X:AA       |       CBBA  20 47 F9  JSR $F947                       A:00 X:AA
F947  B8        CLV                             A:00 X:AA       |       F947  B8        CLV                             A:00 X:AA
F948  38        SEC                             A:00 X:AA       |       F948  38        SEC                             A:00 X:AA
F949  A9 40     LDA #$40                        A:00 X:AA       |       F949  A9 40     LDA #$40                        A:00 X:AA
F94B  60        RTS                             A:40 X:AA       |       F94B  60        RTS                             A:40 X:AA
CBBD  E9 3F     SBC #$3F                        A:40 X:AA       |       CBBD  E9 3F     SBC #$3F                        A:40 X:AA
CBBF  20 4C F9  JSR $F94C                       A:01 X:AA       |       CBBF  20 4C F9  JSR $F94C                       A:01 X:AA
F94C  F0 0B     BEQ $F959                       A:01 X:AA       |       F94C  F0 0B     BEQ $F959                       A:01 X:AA
F94E  30 09     BMI $F959                       A:01 X:AA       |       F94E  30 09     BMI $F959                       A:01 X:AA
F950  90 07     BCC $F959                       A:01 X:AA       |       F950  90 07     BCC $F959                       A:01 X:AA
F952  70 05     BVS $F959                       A:01 X:AA       |       F952  70 05     BVS $F959                       A:01 X:AA
F954  C9 01     CMP #$01                        A:01 X:AA       |       F954  C9 01     CMP #$01                        A:01 X:AA
F956  D0 01     BNE $F959                       A:01 X:AA       |       F956  D0 01     BNE $F959                       A:01 X:AA
F958  60        RTS                             A:01 X:AA       |       F958  60        RTS                             A:01 X:AA
CBC2  C8        INY                             A:01 X:AA       |       CBC2  C8        INY                             A:01 X:AA
CBC3  20 5C F9  JSR $F95C                       A:01 X:AA       |       CBC3  20 5C F9  JSR $F95C                       A:01 X:AA
F95C  A9 40     LDA #$40                        A:01 X:AA       |       F95C  A9 40     LDA #$40                        A:01 X:AA
F95E  38        SEC                             A:40 X:AA       |       F95E  38        SEC                             A:40 X:AA
F95F  24 01     BIT $01 = FF                    A:40 X:AA       |       F95F  24 01     BIT $01 = FF                    A:40 X:AA
F961  60        RTS                             A:40 X:AA       |       F961  60        RTS                             A:40 X:AA
CBC6  E9 41     SBC #$41                        A:40 X:AA       |       CBC6  E9 41     SBC #$41                        A:40 X:AA
CBC8  20 62 F9  JSR $F962                       A:FF X:AA       |       CBC8  20 62 F9  JSR $F962                       A:FF X:AA
F962  B0 0B     BCS $F96F                       A:FF X:AA       |       F962  B0 0B     BCS $F96F                       A:FF X:AA
F964  F0 09     BEQ $F96F                       A:FF X:AA       |       F964  F0 09     BEQ $F96F                       A:FF X:AA
F966  10 07     BPL $F96F                       A:FF X:AA       |       F966  10 07     BPL $F96F                       A:FF X:AA
F968  70 05     BVS $F96F                       A:FF X:AA       |       F968  70 05     BVS $F96F                       A:FF X:AA
F96A  C9 FF     CMP #$FF                        A:FF X:AA       |       F96A  C9 FF     CMP #$FF                        A:FF X:AA
F96C  D0 01     BNE $F96F                       A:FF X:AA       |       F96C  D0 01     BNE $F96F                       A:FF X:AA
F96E  60        RTS                             A:FF X:AA       |       F96E  60        RTS                             A:FF X:AA
CBCB  C8        INY                             A:FF X:AA       |       CBCB  C8        INY                             A:FF X:AA
CBCC  20 72 F9  JSR $F972                       A:FF X:AA       |       CBCC  20 72 F9  JSR $F972                       A:FF X:AA
F972  18        CLC                             A:FF X:AA       |       F972  18        CLC                             A:FF X:AA
F973  A9 80     LDA #$80                        A:FF X:AA       |       F973  A9 80     LDA #$80                        A:FF X:AA
F975  60        RTS                             A:80 X:AA       |       F975  60        RTS                             A:80 X:AA
CBCF  E9 00     SBC #$00                        A:80 X:AA       |       CBCF  E9 00     SBC #$00                        A:80 X:AA
CBD1  20 76 F9  JSR $F976                       A:7F X:AA       |       CBD1  20 76 F9  JSR $F976                       A:7F X:AA
F976  90 05     BCC $F97D                       A:7F X:AA       |       F976  90 05     BCC $F97D                       A:7F X:AA
F978  C9 7F     CMP #$7F                        A:7F X:AA       |       F978  C9 7F     CMP #$7F                        A:7F X:AA
F97A  D0 01     BNE $F97D                       A:7F X:AA       |       F97A  D0 01     BNE $F97D                       A:7F X:AA
F97C  60        RTS                             A:7F X:AA       |       F97C  60        RTS                             A:7F X:AA
CBD4  C8        INY                             A:7F X:AA       |       CBD4  C8        INY                             A:7F X:AA
CBD5  20 80 F9  JSR $F980                       A:7F X:AA       |       CBD5  20 80 F9  JSR $F980                       A:7F X:AA
F980  38        SEC                             A:7F X:AA       |       F980  38        SEC                             A:7F X:AA
F981  A9 81     LDA #$81                        A:7F X:AA       |       F981  A9 81     LDA #$81                        A:7F X:AA
F983  60        RTS                             A:81 X:AA       |       F983  60        RTS                             A:81 X:AA
CBD8  E9 7F     SBC #$7F                        A:81 X:AA       |       CBD8  E9 7F     SBC #$7F                        A:81 X:AA
CBDA  20 84 F9  JSR $F984                       A:02 X:AA       |       CBDA  20 84 F9  JSR $F984                       A:02 X:AA
F984  50 07     BVC $F98D                       A:02 X:AA       |       F984  50 07     BVC $F98D                       A:02 X:AA
F986  90 05     BCC $F98D                       A:02 X:AA       |       F986  90 05     BCC $F98D                       A:02 X:AA
F988  C9 02     CMP #$02                        A:02 X:AA       |       F988  C9 02     CMP #$02                        A:02 X:AA
F98A  D0 01     BNE $F98D                       A:02 X:AA       |       F98A  D0 01     BNE $F98D                       A:02 X:AA
F98C  60        RTS                             A:02 X:AA       |       F98C  60        RTS                             A:02 X:AA
CBDD  60        RTS                             A:02 X:AA       |       CBDD  60        RTS                             A:02 X:AA
C606  20 DE CB  JSR $CBDE                       A:02 X:AA       |       C606  20 DE CB  JSR $CBDE                       A:02 X:AA
CBDE  EA        NOP                             A:02 X:AA       |       CBDE  EA        NOP                             A:02 X:AA
CBDF  A9 FF     LDA #$FF                        A:02 X:AA       |       CBDF  A9 FF     LDA #$FF                        A:02 X:AA
CBE1  85 01     STA $01 = FF                    A:FF X:AA       |       CBE1  85 01     STA $01 = FF                    A:FF X:AA
CBE3  A9 44     LDA #$44                        A:FF X:AA       |       CBE3  A9 44     LDA #$44                        A:FF X:AA
CBE5  A2 55     LDX #$55                        A:44 X:AA       |       CBE5  A2 55     LDX #$55                        A:44 X:AA
CBE7  A0 66     LDY #$66                        A:44 X:55       |       CBE7  A0 66     LDY #$66                        A:44 X:55
CBE9  E8        INX                             A:44 X:55       |       CBE9  E8        INX                             A:44 X:55
CBEA  88        DEY                             A:44 X:56       |       CBEA  88        DEY                             A:44 X:56
CBEB  E0 56     CPX #$56                        A:44 X:56       |       CBEB  E0 56     CPX #$56                        A:44 X:56
CBED  D0 21     BNE $CC10                       A:44 X:56       |       CBED  D0 21     BNE $CC10                       A:44 X:56
CBEF  C0 65     CPY #$65                        A:44 X:56       |       CBEF  C0 65     CPY #$65                        A:44 X:56
CBF1  D0 1D     BNE $CC10                       A:44 X:56       |       CBF1  D0 1D     BNE $CC10                       A:44 X:56
CBF3  E8        INX                             A:44 X:56       |       CBF3  E8        INX                             A:44 X:56
CBF4  E8        INX                             A:44 X:57       |       CBF4  E8        INX                             A:44 X:57
CBF5  88        DEY                             A:44 X:58       |       CBF5  88        DEY                             A:44 X:58
CBF6  88        DEY                             A:44 X:58       |       CBF6  88        DEY                             A:44 X:58
CBF7  E0 58     CPX #$58                        A:44 X:58       |       CBF7  E0 58     CPX #$58                        A:44 X:58
CBF9  D0 15     BNE $CC10                       A:44 X:58       |       CBF9  D0 15     BNE $CC10                       A:44 X:58
CBFB  C0 63     CPY #$63                        A:44 X:58       |       CBFB  C0 63     CPY #$63                        A:44 X:58
CBFD  D0 11     BNE $CC10                       A:44 X:58       |       CBFD  D0 11     BNE $CC10                       A:44 X:58
CBFF  CA        DEX                             A:44 X:58       |       CBFF  CA        DEX                             A:44 X:58
CC00  C8        INY                             A:44 X:57       |       CC00  C8        INY                             A:44 X:57
CC01  E0 57     CPX #$57                        A:44 X:57       |       CC01  E0 57     CPX #$57                        A:44 X:57
CC03  D0 0B     BNE $CC10                       A:44 X:57       |       CC03  D0 0B     BNE $CC10                       A:44 X:57
CC05  C0 64     CPY #$64                        A:44 X:57       |       CC05  C0 64     CPY #$64                        A:44 X:57
CC07  D0 07     BNE $CC10                       A:44 X:57       |       CC07  D0 07     BNE $CC10                       A:44 X:57
CC09  C9 44     CMP #$44                        A:44 X:57       |       CC09  C9 44     CMP #$44                        A:44 X:57
CC0B  D0 03     BNE $CC10                       A:44 X:57       |       CC0B  D0 03     BNE $CC10                       A:44 X:57
CC0D  4C 14 CC  JMP $CC14                       A:44 X:57       |       CC0D  4C 14 CC  JMP $CC14                       A:44 X:57
CC14  EA        NOP                             A:44 X:57       |       CC14  EA        NOP                             A:44 X:57
CC15  38        SEC                             A:44 X:57       |       CC15  38        SEC                             A:44 X:57
CC16  A2 69     LDX #$69                        A:44 X:57       |       CC16  A2 69     LDX #$69                        A:44 X:57
CC18  A9 96     LDA #$96                        A:44 X:69       |       CC18  A9 96     LDA #$96                        A:44 X:69
CC1A  24 01     BIT $01 = FF                    A:96 X:69       |       CC1A  24 01     BIT $01 = FF                    A:96 X:69
CC1C  A0 FF     LDY #$FF                        A:96 X:69       |       CC1C  A0 FF     LDY #$FF                        A:96 X:69
CC1E  C8        INY                             A:96 X:69       |       CC1E  C8        INY                             A:96 X:69
CC1F  D0 3D     BNE $CC5E                       A:96 X:69       |       CC1F  D0 3D     BNE $CC5E                       A:96 X:69
CC21  30 3B     BMI $CC5E                       A:96 X:69       |       CC21  30 3B     BMI $CC5E                       A:96 X:69
CC23  90 39     BCC $CC5E                       A:96 X:69       |       CC23  90 39     BCC $CC5E                       A:96 X:69
CC25  50 37     BVC $CC5E                       A:96 X:69       |       CC25  50 37     BVC $CC5E                       A:96 X:69
CC27  C0 00     CPY #$00                        A:96 X:69       |       CC27  C0 00     CPY #$00                        A:96 X:69
CC29  D0 33     BNE $CC5E                       A:96 X:69       |       CC29  D0 33     BNE $CC5E                       A:96 X:69
CC2B  C8        INY                             A:96 X:69       |       CC2B  C8        INY                             A:96 X:69
CC2C  F0 30     BEQ $CC5E                       A:96 X:69       |       CC2C  F0 30     BEQ $CC5E                       A:96 X:69
CC2E  30 2E     BMI $CC5E                       A:96 X:69       |       CC2E  30 2E     BMI $CC5E                       A:96 X:69
CC30  90 2C     BCC $CC5E                       A:96 X:69       |       CC30  90 2C     BCC $CC5E                       A:96 X:69
CC32  50 2A     BVC $CC5E                       A:96 X:69       |       CC32  50 2A     BVC $CC5E                       A:96 X:69
CC34  18        CLC                             A:96 X:69       |       CC34  18        CLC                             A:96 X:69
CC35  B8        CLV                             A:96 X:69       |       CC35  B8        CLV                             A:96 X:69
CC36  A0 00     LDY #$00                        A:96 X:69       |       CC36  A0 00     LDY #$00                        A:96 X:69
CC38  88        DEY                             A:96 X:69       |       CC38  88        DEY                             A:96 X:69
CC39  F0 23     BEQ $CC5E                       A:96 X:69       |       CC39  F0 23     BEQ $CC5E                       A:96 X:69
CC3B  10 21     BPL $CC5E                       A:96 X:69       |       CC3B  10 21     BPL $CC5E                       A:96 X:69
CC3D  B0 1F     BCS $CC5E                       A:96 X:69       |       CC3D  B0 1F     BCS $CC5E                       A:96 X:69
CC3F  70 1D     BVS $CC5E                       A:96 X:69       |       CC3F  70 1D     BVS $CC5E                       A:96 X:69
CC41  C0 FF     CPY #$FF                        A:96 X:69       |       CC41  C0 FF     CPY #$FF                        A:96 X:69
CC43  D0 19     BNE $CC5E                       A:96 X:69       |       CC43  D0 19     BNE $CC5E                       A:96 X:69
CC45  18        CLC                             A:96 X:69       |       CC45  18        CLC                             A:96 X:69
CC46  88        DEY                             A:96 X:69       |       CC46  88        DEY                             A:96 X:69
CC47  F0 15     BEQ $CC5E                       A:96 X:69       |       CC47  F0 15     BEQ $CC5E                       A:96 X:69
CC49  10 13     BPL $CC5E                       A:96 X:69       |       CC49  10 13     BPL $CC5E                       A:96 X:69
CC4B  B0 11     BCS $CC5E                       A:96 X:69       |       CC4B  B0 11     BCS $CC5E                       A:96 X:69
CC4D  70 0F     BVS $CC5E                       A:96 X:69       |       CC4D  70 0F     BVS $CC5E                       A:96 X:69
CC4F  C0 FE     CPY #$FE                        A:96 X:69       |       CC4F  C0 FE     CPY #$FE                        A:96 X:69
CC51  D0 0B     BNE $CC5E                       A:96 X:69       |       CC51  D0 0B     BNE $CC5E                       A:96 X:69
CC53  C9 96     CMP #$96                        A:96 X:69       |       CC53  C9 96     CMP #$96                        A:96 X:69
CC55  D0 07     BNE $CC5E                       A:96 X:69       |       CC55  D0 07     BNE $CC5E                       A:96 X:69
CC57  E0 69     CPX #$69                        A:96 X:69       |       CC57  E0 69     CPX #$69                        A:96 X:69
CC59  D0 03     BNE $CC5E                       A:96 X:69       |       CC59  D0 03     BNE $CC5E                       A:96 X:69
CC5B  4C 62 CC  JMP $CC62                       A:96 X:69       |       CC5B  4C 62 CC  JMP $CC62                       A:96 X:69
CC62  EA        NOP                             A:96 X:69       |       CC62  EA        NOP                             A:96 X:69
CC63  38        SEC                             A:96 X:69       |       CC63  38        SEC                             A:96 X:69
CC64  A0 69     LDY #$69                        A:96 X:69       |       CC64  A0 69     LDY #$69                        A:96 X:69
CC66  A9 96     LDA #$96                        A:96 X:69       |       CC66  A9 96     LDA #$96                        A:96 X:69
CC68  24 01     BIT $01 = FF                    A:96 X:69       |       CC68  24 01     BIT $01 = FF                    A:96 X:69
CC6A  A2 FF     LDX #$FF                        A:96 X:69       |       CC6A  A2 FF     LDX #$FF                        A:96 X:69
CC6C  E8        INX                             A:96 X:FF       |       CC6C  E8        INX                             A:96 X:FF
CC6D  D0 3D     BNE $CCAC                       A:96 X:00       |       CC6D  D0 3D     BNE $CCAC                       A:96 X:00
CC6F  30 3B     BMI $CCAC                       A:96 X:00       |       CC6F  30 3B     BMI $CCAC                       A:96 X:00
CC71  90 39     BCC $CCAC                       A:96 X:00       |       CC71  90 39     BCC $CCAC                       A:96 X:00
CC73  50 37     BVC $CCAC                       A:96 X:00       |       CC73  50 37     BVC $CCAC                       A:96 X:00
CC75  E0 00     CPX #$00                        A:96 X:00       |       CC75  E0 00     CPX #$00                        A:96 X:00
CC77  D0 33     BNE $CCAC                       A:96 X:00       |       CC77  D0 33     BNE $CCAC                       A:96 X:00
CC79  E8        INX                             A:96 X:00       |       CC79  E8        INX                             A:96 X:00
CC7A  F0 30     BEQ $CCAC                       A:96 X:01       |       CC7A  F0 30     BEQ $CCAC                       A:96 X:01
CC7C  30 2E     BMI $CCAC                       A:96 X:01       |       CC7C  30 2E     BMI $CCAC                       A:96 X:01
CC7E  90 2C     BCC $CCAC                       A:96 X:01       |       CC7E  90 2C     BCC $CCAC                       A:96 X:01
CC80  50 2A     BVC $CCAC                       A:96 X:01       |       CC80  50 2A     BVC $CCAC                       A:96 X:01
CC82  18        CLC                             A:96 X:01       |       CC82  18        CLC                             A:96 X:01
CC83  B8        CLV                             A:96 X:01       |       CC83  B8        CLV                             A:96 X:01
CC84  A2 00     LDX #$00                        A:96 X:01       |       CC84  A2 00     LDX #$00                        A:96 X:01
CC86  CA        DEX                             A:96 X:00       |       CC86  CA        DEX                             A:96 X:00
CC87  F0 23     BEQ $CCAC                       A:96 X:FF       |       CC87  F0 23     BEQ $CCAC                       A:96 X:FF
CC89  10 21     BPL $CCAC                       A:96 X:FF       |       CC89  10 21     BPL $CCAC                       A:96 X:FF
CC8B  B0 1F     BCS $CCAC                       A:96 X:FF       |       CC8B  B0 1F     BCS $CCAC                       A:96 X:FF
CC8D  70 1D     BVS $CCAC                       A:96 X:FF       |       CC8D  70 1D     BVS $CCAC                       A:96 X:FF
CC8F  E0 FF     CPX #$FF                        A:96 X:FF       |       CC8F  E0 FF     CPX #$FF                        A:96 X:FF
CC91  D0 19     BNE $CCAC                       A:96 X:FF       |       CC91  D0 19     BNE $CCAC                       A:96 X:FF
CC93  18        CLC                             A:96 X:FF       |       CC93  18        CLC                             A:96 X:FF
CC94  CA        DEX                             A:96 X:FF       |       CC94  CA        DEX                             A:96 X:FF
CC95  F0 15     BEQ $CCAC                       A:96 X:FE       |       CC95  F0 15     BEQ $CCAC                       A:96 X:FE
CC97  10 13     BPL $CCAC                       A:96 X:FE       |       CC97  10 13     BPL $CCAC                       A:96 X:FE
CC99  B0 11     BCS $CCAC                       A:96 X:FE       |       CC99  B0 11     BCS $CCAC                       A:96 X:FE
CC9B  70 0F     BVS $CCAC                       A:96 X:FE       |       CC9B  70 0F     BVS $CCAC                       A:96 X:FE
CC9D  E0 FE     CPX #$FE                        A:96 X:FE       |       CC9D  E0 FE     CPX #$FE                        A:96 X:FE
CC9F  D0 0B     BNE $CCAC                       A:96 X:FE       |       CC9F  D0 0B     BNE $CCAC                       A:96 X:FE
CCA1  C9 96     CMP #$96                        A:96 X:FE       |       CCA1  C9 96     CMP #$96                        A:96 X:FE
CCA3  D0 07     BNE $CCAC                       A:96 X:FE       |       CCA3  D0 07     BNE $CCAC                       A:96 X:FE
CCA5  C0 69     CPY #$69                        A:96 X:FE       |       CCA5  C0 69     CPY #$69                        A:96 X:FE
CCA7  D0 03     BNE $CCAC                       A:96 X:FE       |       CCA7  D0 03     BNE $CCAC                       A:96 X:FE
CCA9  4C B0 CC  JMP $CCB0                       A:96 X:FE       |       CCA9  4C B0 CC  JMP $CCB0                       A:96 X:FE
CCB0  EA        NOP                             A:96 X:FE       |       CCB0  EA        NOP                             A:96 X:FE
CCB1  A9 85     LDA #$85                        A:96 X:FE       |       CCB1  A9 85     LDA #$85                        A:96 X:FE
CCB3  A2 34     LDX #$34                        A:85 X:FE       |       CCB3  A2 34     LDX #$34                        A:85 X:FE
CCB5  A0 99     LDY #$99                        A:85 X:34       |       CCB5  A0 99     LDY #$99                        A:85 X:34
CCB7  18        CLC                             A:85 X:34       |       CCB7  18        CLC                             A:85 X:34
CCB8  24 01     BIT $01 = FF                    A:85 X:34       |       CCB8  24 01     BIT $01 = FF                    A:85 X:34
CCBA  A8        TAY                             A:85 X:34       |       CCBA  A8        TAY                             A:85 X:34
CCBB  F0 2E     BEQ $CCEB                       A:85 X:34       |       CCBB  F0 2E     BEQ $CCEB                       A:85 X:34
CCBD  B0 2C     BCS $CCEB                       A:85 X:34       |       CCBD  B0 2C     BCS $CCEB                       A:85 X:34
CCBF  50 2A     BVC $CCEB                       A:85 X:34       |       CCBF  50 2A     BVC $CCEB                       A:85 X:34
CCC1  10 28     BPL $CCEB                       A:85 X:34       |       CCC1  10 28     BPL $CCEB                       A:85 X:34
CCC3  C9 85     CMP #$85                        A:85 X:34       |       CCC3  C9 85     CMP #$85                        A:85 X:34
CCC5  D0 24     BNE $CCEB                       A:85 X:34       |       CCC5  D0 24     BNE $CCEB                       A:85 X:34
CCC7  E0 34     CPX #$34                        A:85 X:34       |       CCC7  E0 34     CPX #$34                        A:85 X:34
CCC9  D0 20     BNE $CCEB                       A:85 X:34       |       CCC9  D0 20     BNE $CCEB                       A:85 X:34
CCCB  C0 85     CPY #$85                        A:85 X:34       |       CCCB  C0 85     CPY #$85                        A:85 X:34
CCCD  D0 1C     BNE $CCEB                       A:85 X:34       |       CCCD  D0 1C     BNE $CCEB                       A:85 X:34
CCCF  A9 00     LDA #$00                        A:85 X:34       |       CCCF  A9 00     LDA #$00                        A:85 X:34
CCD1  38        SEC                             A:00 X:34       |       CCD1  38        SEC                             A:00 X:34
CCD2  B8        CLV                             A:00 X:34       |       CCD2  B8        CLV                             A:00 X:34
CCD3  A8        TAY                             A:00 X:34       |       CCD3  A8        TAY                             A:00 X:34
CCD4  D0 15     BNE $CCEB                       A:00 X:34       |       CCD4  D0 15     BNE $CCEB                       A:00 X:34
CCD6  90 13     BCC $CCEB                       A:00 X:34       |       CCD6  90 13     BCC $CCEB                       A:00 X:34
CCD8  70 11     BVS $CCEB                       A:00 X:34       |       CCD8  70 11     BVS $CCEB                       A:00 X:34
CCDA  30 0F     BMI $CCEB                       A:00 X:34       |       CCDA  30 0F     BMI $CCEB                       A:00 X:34
CCDC  C9 00     CMP #$00                        A:00 X:34       |       CCDC  C9 00     CMP #$00                        A:00 X:34
CCDE  D0 0B     BNE $CCEB                       A:00 X:34       |       CCDE  D0 0B     BNE $CCEB                       A:00 X:34
CCE0  E0 34     CPX #$34                        A:00 X:34       |       CCE0  E0 34     CPX #$34                        A:00 X:34
CCE2  D0 07     BNE $CCEB                       A:00 X:34       |       CCE2  D0 07     BNE $CCEB                       A:00 X:34
CCE4  C0 00     CPY #$00                        A:00 X:34       |       CCE4  C0 00     CPY #$00                        A:00 X:34
CCE6  D0 03     BNE $CCEB                       A:00 X:34       |       CCE6  D0 03     BNE $CCEB                       A:00 X:34
CCE8  4C EF CC  JMP $CCEF                       A:00 X:34       |       CCE8  4C EF CC  JMP $CCEF                       A:00 X:34
CCEF  EA        NOP                             A:00 X:34       |       CCEF  EA        NOP                             A:00 X:34
CCF0  A9 85     LDA #$85                        A:00 X:34       |       CCF0  A9 85     LDA #$85                        A:00 X:34
CCF2  A2 34     LDX #$34                        A:85 X:34       |       CCF2  A2 34     LDX #$34                        A:85 X:34
CCF4  A0 99     LDY #$99                        A:85 X:34       |       CCF4  A0 99     LDY #$99                        A:85 X:34
CCF6  18        CLC                             A:85 X:34       |       CCF6  18        CLC                             A:85 X:34
CCF7  24 01     BIT $01 = FF                    A:85 X:34       |       CCF7  24 01     BIT $01 = FF                    A:85 X:34
CCF9  AA        TAX                             A:85 X:34       |       CCF9  AA        TAX                             A:85 X:34
CCFA  F0 2E     BEQ $CD2A                       A:85 X:85       |       CCFA  F0 2E     BEQ $CD2A                       A:85 X:85
CCFC  B0 2C     BCS $CD2A                       A:85 X:85       |       CCFC  B0 2C     BCS $CD2A                       A:85 X:85
CCFE  50 2A     BVC $CD2A                       A:85 X:85       |       CCFE  50 2A     BVC $CD2A                       A:85 X:85
CD00  10 28     BPL $CD2A                       A:85 X:85       |       CD00  10 28     BPL $CD2A                       A:85 X:85
CD02  C9 85     CMP #$85                        A:85 X:85       |       CD02  C9 85     CMP #$85                        A:85 X:85
CD04  D0 24     BNE $CD2A                       A:85 X:85       |       CD04  D0 24     BNE $CD2A                       A:85 X:85
CD06  E0 85     CPX #$85                        A:85 X:85       |       CD06  E0 85     CPX #$85                        A:85 X:85
CD08  D0 20     BNE $CD2A                       A:85 X:85       |       CD08  D0 20     BNE $CD2A                       A:85 X:85
CD0A  C0 99     CPY #$99                        A:85 X:85       |       CD0A  C0 99     CPY #$99                        A:85 X:85
CD0C  D0 1C     BNE $CD2A                       A:85 X:85       |       CD0C  D0 1C     BNE $CD2A                       A:85 X:85
CD0E  A9 00     LDA #$00                        A:85 X:85       |       CD0E  A9 00     LDA #$00                        A:85 X:85
CD10  38        SEC                             A:00 X:85       |       CD10  38        SEC                             A:00 X:85
CD11  B8        CLV                             A:00 X:85       |       CD11  B8        CLV                             A:00 X:85
CD12  AA        TAX                             A:00 X:85       |       CD12  AA        TAX                             A:00 X:85
CD13  D0 15     BNE $CD2A                       A:00 X:00       |       CD13  D0 15     BNE $CD2A                       A:00 X:00
CD15  90 13     BCC $CD2A                       A:00 X:00       |       CD15  90 13     BCC $CD2A                       A:00 X:00
CD17  70 11     BVS $CD2A                       A:00 X:00       |       CD17  70 11     BVS $CD2A                       A:00 X:00
CD19  30 0F     BMI $CD2A                       A:00 X:00       |       CD19  30 0F     BMI $CD2A                       A:00 X:00
CD1B  C9 00     CMP #$00                        A:00 X:00       |       CD1B  C9 00     CMP #$00                        A:00 X:00
CD1D  D0 0B     BNE $CD2A                       A:00 X:00       |       CD1D  D0 0B     BNE $CD2A                       A:00 X:00
CD1F  E0 00     CPX #$00                        A:00 X:00       |       CD1F  E0 00     CPX #$00                        A:00 X:00
CD21  D0 07     BNE $CD2A                       A:00 X:00       |       CD21  D0 07     BNE $CD2A                       A:00 X:00
CD23  C0 99     CPY #$99                        A:00 X:00       |       CD23  C0 99     CPY #$99                        A:00 X:00
CD25  D0 03     BNE $CD2A                       A:00 X:00       |       CD25  D0 03     BNE $CD2A                       A:00 X:00
CD27  4C 2E CD  JMP $CD2E                       A:00 X:00       |       CD27  4C 2E CD  JMP $CD2E                       A:00 X:00
CD2E  EA        NOP                             A:00 X:00       |       CD2E  EA        NOP                             A:00 X:00
CD2F  A9 85     LDA #$85                        A:00 X:00       |       CD2F  A9 85     LDA #$85                        A:00 X:00
CD31  A2 34     LDX #$34                        A:85 X:00       |       CD31  A2 34     LDX #$34                        A:85 X:00
CD33  A0 99     LDY #$99                        A:85 X:34       |       CD33  A0 99     LDY #$99                        A:85 X:34
CD35  18        CLC                             A:85 X:34       |       CD35  18        CLC                             A:85 X:34
CD36  24 01     BIT $01 = FF                    A:85 X:34       |       CD36  24 01     BIT $01 = FF                    A:85 X:34
CD38  98        TYA                             A:85 X:34       |       CD38  98        TYA                             A:85 X:34
CD39  F0 2E     BEQ $CD69                       A:99 X:34       |       CD39  F0 2E     BEQ $CD69                       A:99 X:34
CD3B  B0 2C     BCS $CD69                       A:99 X:34       |       CD3B  B0 2C     BCS $CD69                       A:99 X:34
CD3D  50 2A     BVC $CD69                       A:99 X:34       |       CD3D  50 2A     BVC $CD69                       A:99 X:34
CD3F  10 28     BPL $CD69                       A:99 X:34       |       CD3F  10 28     BPL $CD69                       A:99 X:34
CD41  C9 99     CMP #$99                        A:99 X:34       |       CD41  C9 99     CMP #$99                        A:99 X:34
CD43  D0 24     BNE $CD69                       A:99 X:34       |       CD43  D0 24     BNE $CD69                       A:99 X:34
CD45  E0 34     CPX #$34                        A:99 X:34       |       CD45  E0 34     CPX #$34                        A:99 X:34
CD47  D0 20     BNE $CD69                       A:99 X:34       |       CD47  D0 20     BNE $CD69                       A:99 X:34
CD49  C0 99     CPY #$99                        A:99 X:34       |       CD49  C0 99     CPY #$99                        A:99 X:34
CD4B  D0 1C     BNE $CD69                       A:99 X:34       |       CD4B  D0 1C     BNE $CD69                       A:99 X:34
CD4D  A0 00     LDY #$00                        A:99 X:34       |       CD4D  A0 00     LDY #$00                        A:99 X:34
CD4F  38        SEC                             A:99 X:34       |       CD4F  38        SEC                             A:99 X:34
CD50  B8        CLV                             A:99 X:34       |       CD50  B8        CLV                             A:99 X:34
CD51  98        TYA                             A:99 X:34       |       CD51  98        TYA                             A:99 X:34
CD52  D0 15     BNE $CD69                       A:00 X:34       |       CD52  D0 15     BNE $CD69                       A:00 X:34
CD54  90 13     BCC $CD69                       A:00 X:34       |       CD54  90 13     BCC $CD69                       A:00 X:34
CD56  70 11     BVS $CD69                       A:00 X:34       |       CD56  70 11     BVS $CD69                       A:00 X:34
CD58  30 0F     BMI $CD69                       A:00 X:34       |       CD58  30 0F     BMI $CD69                       A:00 X:34
CD5A  C9 00     CMP #$00                        A:00 X:34       |       CD5A  C9 00     CMP #$00                        A:00 X:34
CD5C  D0 0B     BNE $CD69                       A:00 X:34       |       CD5C  D0 0B     BNE $CD69                       A:00 X:34
CD5E  E0 34     CPX #$34                        A:00 X:34       |       CD5E  E0 34     CPX #$34                        A:00 X:34
CD60  D0 07     BNE $CD69                       A:00 X:34       |       CD60  D0 07     BNE $CD69                       A:00 X:34
CD62  C0 00     CPY #$00                        A:00 X:34       |       CD62  C0 00     CPY #$00                        A:00 X:34
CD64  D0 03     BNE $CD69                       A:00 X:34       |       CD64  D0 03     BNE $CD69                       A:00 X:34
CD66  4C 6D CD  JMP $CD6D                       A:00 X:34       |       CD66  4C 6D CD  JMP $CD6D                       A:00 X:34
CD6D  EA        NOP                             A:00 X:34       |       CD6D  EA        NOP                             A:00 X:34
CD6E  A9 85     LDA #$85                        A:00 X:34       |       CD6E  A9 85     LDA #$85                        A:00 X:34
CD70  A2 34     LDX #$34                        A:85 X:34       |       CD70  A2 34     LDX #$34                        A:85 X:34
CD72  A0 99     LDY #$99                        A:85 X:34       |       CD72  A0 99     LDY #$99                        A:85 X:34
CD74  18        CLC                             A:85 X:34       |       CD74  18        CLC                             A:85 X:34
CD75  24 01     BIT $01 = FF                    A:85 X:34       |       CD75  24 01     BIT $01 = FF                    A:85 X:34
CD77  8A        TXA                             A:85 X:34       |       CD77  8A        TXA                             A:85 X:34
CD78  F0 2E     BEQ $CDA8                       A:34 X:34       |       CD78  F0 2E     BEQ $CDA8                       A:34 X:34
CD7A  B0 2C     BCS $CDA8                       A:34 X:34       |       CD7A  B0 2C     BCS $CDA8                       A:34 X:34
CD7C  50 2A     BVC $CDA8                       A:34 X:34       |       CD7C  50 2A     BVC $CDA8                       A:34 X:34
CD7E  30 28     BMI $CDA8                       A:34 X:34       |       CD7E  30 28     BMI $CDA8                       A:34 X:34
CD80  C9 34     CMP #$34                        A:34 X:34       |       CD80  C9 34     CMP #$34                        A:34 X:34
CD82  D0 24     BNE $CDA8                       A:34 X:34       |       CD82  D0 24     BNE $CDA8                       A:34 X:34
CD84  E0 34     CPX #$34                        A:34 X:34       |       CD84  E0 34     CPX #$34                        A:34 X:34
CD86  D0 20     BNE $CDA8                       A:34 X:34       |       CD86  D0 20     BNE $CDA8                       A:34 X:34
CD88  C0 99     CPY #$99                        A:34 X:34       |       CD88  C0 99     CPY #$99                        A:34 X:34
CD8A  D0 1C     BNE $CDA8                       A:34 X:34       |       CD8A  D0 1C     BNE $CDA8                       A:34 X:34
CD8C  A2 00     LDX #$00                        A:34 X:34       |       CD8C  A2 00     LDX #$00                        A:34 X:34
CD8E  38        SEC                             A:34 X:00       |       CD8E  38        SEC                             A:34 X:00
CD8F  B8        CLV                             A:34 X:00       |       CD8F  B8        CLV                             A:34 X:00
CD90  8A        TXA                             A:34 X:00       |       CD90  8A        TXA                             A:34 X:00
CD91  D0 15     BNE $CDA8                       A:00 X:00       |       CD91  D0 15     BNE $CDA8                       A:00 X:00
CD93  90 13     BCC $CDA8                       A:00 X:00       |       CD93  90 13     BCC $CDA8                       A:00 X:00
CD95  70 11     BVS $CDA8                       A:00 X:00       |       CD95  70 11     BVS $CDA8                       A:00 X:00
CD97  30 0F     BMI $CDA8                       A:00 X:00       |       CD97  30 0F     BMI $CDA8                       A:00 X:00
CD99  C9 00     CMP #$00                        A:00 X:00       |       CD99  C9 00     CMP #$00                        A:00 X:00
CD9B  D0 0B     BNE $CDA8                       A:00 X:00       |       CD9B  D0 0B     BNE $CDA8                       A:00 X:00
CD9D  E0 00     CPX #$00                        A:00 X:00       |       CD9D  E0 00     CPX #$00                        A:00 X:00
CD9F  D0 07     BNE $CDA8                       A:00 X:00       |       CD9F  D0 07     BNE $CDA8                       A:00 X:00
CDA1  C0 99     CPY #$99                        A:00 X:00       |       CDA1  C0 99     CPY #$99                        A:00 X:00
CDA3  D0 03     BNE $CDA8                       A:00 X:00       |       CDA3  D0 03     BNE $CDA8                       A:00 X:00
CDA5  4C AC CD  JMP $CDAC                       A:00 X:00       |       CDA5  4C AC CD  JMP $CDAC                       A:00 X:00
CDAC  EA        NOP                             A:00 X:00       |       CDAC  EA        NOP                             A:00 X:00
CDAD  BA        TSX                             A:00 X:00       |       CDAD  BA        TSX                             A:00 X:00
CDAE  8E FF 07  STX $07FF = 00                  A:00 X:FB       |       CDAE  8E FF 07  STX $07FF = 00                  A:00 X:FB
CDB1  A0 33     LDY #$33                        A:00 X:FB       |       CDB1  A0 33     LDY #$33                        A:00 X:FB
CDB3  A2 69     LDX #$69                        A:00 X:FB       |       CDB3  A2 69     LDX #$69                        A:00 X:FB
CDB5  A9 84     LDA #$84                        A:00 X:69       |       CDB5  A9 84     LDA #$84                        A:00 X:69
CDB7  18        CLC                             A:84 X:69       |       CDB7  18        CLC                             A:84 X:69
CDB8  24 01     BIT $01 = FF                    A:84 X:69       |       CDB8  24 01     BIT $01 = FF                    A:84 X:69
CDBA  9A        TXS                             A:84 X:69       |       CDBA  9A        TXS                             A:84 X:69
CDBB  F0 32     BEQ $CDEF                       A:84 X:69       |       CDBB  F0 32     BEQ $CDEF                       A:84 X:69
CDBD  10 30     BPL $CDEF                       A:84 X:69       |       CDBD  10 30     BPL $CDEF                       A:84 X:69
CDBF  B0 2E     BCS $CDEF                       A:84 X:69       |       CDBF  B0 2E     BCS $CDEF                       A:84 X:69
CDC1  50 2C     BVC $CDEF                       A:84 X:69       |       CDC1  50 2C     BVC $CDEF                       A:84 X:69
CDC3  C9 84     CMP #$84                        A:84 X:69       |       CDC3  C9 84     CMP #$84                        A:84 X:69
CDC5  D0 28     BNE $CDEF                       A:84 X:69       |       CDC5  D0 28     BNE $CDEF                       A:84 X:69
CDC7  E0 69     CPX #$69                        A:84 X:69       |       CDC7  E0 69     CPX #$69                        A:84 X:69
CDC9  D0 24     BNE $CDEF                       A:84 X:69       |       CDC9  D0 24     BNE $CDEF                       A:84 X:69
CDCB  C0 33     CPY #$33                        A:84 X:69       |       CDCB  C0 33     CPY #$33                        A:84 X:69
CDCD  D0 20     BNE $CDEF                       A:84 X:69       |       CDCD  D0 20     BNE $CDEF                       A:84 X:69
CDCF  A0 01     LDY #$01                        A:84 X:69       |       CDCF  A0 01     LDY #$01                        A:84 X:69
CDD1  A9 04     LDA #$04                        A:84 X:69       |       CDD1  A9 04     LDA #$04                        A:84 X:69
CDD3  38        SEC                             A:04 X:69       |       CDD3  38        SEC                             A:04 X:69
CDD4  B8        CLV                             A:04 X:69       |       CDD4  B8        CLV                             A:04 X:69
CDD5  A2 00     LDX #$00                        A:04 X:69       |       CDD5  A2 00     LDX #$00                        A:04 X:69
CDD7  BA        TSX                             A:04 X:00       |       CDD7  BA        TSX                             A:04 X:00
CDD8  F0 15     BEQ $CDEF                       A:04 X:69       |       CDD8  F0 15     BEQ $CDEF                       A:04 X:69
CDDA  30 13     BMI $CDEF                       A:04 X:69       |       CDDA  30 13     BMI $CDEF                       A:04 X:69
CDDC  90 11     BCC $CDEF                       A:04 X:69       |       CDDC  90 11     BCC $CDEF                       A:04 X:69
CDDE  70 0F     BVS $CDEF                       A:04 X:69       |       CDDE  70 0F     BVS $CDEF                       A:04 X:69
CDE0  E0 69     CPX #$69                        A:04 X:69       |       CDE0  E0 69     CPX #$69                        A:04 X:69
CDE2  D0 0B     BNE $CDEF                       A:04 X:69       |       CDE2  D0 0B     BNE $CDEF                       A:04 X:69
CDE4  C9 04     CMP #$04                        A:04 X:69       |       CDE4  C9 04     CMP #$04                        A:04 X:69
CDE6  D0 07     BNE $CDEF                       A:04 X:69       |       CDE6  D0 07     BNE $CDEF                       A:04 X:69
CDE8  C0 01     CPY #$01                        A:04 X:69       |       CDE8  C0 01     CPY #$01                        A:04 X:69
CDEA  D0 03     BNE $CDEF                       A:04 X:69       |       CDEA  D0 03     BNE $CDEF                       A:04 X:69
CDEC  4C F3 CD  JMP $CDF3                       A:04 X:69       |       CDEC  4C F3 CD  JMP $CDF3                       A:04 X:69
CDF3  AE FF 07  LDX $07FF = FB                  A:04 X:69       |       CDF3  AE FF 07  LDX $07FF = FB                  A:04 X:69
CDF6  9A        TXS                             A:04 X:FB       |       CDF6  9A        TXS                             A:04 X:FB
CDF7  60        RTS                             A:04 X:FB       |       CDF7  60        RTS                             A:04 X:FB
C609  20 F8 CD  JSR $CDF8                       A:04 X:FB       |       C609  20 F8 CD  JSR $CDF8                       A:04 X:FB
CDF8  A9 FF     LDA #$FF                        A:04 X:FB       |       CDF8  A9 FF     LDA #$FF                        A:04 X:FB
CDFA  85 01     STA $01 = FF                    A:FF X:FB       |       CDFA  85 01     STA $01 = FF                    A:FF X:FB
CDFC  BA        TSX                             A:FF X:FB       |       CDFC  BA        TSX                             A:FF X:FB
CDFD  8E FF 07  STX $07FF = FB                  A:FF X:FB       |       CDFD  8E FF 07  STX $07FF = FB                  A:FF X:FB
CE00  EA        NOP                             A:FF X:FB       |       CE00  EA        NOP                             A:FF X:FB
CE01  A2 80     LDX #$80                        A:FF X:FB       |       CE01  A2 80     LDX #$80                        A:FF X:FB
CE03  9A        TXS                             A:FF X:80       |       CE03  9A        TXS                             A:FF X:80
CE04  A9 33     LDA #$33                        A:FF X:80       |       CE04  A9 33     LDA #$33                        A:FF X:80
CE06  48        PHA                             A:33 X:80       |       CE06  48        PHA                             A:33 X:80
CE07  A9 69     LDA #$69                        A:33 X:80       |       CE07  A9 69     LDA #$69                        A:33 X:80
CE09  48        PHA                             A:69 X:80       |       CE09  48        PHA                             A:69 X:80
CE0A  BA        TSX                             A:69 X:80       |       CE0A  BA        TSX                             A:69 X:80
CE0B  E0 7E     CPX #$7E                        A:69 X:7E       |       CE0B  E0 7E     CPX #$7E                        A:69 X:7E
CE0D  D0 20     BNE $CE2F                       A:69 X:7E       |       CE0D  D0 20     BNE $CE2F                       A:69 X:7E
CE0F  68        PLA                             A:69 X:7E       |       CE0F  68        PLA                             A:69 X:7E
CE10  C9 69     CMP #$69                        A:69 X:7E       |       CE10  C9 69     CMP #$69                        A:69 X:7E
CE12  D0 1B     BNE $CE2F                       A:69 X:7E       |       CE12  D0 1B     BNE $CE2F                       A:69 X:7E
CE14  68        PLA                             A:69 X:7E       |       CE14  68        PLA                             A:69 X:7E
CE15  C9 33     CMP #$33                        A:33 X:7E       |       CE15  C9 33     CMP #$33                        A:33 X:7E
CE17  D0 16     BNE $CE2F                       A:33 X:7E       |       CE17  D0 16     BNE $CE2F                       A:33 X:7E
CE19  BA        TSX                             A:33 X:7E       |       CE19  BA        TSX                             A:33 X:7E
CE1A  E0 80     CPX #$80                        A:33 X:80       |       CE1A  E0 80     CPX #$80                        A:33 X:80
CE1C  D0 11     BNE $CE2F                       A:33 X:80       |       CE1C  D0 11     BNE $CE2F                       A:33 X:80
CE1E  AD 80 01  LDA $0180 = 33                  A:33 X:80       |       CE1E  AD 80 01  LDA $0180 = 33                  A:33 X:80
CE21  C9 33     CMP #$33                        A:33 X:80       |       CE21  C9 33     CMP #$33                        A:33 X:80
CE23  D0 0A     BNE $CE2F                       A:33 X:80       |       CE23  D0 0A     BNE $CE2F                       A:33 X:80
CE25  AD 7F 01  LDA $017F = 69                  A:33 X:80       |       CE25  AD 7F 01  LDA $017F = 69                  A:33 X:80
CE28  C9 69     CMP #$69                        A:69 X:80       |       CE28  C9 69     CMP #$69                        A:69 X:80
CE2A  D0 03     BNE $CE2F                       A:69 X:80       |       CE2A  D0 03     BNE $CE2F                       A:69 X:80
CE2C  4C 33 CE  JMP $CE33                       A:69 X:80       |       CE2C  4C 33 CE  JMP $CE33                       A:69 X:80
CE33  EA        NOP                             A:69 X:80       |       CE33  EA        NOP                             A:69 X:80
CE34  A2 80     LDX #$80                        A:69 X:80       |       CE34  A2 80     LDX #$80                        A:69 X:80
CE36  9A        TXS                             A:69 X:80       |       CE36  9A        TXS                             A:69 X:80
CE37  20 3D CE  JSR $CE3D                       A:69 X:80       |       CE37  20 3D CE  JSR $CE3D                       A:69 X:80
CE3D  BA        TSX                             A:69 X:80       |       CE3D  BA        TSX                             A:69 X:80
CE3E  E0 7E     CPX #$7E                        A:69 X:7E       |       CE3E  E0 7E     CPX #$7E                        A:69 X:7E
CE40  D0 19     BNE $CE5B                       A:69 X:7E       |       CE40  D0 19     BNE $CE5B                       A:69 X:7E
CE42  68        PLA                             A:69 X:7E       |       CE42  68        PLA                             A:69 X:7E
CE43  68        PLA                             A:39 X:7E       |       CE43  68        PLA                             A:39 X:7E
CE44  BA        TSX                             A:CE X:7E       |       CE44  BA        TSX                             A:CE X:7E
CE45  E0 80     CPX #$80                        A:CE X:80       |       CE45  E0 80     CPX #$80                        A:CE X:80
CE47  D0 12     BNE $CE5B                       A:CE X:80       |       CE47  D0 12     BNE $CE5B                       A:CE X:80
CE49  A9 00     LDA #$00                        A:CE X:80       |       CE49  A9 00     LDA #$00                        A:CE X:80
CE4B  20 4E CE  JSR $CE4E                       A:00 X:80       |       CE4B  20 4E CE  JSR $CE4E                       A:00 X:80
CE4E  68        PLA                             A:00 X:80       |       CE4E  68        PLA                             A:00 X:80
CE4F  C9 4D     CMP #$4D                        A:4D X:80       |       CE4F  C9 4D     CMP #$4D                        A:4D X:80
CE51  D0 08     BNE $CE5B                       A:4D X:80       |       CE51  D0 08     BNE $CE5B                       A:4D X:80
CE53  68        PLA                             A:4D X:80       |       CE53  68        PLA                             A:4D X:80
CE54  C9 CE     CMP #$CE                        A:CE X:80       |       CE54  C9 CE     CMP #$CE                        A:CE X:80
CE56  D0 03     BNE $CE5B                       A:CE X:80       |       CE56  D0 03     BNE $CE5B                       A:CE X:80
CE58  4C 5F CE  JMP $CE5F                       A:CE X:80       |       CE58  4C 5F CE  JMP $CE5F                       A:CE X:80
CE5F  EA        NOP                             A:CE X:80       |       CE5F  EA        NOP                             A:CE X:80
CE60  A9 CE     LDA #$CE                        A:CE X:80       |       CE60  A9 CE     LDA #$CE                        A:CE X:80
CE62  48        PHA                             A:CE X:80       |       CE62  48        PHA                             A:CE X:80
CE63  A9 66     LDA #$66                        A:CE X:80       |       CE63  A9 66     LDA #$66                        A:CE X:80
CE65  48        PHA                             A:66 X:80       |       CE65  48        PHA                             A:66 X:80
CE66  60        RTS                             A:66 X:80       |       CE66  60        RTS                             A:66 X:80
CE67  A2 77     LDX #$77                        A:66 X:80       |       CE67  A2 77     LDX #$77                        A:66 X:80
CE69  A0 69     LDY #$69                        A:66 X:77       |       CE69  A0 69     LDY #$69                        A:66 X:77
CE6B  18        CLC                             A:66 X:77       |       CE6B  18        CLC                             A:66 X:77
CE6C  24 01     BIT $01 = FF                    A:66 X:77       |       CE6C  24 01     BIT $01 = FF                    A:66 X:77
CE6E  A9 83     LDA #$83                        A:66 X:77       |       CE6E  A9 83     LDA #$83                        A:66 X:77
CE70  20 66 CE  JSR $CE66                       A:83 X:77       |       CE70  20 66 CE  JSR $CE66                       A:83 X:77
CE66  60        RTS                             A:83 X:77       |       CE66  60        RTS                             A:83 X:77
CE73  F0 24     BEQ $CE99                       A:83 X:77       |       CE73  F0 24     BEQ $CE99                       A:83 X:77
CE75  10 22     BPL $CE99                       A:83 X:77       |       CE75  10 22     BPL $CE99                       A:83 X:77
CE77  B0 20     BCS $CE99                       A:83 X:77       |       CE77  B0 20     BCS $CE99                       A:83 X:77
CE79  50 1E     BVC $CE99                       A:83 X:77       |       CE79  50 1E     BVC $CE99                       A:83 X:77
CE7B  C9 83     CMP #$83                        A:83 X:77       |       CE7B  C9 83     CMP #$83                        A:83 X:77
CE7D  D0 1A     BNE $CE99                       A:83 X:77       |       CE7D  D0 1A     BNE $CE99                       A:83 X:77
CE7F  C0 69     CPY #$69                        A:83 X:77       |       CE7F  C0 69     CPY #$69                        A:83 X:77
CE81  D0 16     BNE $CE99                       A:83 X:77       |       CE81  D0 16     BNE $CE99                       A:83 X:77
CE83  E0 77     CPX #$77                        A:83 X:77       |       CE83  E0 77     CPX #$77                        A:83 X:77
CE85  D0 12     BNE $CE99                       A:83 X:77       |       CE85  D0 12     BNE $CE99                       A:83 X:77
CE87  38        SEC                             A:83 X:77       |       CE87  38        SEC                             A:83 X:77
CE88  B8        CLV                             A:83 X:77       |       CE88  B8        CLV                             A:83 X:77
CE89  A9 00     LDA #$00                        A:83 X:77       |       CE89  A9 00     LDA #$00                        A:83 X:77
CE8B  20 66 CE  JSR $CE66                       A:00 X:77       |       CE8B  20 66 CE  JSR $CE66                       A:00 X:77
CE66  60        RTS                             A:00 X:77       |       CE66  60        RTS                             A:00 X:77
CE8E  D0 09     BNE $CE99                       A:00 X:77       |       CE8E  D0 09     BNE $CE99                       A:00 X:77
CE90  30 07     BMI $CE99                       A:00 X:77       |       CE90  30 07     BMI $CE99                       A:00 X:77
CE92  90 05     BCC $CE99                       A:00 X:77       |       CE92  90 05     BCC $CE99                       A:00 X:77
CE94  70 03     BVS $CE99                       A:00 X:77       |       CE94  70 03     BVS $CE99                       A:00 X:77
CE96  4C 9D CE  JMP $CE9D                       A:00 X:77       |       CE96  4C 9D CE  JMP $CE9D                       A:00 X:77
CE9D  EA        NOP                             A:00 X:77       |       CE9D  EA        NOP                             A:00 X:77
CE9E  A9 CE     LDA #$CE                        A:00 X:77       |       CE9E  A9 CE     LDA #$CE                        A:00 X:77
CEA0  48        PHA                             A:CE X:77       |       CEA0  48        PHA                             A:CE X:77
CEA1  A9 AE     LDA #$AE                        A:CE X:77       |       CEA1  A9 AE     LDA #$AE                        A:CE X:77
CEA3  48        PHA                             A:AE X:77       |       CEA3  48        PHA                             A:AE X:77
CEA4  A9 65     LDA #$65                        A:AE X:77       |       CEA4  A9 65     LDA #$65                        A:AE X:77
CEA6  48        PHA                             A:65 X:77       |       CEA6  48        PHA                             A:65 X:77
CEA7  A9 55     LDA #$55                        A:65 X:77       |       CEA7  A9 55     LDA #$55                        A:65 X:77
CEA9  A0 88     LDY #$88                        A:55 X:77       |       CEA9  A0 88     LDY #$88                        A:55 X:77
CEAB  A2 99     LDX #$99                        A:55 X:77       |       CEAB  A2 99     LDX #$99                        A:55 X:77
CEAD  40        RTI                             A:55 X:99       |       CEAD  40        RTI                             A:55 X:99
CEAE  30 35     BMI $CEE5                       A:55 X:99       |       CEAE  30 35     BMI $CEE5                       A:55 X:99
CEB0  50 33     BVC $CEE5                       A:55 X:99       |       CEB0  50 33     BVC $CEE5                       A:55 X:99
CEB2  F0 31     BEQ $CEE5                       A:55 X:99       |       CEB2  F0 31     BEQ $CEE5                       A:55 X:99
CEB4  90 2F     BCC $CEE5                       A:55 X:99       |       CEB4  90 2F     BCC $CEE5                       A:55 X:99
CEB6  C9 55     CMP #$55                        A:55 X:99       |       CEB6  C9 55     CMP #$55                        A:55 X:99
CEB8  D0 2B     BNE $CEE5                       A:55 X:99       |       CEB8  D0 2B     BNE $CEE5                       A:55 X:99
CEBA  C0 88     CPY #$88                        A:55 X:99       |       CEBA  C0 88     CPY #$88                        A:55 X:99
CEBC  D0 27     BNE $CEE5                       A:55 X:99       |       CEBC  D0 27     BNE $CEE5                       A:55 X:99
CEBE  E0 99     CPX #$99                        A:55 X:99       |       CEBE  E0 99     CPX #$99                        A:55 X:99
CEC0  D0 23     BNE $CEE5                       A:55 X:99       |       CEC0  D0 23     BNE $CEE5                       A:55 X:99
CEC2  A9 CE     LDA #$CE                        A:55 X:99       |       CEC2  A9 CE     LDA #$CE                        A:55 X:99
CEC4  48        PHA                             A:CE X:99       |       CEC4  48        PHA                             A:CE X:99
CEC5  A9 CE     LDA #$CE                        A:CE X:99       |       CEC5  A9 CE     LDA #$CE                        A:CE X:99
CEC7  48        PHA                             A:CE X:99       |       CEC7  48        PHA                             A:CE X:99
CEC8  A9 87     LDA #$87                        A:CE X:99       |       CEC8  A9 87     LDA #$87                        A:CE X:99
CECA  48        PHA                             A:87 X:99       |       CECA  48        PHA                             A:87 X:99
CECB  A9 55     LDA #$55                        A:87 X:99       |       CECB  A9 55     LDA #$55                        A:87 X:99
CECD  40        RTI                             A:55 X:99       |       CECD  40        RTI                             A:55 X:99
CECE  10 15     BPL $CEE5                       A:55 X:99       |       CECE  10 15     BPL $CEE5                       A:55 X:99
CED0  70 13     BVS $CEE5                       A:55 X:99       |       CED0  70 13     BVS $CEE5                       A:55 X:99
CED2  D0 11     BNE $CEE5                       A:55 X:99       |       CED2  D0 11     BNE $CEE5                       A:55 X:99
CED4  90 0F     BCC $CEE5                       A:55 X:99       |       CED4  90 0F     BCC $CEE5                       A:55 X:99
CED6  C9 55     CMP #$55                        A:55 X:99       |       CED6  C9 55     CMP #$55                        A:55 X:99
CED8  D0 0B     BNE $CEE5                       A:55 X:99       |       CED8  D0 0B     BNE $CEE5                       A:55 X:99
CEDA  C0 88     CPY #$88                        A:55 X:99       |       CEDA  C0 88     CPY #$88                        A:55 X:99
CEDC  D0 07     BNE $CEE5                       A:55 X:99       |       CEDC  D0 07     BNE $CEE5                       A:55 X:99
CEDE  E0 99     CPX #$99                        A:55 X:99       |       CEDE  E0 99     CPX #$99                        A:55 X:99
CEE0  D0 03     BNE $CEE5                       A:55 X:99       |       CEE0  D0 03     BNE $CEE5                       A:55 X:99
CEE2  4C E9 CE  JMP $CEE9                       A:55 X:99       |       CEE2  4C E9 CE  JMP $CEE9                       A:55 X:99
CEE9  AE FF 07  LDX $07FF = FB                  A:55 X:99       |       CEE9  AE FF 07  LDX $07FF = FB                  A:55 X:99
CEEC  9A        TXS                             A:55 X:FB       |       CEEC  9A        TXS                             A:55 X:FB
CEED  60        RTS                             A:55 X:FB       |       CEED  60        RTS                             A:55 X:FB
C60C  20 EE CE  JSR $CEEE                       A:55 X:FB       |       C60C  20 EE CE  JSR $CEEE                       A:55 X:FB
CEEE  A2 55     LDX #$55                        A:55 X:FB       |       CEEE  A2 55     LDX #$55                        A:55 X:FB
CEF0  A0 69     LDY #$69                        A:55 X:55       |       CEF0  A0 69     LDY #$69                        A:55 X:55
CEF2  A9 FF     LDA #$FF                        A:55 X:55       |       CEF2  A9 FF     LDA #$FF                        A:55 X:55
CEF4  85 01     STA $01 = FF                    A:FF X:55       |       CEF4  85 01     STA $01 = FF                    A:FF X:55
CEF6  EA        NOP                             A:FF X:55       |       CEF6  EA        NOP                             A:FF X:55
CEF7  24 01     BIT $01 = FF                    A:FF X:55       |       CEF7  24 01     BIT $01 = FF                    A:FF X:55
CEF9  38        SEC                             A:FF X:55       |       CEF9  38        SEC                             A:FF X:55
CEFA  A9 01     LDA #$01                        A:FF X:55       |       CEFA  A9 01     LDA #$01                        A:FF X:55
CEFC  4A        LSR A                           A:01 X:55       |       CEFC  4A        LSR A                           A:01 X:55
CEFD  90 1D     BCC $CF1C                       A:00 X:55       |       CEFD  90 1D     BCC $CF1C                       A:00 X:55
CEFF  D0 1B     BNE $CF1C                       A:00 X:55       |       CEFF  D0 1B     BNE $CF1C                       A:00 X:55
CF01  30 19     BMI $CF1C                       A:00 X:55       |       CF01  30 19     BMI $CF1C                       A:00 X:55
CF03  50 17     BVC $CF1C                       A:00 X:55       |       CF03  50 17     BVC $CF1C                       A:00 X:55
CF05  C9 00     CMP #$00                        A:00 X:55       |       CF05  C9 00     CMP #$00                        A:00 X:55
CF07  D0 13     BNE $CF1C                       A:00 X:55       |       CF07  D0 13     BNE $CF1C                       A:00 X:55
CF09  B8        CLV                             A:00 X:55       |       CF09  B8        CLV                             A:00 X:55
CF0A  A9 AA     LDA #$AA                        A:00 X:55       |       CF0A  A9 AA     LDA #$AA                        A:00 X:55
CF0C  4A        LSR A                           A:AA X:55       |       CF0C  4A        LSR A                           A:AA X:55
CF0D  B0 0D     BCS $CF1C                       A:55 X:55       |       CF0D  B0 0D     BCS $CF1C                       A:55 X:55
CF0F  F0 0B     BEQ $CF1C                       A:55 X:55       |       CF0F  F0 0B     BEQ $CF1C                       A:55 X:55
CF11  30 09     BMI $CF1C                       A:55 X:55       |       CF11  30 09     BMI $CF1C                       A:55 X:55
CF13  70 07     BVS $CF1C                       A:55 X:55       |       CF13  70 07     BVS $CF1C                       A:55 X:55
CF15  C9 55     CMP #$55                        A:55 X:55       |       CF15  C9 55     CMP #$55                        A:55 X:55
CF17  D0 03     BNE $CF1C                       A:55 X:55       |       CF17  D0 03     BNE $CF1C                       A:55 X:55
CF19  4C 20 CF  JMP $CF20                       A:55 X:55       |       CF19  4C 20 CF  JMP $CF20                       A:55 X:55
CF20  EA        NOP                             A:55 X:55       |       CF20  EA        NOP                             A:55 X:55
CF21  24 01     BIT $01 = FF                    A:55 X:55       |       CF21  24 01     BIT $01 = FF                    A:55 X:55
CF23  38        SEC                             A:55 X:55       |       CF23  38        SEC                             A:55 X:55
CF24  A9 80     LDA #$80                        A:55 X:55       |       CF24  A9 80     LDA #$80                        A:55 X:55
CF26  0A        ASL A                           A:80 X:55       |       CF26  0A        ASL A                           A:80 X:55
CF27  90 1E     BCC $CF47                       A:00 X:55       |       CF27  90 1E     BCC $CF47                       A:00 X:55
CF29  D0 1C     BNE $CF47                       A:00 X:55       |       CF29  D0 1C     BNE $CF47                       A:00 X:55
CF2B  30 1A     BMI $CF47                       A:00 X:55       |       CF2B  30 1A     BMI $CF47                       A:00 X:55
CF2D  50 18     BVC $CF47                       A:00 X:55       |       CF2D  50 18     BVC $CF47                       A:00 X:55
CF2F  C9 00     CMP #$00                        A:00 X:55       |       CF2F  C9 00     CMP #$00                        A:00 X:55
CF31  D0 14     BNE $CF47                       A:00 X:55       |       CF31  D0 14     BNE $CF47                       A:00 X:55
CF33  B8        CLV                             A:00 X:55       |       CF33  B8        CLV                             A:00 X:55
CF34  38        SEC                             A:00 X:55       |       CF34  38        SEC                             A:00 X:55
CF35  A9 55     LDA #$55                        A:00 X:55       |       CF35  A9 55     LDA #$55                        A:00 X:55
CF37  0A        ASL A                           A:55 X:55       |       CF37  0A        ASL A                           A:55 X:55
CF38  B0 0D     BCS $CF47                       A:AA X:55       |       CF38  B0 0D     BCS $CF47                       A:AA X:55
CF3A  F0 0B     BEQ $CF47                       A:AA X:55       |       CF3A  F0 0B     BEQ $CF47                       A:AA X:55
CF3C  10 09     BPL $CF47                       A:AA X:55       |       CF3C  10 09     BPL $CF47                       A:AA X:55
CF3E  70 07     BVS $CF47                       A:AA X:55       |       CF3E  70 07     BVS $CF47                       A:AA X:55
CF40  C9 AA     CMP #$AA                        A:AA X:55       |       CF40  C9 AA     CMP #$AA                        A:AA X:55
CF42  D0 03     BNE $CF47                       A:AA X:55       |       CF42  D0 03     BNE $CF47                       A:AA X:55
CF44  4C 4B CF  JMP $CF4B                       A:AA X:55       |       CF44  4C 4B CF  JMP $CF4B                       A:AA X:55
CF4B  EA        NOP                             A:AA X:55       |       CF4B  EA        NOP                             A:AA X:55
CF4C  24 01     BIT $01 = FF                    A:AA X:55       |       CF4C  24 01     BIT $01 = FF                    A:AA X:55
CF4E  38        SEC                             A:AA X:55       |       CF4E  38        SEC                             A:AA X:55
CF4F  A9 01     LDA #$01                        A:AA X:55       |       CF4F  A9 01     LDA #$01                        A:AA X:55
CF51  6A        ROR A                           A:01 X:55       |       CF51  6A        ROR A                           A:01 X:55
CF52  90 1E     BCC $CF72                       A:80 X:55       |       CF52  90 1E     BCC $CF72                       A:80 X:55
CF54  F0 1C     BEQ $CF72                       A:80 X:55       |       CF54  F0 1C     BEQ $CF72                       A:80 X:55
CF56  10 1A     BPL $CF72                       A:80 X:55       |       CF56  10 1A     BPL $CF72                       A:80 X:55
CF58  50 18     BVC $CF72                       A:80 X:55       |       CF58  50 18     BVC $CF72                       A:80 X:55
CF5A  C9 80     CMP #$80                        A:80 X:55       |       CF5A  C9 80     CMP #$80                        A:80 X:55
CF5C  D0 14     BNE $CF72                       A:80 X:55       |       CF5C  D0 14     BNE $CF72                       A:80 X:55
CF5E  B8        CLV                             A:80 X:55       |       CF5E  B8        CLV                             A:80 X:55
CF5F  18        CLC                             A:80 X:55       |       CF5F  18        CLC                             A:80 X:55
CF60  A9 55     LDA #$55                        A:80 X:55       |       CF60  A9 55     LDA #$55                        A:80 X:55
CF62  6A        ROR A                           A:55 X:55       |       CF62  6A        ROR A                           A:55 X:55
CF63  90 0D     BCC $CF72                       A:2A X:55       |       CF63  90 0D     BCC $CF72                       A:2A X:55
CF65  F0 0B     BEQ $CF72                       A:2A X:55       |       CF65  F0 0B     BEQ $CF72                       A:2A X:55
CF67  30 09     BMI $CF72                       A:2A X:55       |       CF67  30 09     BMI $CF72                       A:2A X:55
CF69  70 07     BVS $CF72                       A:2A X:55       |       CF69  70 07     BVS $CF72                       A:2A X:55
CF6B  C9 2A     CMP #$2A                        A:2A X:55       |       CF6B  C9 2A     CMP #$2A                        A:2A X:55
CF6D  D0 03     BNE $CF72                       A:2A X:55       |       CF6D  D0 03     BNE $CF72                       A:2A X:55
CF6F  4C 76 CF  JMP $CF76                       A:2A X:55       |       CF6F  4C 76 CF  JMP $CF76                       A:2A X:55
CF76  EA        NOP                             A:2A X:55       |       CF76  EA        NOP                             A:2A X:55
CF77  24 01     BIT $01 = FF                    A:2A X:55       |       CF77  24 01     BIT $01 = FF                    A:2A X:55
CF79  38        SEC                             A:2A X:55       |       CF79  38        SEC                             A:2A X:55
CF7A  A9 80     LDA #$80                        A:2A X:55       |       CF7A  A9 80     LDA #$80                        A:2A X:55
CF7C  2A        ROL A                           A:80 X:55       |       CF7C  2A        ROL A                           A:80 X:55
CF7D  90 1E     BCC $CF9D                       A:01 X:55       |       CF7D  90 1E     BCC $CF9D                       A:01 X:55
CF7F  F0 1C     BEQ $CF9D                       A:01 X:55       |       CF7F  F0 1C     BEQ $CF9D                       A:01 X:55
CF81  30 1A     BMI $CF9D                       A:01 X:55       |       CF81  30 1A     BMI $CF9D                       A:01 X:55
CF83  50 18     BVC $CF9D                       A:01 X:55       |       CF83  50 18     BVC $CF9D                       A:01 X:55
CF85  C9 01     CMP #$01                        A:01 X:55       |       CF85  C9 01     CMP #$01                        A:01 X:55
CF87  D0 14     BNE $CF9D                       A:01 X:55       |       CF87  D0 14     BNE $CF9D                       A:01 X:55
CF89  B8        CLV                             A:01 X:55       |       CF89  B8        CLV                             A:01 X:55
CF8A  18        CLC                             A:01 X:55       |       CF8A  18        CLC                             A:01 X:55
CF8B  A9 55     LDA #$55                        A:01 X:55       |       CF8B  A9 55     LDA #$55                        A:01 X:55
CF8D  2A        ROL A                           A:55 X:55       |       CF8D  2A        ROL A                           A:55 X:55
CF8E  B0 0D     BCS $CF9D                       A:AA X:55       |       CF8E  B0 0D     BCS $CF9D                       A:AA X:55
CF90  F0 0B     BEQ $CF9D                       A:AA X:55       |       CF90  F0 0B     BEQ $CF9D                       A:AA X:55
CF92  10 09     BPL $CF9D                       A:AA X:55       |       CF92  10 09     BPL $CF9D                       A:AA X:55
CF94  70 07     BVS $CF9D                       A:AA X:55       |       CF94  70 07     BVS $CF9D                       A:AA X:55
CF96  C9 AA     CMP #$AA                        A:AA X:55       |       CF96  C9 AA     CMP #$AA                        A:AA X:55
CF98  D0 03     BNE $CF9D                       A:AA X:55       |       CF98  D0 03     BNE $CF9D                       A:AA X:55
CF9A  4C A1 CF  JMP $CFA1                       A:AA X:55       |       CF9A  4C A1 CF  JMP $CFA1                       A:AA X:55
CFA1  60        RTS                             A:AA X:55       |       CFA1  60        RTS                             A:AA X:55
C60F  20 A2 CF  JSR $CFA2                       A:AA X:55       |       C60F  20 A2 CF  JSR $CFA2                       A:AA X:55
CFA2  A5 00     LDA $00 = 00                    A:AA X:55       |       CFA2  A5 00     LDA $00 = 00                    A:AA X:55
CFA4  8D FF 07  STA $07FF = FB                  A:00 X:55       |       CFA4  8D FF 07  STA $07FF = FB                  A:00 X:55
CFA7  A9 00     LDA #$00                        A:00 X:55       |       CFA7  A9 00     LDA #$00                        A:00 X:55
CFA9  85 80     STA $80 = 00                    A:00 X:55       |       CFA9  85 80     STA $80 = 00                    A:00 X:55
CFAB  A9 02     LDA #$02                        A:00 X:55       |       CFAB  A9 02     LDA #$02                        A:00 X:55
CFAD  85 81     STA $81 = 00                    A:02 X:55       |       CFAD  85 81     STA $81 = 00                    A:02 X:55
CFAF  A9 FF     LDA #$FF                        A:02 X:55       |       CFAF  A9 FF     LDA #$FF                        A:02 X:55
CFB1  85 01     STA $01 = FF                    A:FF X:55       |       CFB1  85 01     STA $01 = FF                    A:FF X:55
CFB3  A9 00     LDA #$00                        A:FF X:55       |       CFB3  A9 00     LDA #$00                        A:FF X:55
CFB5  85 82     STA $82 = 00                    A:00 X:55       |       CFB5  85 82     STA $82 = 00                    A:00 X:55
CFB7  A9 03     LDA #$03                        A:00 X:55       |       CFB7  A9 03     LDA #$03                        A:00 X:55
CFB9  85 83     STA $83 = 00                    A:03 X:55       |       CFB9  85 83     STA $83 = 00                    A:03 X:55
CFBB  85 84     STA $84 = 00                    A:03 X:55       |       CFBB  85 84     STA $84 = 00                    A:03 X:55
CFBD  A9 00     LDA #$00                        A:03 X:55       |       CFBD  A9 00     LDA #$00                        A:03 X:55
CFBF  85 FF     STA $FF = 00                    A:00 X:55       |       CFBF  85 FF     STA $FF = 00                    A:00 X:55
CFC1  A9 04     LDA #$04                        A:00 X:55       |       CFC1  A9 04     LDA #$04                        A:00 X:55
CFC3  85 00     STA $00 = 00                    A:04 X:55       |       CFC3  85 00     STA $00 = 00                    A:04 X:55
CFC5  A9 5A     LDA #$5A                        A:04 X:55       |       CFC5  A9 5A     LDA #$5A                        A:04 X:55
CFC7  8D 00 02  STA $0200 = 00                  A:5A X:55       |       CFC7  8D 00 02  STA $0200 = 00                  A:5A X:55
CFCA  A9 5B     LDA #$5B                        A:5A X:55       |       CFCA  A9 5B     LDA #$5B                        A:5A X:55
CFCC  8D 00 03  STA $0300 = 00                  A:5B X:55       |       CFCC  8D 00 03  STA $0300 = 00                  A:5B X:55
CFCF  A9 5C     LDA #$5C                        A:5B X:55       |       CFCF  A9 5C     LDA #$5C                        A:5B X:55
CFD1  8D 03 03  STA $0303 = 00                  A:5C X:55       |       CFD1  8D 03 03  STA $0303 = 00                  A:5C X:55
CFD4  A9 5D     LDA #$5D                        A:5C X:55       |       CFD4  A9 5D     LDA #$5D                        A:5C X:55
CFD6  8D 00 04  STA $0400 = 00                  A:5D X:55       |       CFD6  8D 00 04  STA $0400 = 00                  A:5D X:55
CFD9  A2 00     LDX #$00                        A:5D X:55       |       CFD9  A2 00     LDX #$00                        A:5D X:55
CFDB  A1 80     LDA ($80,X) @ 80 = 0200 = 5A    A:5D X:00       |       CFDB  A1 80     LDA ($80,X) @ 80 = 0200 = 5A    A:5D X:00
CFDD  C9 5A     CMP #$5A                        A:5A X:00       |       CFDD  C9 5A     CMP #$5A                        A:5A X:00
CFDF  D0 1F     BNE $D000                       A:5A X:00       |       CFDF  D0 1F     BNE $D000                       A:5A X:00
CFE1  E8        INX                             A:5A X:00       |       CFE1  E8        INX                             A:5A X:00
CFE2  E8        INX                             A:5A X:01       |       CFE2  E8        INX                             A:5A X:01
CFE3  A1 80     LDA ($80,X) @ 82 = 0300 = 5B    A:5A X:02       |       CFE3  A1 80     LDA ($80,X) @ 82 = 0300 = 5B    A:5A X:02
CFE5  C9 5B     CMP #$5B                        A:5B X:02       |       CFE5  C9 5B     CMP #$5B                        A:5B X:02
CFE7  D0 17     BNE $D000                       A:5B X:02       |       CFE7  D0 17     BNE $D000                       A:5B X:02
CFE9  E8        INX                             A:5B X:02       |       CFE9  E8        INX                             A:5B X:02
CFEA  A1 80     LDA ($80,X) @ 83 = 0303 = 5C    A:5B X:03       |       CFEA  A1 80     LDA ($80,X) @ 83 = 0303 = 5C    A:5B X:03
CFEC  C9 5C     CMP #$5C                        A:5C X:03       |       CFEC  C9 5C     CMP #$5C                        A:5C X:03
CFEE  D0 10     BNE $D000                       A:5C X:03       |       CFEE  D0 10     BNE $D000                       A:5C X:03
CFF0  A2 00     LDX #$00                        A:5C X:03       |       CFF0  A2 00     LDX #$00                        A:5C X:03
CFF2  A1 FF     LDA ($FF,X) @ FF = 0400 = 5D    A:5C X:00       |       CFF2  A1 FF     LDA ($FF,X) @ FF = 0400 = 5D    A:5C X:00
CFF4  C9 5D     CMP #$5D                        A:5D X:00       |       CFF4  C9 5D     CMP #$5D                        A:5D X:00
CFF6  D0 08     BNE $D000                       A:5D X:00       |       CFF6  D0 08     BNE $D000                       A:5D X:00
CFF8  A2 81     LDX #$81                        A:5D X:00       |       CFF8  A2 81     LDX #$81                        A:5D X:00
CFFA  A1 FF     LDA ($FF,X) @ 80 = 0200 = 5A    A:5D X:81       |       CFFA  A1 FF     LDA ($FF,X) @ 80 = 0200 = 5A    A:5D X:81
CFFC  C9 5A     CMP #$5A                        A:5A X:81       |       CFFC  C9 5A     CMP #$5A                        A:5A X:81
CFFE  F0 05     BEQ $D005                       A:5A X:81       |       CFFE  F0 05     BEQ $D005                       A:5A X:81
D005  A9 AA     LDA #$AA                        A:5A X:81       |       D005  A9 AA     LDA #$AA                        A:5A X:81
D007  A2 00     LDX #$00                        A:AA X:81       |       D007  A2 00     LDX #$00                        A:AA X:81
D009  81 80     STA ($80,X) @ 80 = 0200 = 5A    A:AA X:00       |       D009  81 80     STA ($80,X) @ 80 = 0200 = 5A    A:AA X:00
D00B  E8        INX                             A:AA X:00       |       D00B  E8        INX                             A:AA X:00
D00C  E8        INX                             A:AA X:01       |       D00C  E8        INX                             A:AA X:01
D00D  A9 AB     LDA #$AB                        A:AA X:02       |       D00D  A9 AB     LDA #$AB                        A:AA X:02
D00F  81 80     STA ($80,X) @ 82 = 0300 = 5B    A:AB X:02       |       D00F  81 80     STA ($80,X) @ 82 = 0300 = 5B    A:AB X:02
D011  E8        INX                             A:AB X:02       |       D011  E8        INX                             A:AB X:02
D012  A9 AC     LDA #$AC                        A:AB X:03       |       D012  A9 AC     LDA #$AC                        A:AB X:03
D014  81 80     STA ($80,X) @ 83 = 0303 = 5C    A:AC X:03       |       D014  81 80     STA ($80,X) @ 83 = 0303 = 5C    A:AC X:03
D016  A2 00     LDX #$00                        A:AC X:03       |       D016  A2 00     LDX #$00                        A:AC X:03
D018  A9 AD     LDA #$AD                        A:AC X:00       |       D018  A9 AD     LDA #$AD                        A:AC X:00
D01A  81 FF     STA ($FF,X) @ FF = 0400 = 5D    A:AD X:00       |       D01A  81 FF     STA ($FF,X) @ FF = 0400 = 5D    A:AD X:00
D01C  AD 00 02  LDA $0200 = AA                  A:AD X:00       |       D01C  AD 00 02  LDA $0200 = AA                  A:AD X:00
D01F  C9 AA     CMP #$AA                        A:AA X:00       |       D01F  C9 AA     CMP #$AA                        A:AA X:00
D021  D0 15     BNE $D038                       A:AA X:00       |       D021  D0 15     BNE $D038                       A:AA X:00
D023  AD 00 03  LDA $0300 = AB                  A:AA X:00       |       D023  AD 00 03  LDA $0300 = AB                  A:AA X:00
D026  C9 AB     CMP #$AB                        A:AB X:00       |       D026  C9 AB     CMP #$AB                        A:AB X:00
D028  D0 0E     BNE $D038                       A:AB X:00       |       D028  D0 0E     BNE $D038                       A:AB X:00
D02A  AD 03 03  LDA $0303 = AC                  A:AB X:00       |       D02A  AD 03 03  LDA $0303 = AC                  A:AB X:00
D02D  C9 AC     CMP #$AC                        A:AC X:00       |       D02D  C9 AC     CMP #$AC                        A:AC X:00
D02F  D0 07     BNE $D038                       A:AC X:00       |       D02F  D0 07     BNE $D038                       A:AC X:00
D031  AD 00 04  LDA $0400 = AD                  A:AC X:00       |       D031  AD 00 04  LDA $0400 = AD                  A:AC X:00
D034  C9 AD     CMP #$AD                        A:AD X:00       |       D034  C9 AD     CMP #$AD                        A:AD X:00
D036  F0 05     BEQ $D03D                       A:AD X:00       |       D036  F0 05     BEQ $D03D                       A:AD X:00
D03D  AD FF 07  LDA $07FF = 00                  A:AD X:00       |       D03D  AD FF 07  LDA $07FF = 00                  A:AD X:00
D040  85 00     STA $00 = 04                    A:00 X:00       |       D040  85 00     STA $00 = 04                    A:00 X:00
D042  A9 00     LDA #$00                        A:00 X:00       |       D042  A9 00     LDA #$00                        A:00 X:00
D044  8D 00 03  STA $0300 = AB                  A:00 X:00       |       D044  8D 00 03  STA $0300 = AB                  A:00 X:00
D047  A9 AA     LDA #$AA                        A:00 X:00       |       D047  A9 AA     LDA #$AA                        A:00 X:00
D049  8D 00 02  STA $0200 = AA                  A:AA X:00       |       D049  8D 00 02  STA $0200 = AA                  A:AA X:00
D04C  A2 00     LDX #$00                        A:AA X:00       |       D04C  A2 00     LDX #$00                        A:AA X:00
D04E  A0 5A     LDY #$5A                        A:AA X:00       |       D04E  A0 5A     LDY #$5A                        A:AA X:00
D050  20 B6 F7  JSR $F7B6                       A:AA X:00       |       D050  20 B6 F7  JSR $F7B6                       A:AA X:00
F7B6  18        CLC                             A:AA X:00       |       F7B6  18        CLC                             A:AA X:00
F7B7  A9 FF     LDA #$FF                        A:AA X:00       |       F7B7  A9 FF     LDA #$FF                        A:AA X:00
F7B9  85 01     STA $01 = FF                    A:FF X:00       |       F7B9  85 01     STA $01 = FF                    A:FF X:00
F7BB  24 01     BIT $01 = FF                    A:FF X:00       |       F7BB  24 01     BIT $01 = FF                    A:FF X:00
F7BD  A9 55     LDA #$55                        A:FF X:00       |       F7BD  A9 55     LDA #$55                        A:FF X:00
F7BF  60        RTS                             A:55 X:00       |       F7BF  60        RTS                             A:55 X:00
D053  01 80     ORA ($80,X) @ 80 = 0200 = AA    A:55 X:00       |       D053  01 80     ORA ($80,X) @ 80 = 0200 = AA    A:55 X:00
D055  20 C0 F7  JSR $F7C0                       A:FF X:00       |       D055  20 C0 F7  JSR $F7C0                       A:FF X:00
F7C0  B0 09     BCS $F7CB                       A:FF X:00       |       F7C0  B0 09     BCS $F7CB                       A:FF X:00
F7C2  10 07     BPL $F7CB                       A:FF X:00       |       F7C2  10 07     BPL $F7CB                       A:FF X:00
F7C4  C9 FF     CMP #$FF                        A:FF X:00       |       F7C4  C9 FF     CMP #$FF                        A:FF X:00
F7C6  D0 03     BNE $F7CB                       A:FF X:00       |       F7C6  D0 03     BNE $F7CB                       A:FF X:00
F7C8  50 01     BVC $F7CB                       A:FF X:00       |       F7C8  50 01     BVC $F7CB                       A:FF X:00
F7CA  60        RTS                             A:FF X:00       |       F7CA  60        RTS                             A:FF X:00
D058  C8        INY                             A:FF X:00       |       D058  C8        INY                             A:FF X:00
D059  20 CE F7  JSR $F7CE                       A:FF X:00       |       D059  20 CE F7  JSR $F7CE                       A:FF X:00
F7CE  38        SEC                             A:FF X:00       |       F7CE  38        SEC                             A:FF X:00
F7CF  B8        CLV                             A:FF X:00       |       F7CF  B8        CLV                             A:FF X:00
F7D0  A9 00     LDA #$00                        A:FF X:00       |       F7D0  A9 00     LDA #$00                        A:FF X:00
F7D2  60        RTS                             A:00 X:00       |       F7D2  60        RTS                             A:00 X:00
D05C  01 82     ORA ($82,X) @ 82 = 0300 = 00    A:00 X:00       |       D05C  01 82     ORA ($82,X) @ 82 = 0300 = 00    A:00 X:00
D05E  20 D3 F7  JSR $F7D3                       A:00 X:00       |       D05E  20 D3 F7  JSR $F7D3                       A:00 X:00
F7D3  D0 07     BNE $F7DC                       A:00 X:00       |       F7D3  D0 07     BNE $F7DC                       A:00 X:00
F7D5  70 05     BVS $F7DC                       A:00 X:00       |       F7D5  70 05     BVS $F7DC                       A:00 X:00
F7D7  90 03     BCC $F7DC                       A:00 X:00       |       F7D7  90 03     BCC $F7DC                       A:00 X:00
F7D9  30 01     BMI $F7DC                       A:00 X:00       |       F7D9  30 01     BMI $F7DC                       A:00 X:00
F7DB  60        RTS                             A:00 X:00       |       F7DB  60        RTS                             A:00 X:00
D061  C8        INY                             A:00 X:00       |       D061  C8        INY                             A:00 X:00
D062  20 DF F7  JSR $F7DF                       A:00 X:00       |       D062  20 DF F7  JSR $F7DF                       A:00 X:00
F7DF  18        CLC                             A:00 X:00       |       F7DF  18        CLC                             A:00 X:00
F7E0  24 01     BIT $01 = FF                    A:00 X:00       |       F7E0  24 01     BIT $01 = FF                    A:00 X:00
F7E2  A9 55     LDA #$55                        A:00 X:00       |       F7E2  A9 55     LDA #$55                        A:00 X:00
F7E4  60        RTS                             A:55 X:00       |       F7E4  60        RTS                             A:55 X:00
D065  21 80     AND ($80,X) @ 80 = 0200 = AA    A:55 X:00       |       D065  21 80     AND ($80,X) @ 80 = 0200 = AA    A:55 X:00
D067  20 E5 F7  JSR $F7E5                       A:00 X:00       |       D067  20 E5 F7  JSR $F7E5                       A:00 X:00
F7E5  D0 07     BNE $F7EE                       A:00 X:00       |       F7E5  D0 07     BNE $F7EE                       A:00 X:00
F7E7  50 05     BVC $F7EE                       A:00 X:00       |       F7E7  50 05     BVC $F7EE                       A:00 X:00
F7E9  B0 03     BCS $F7EE                       A:00 X:00       |       F7E9  B0 03     BCS $F7EE                       A:00 X:00
F7EB  30 01     BMI $F7EE                       A:00 X:00       |       F7EB  30 01     BMI $F7EE                       A:00 X:00
F7ED  60        RTS                             A:00 X:00       |       F7ED  60        RTS                             A:00 X:00
D06A  C8        INY                             A:00 X:00       |       D06A  C8        INY                             A:00 X:00
D06B  A9 EF     LDA #$EF                        A:00 X:00       |       D06B  A9 EF     LDA #$EF                        A:00 X:00
D06D  8D 00 03  STA $0300 = 00                  A:EF X:00       |       D06D  8D 00 03  STA $0300 = 00                  A:EF X:00
D070  20 F1 F7  JSR $F7F1                       A:EF X:00       |       D070  20 F1 F7  JSR $F7F1                       A:EF X:00
F7F1  38        SEC                             A:EF X:00       |       F7F1  38        SEC                             A:EF X:00
F7F2  B8        CLV                             A:EF X:00       |       F7F2  B8        CLV                             A:EF X:00
F7F3  A9 F8     LDA #$F8                        A:EF X:00       |       F7F3  A9 F8     LDA #$F8                        A:EF X:00
F7F5  60        RTS                             A:F8 X:00       |       F7F5  60        RTS                             A:F8 X:00
D073  21 82     AND ($82,X) @ 82 = 0300 = EF    A:F8 X:00       |       D073  21 82     AND ($82,X) @ 82 = 0300 = EF    A:F8 X:00
D075  20 F6 F7  JSR $F7F6                       A:E8 X:00       |       D075  20 F6 F7  JSR $F7F6                       A:E8 X:00
F7F6  90 09     BCC $F801                       A:E8 X:00       |       F7F6  90 09     BCC $F801                       A:E8 X:00
F7F8  10 07     BPL $F801                       A:E8 X:00       |       F7F8  10 07     BPL $F801                       A:E8 X:00
F7FA  C9 E8     CMP #$E8                        A:E8 X:00       |       F7FA  C9 E8     CMP #$E8                        A:E8 X:00
F7FC  D0 03     BNE $F801                       A:E8 X:00       |       F7FC  D0 03     BNE $F801                       A:E8 X:00
F7FE  70 01     BVS $F801                       A:E8 X:00       |       F7FE  70 01     BVS $F801                       A:E8 X:00
F800  60        RTS                             A:E8 X:00       |       F800  60        RTS                             A:E8 X:00
D078  C8        INY                             A:E8 X:00       |       D078  C8        INY                             A:E8 X:00
D079  20 04 F8  JSR $F804                       A:E8 X:00       |       D079  20 04 F8  JSR $F804                       A:E8 X:00
F804  18        CLC                             A:E8 X:00       |       F804  18        CLC                             A:E8 X:00
F805  24 01     BIT $01 = FF                    A:E8 X:00       |       F805  24 01     BIT $01 = FF                    A:E8 X:00
F807  A9 5F     LDA #$5F                        A:E8 X:00       |       F807  A9 5F     LDA #$5F                        A:E8 X:00
F809  60        RTS                             A:5F X:00       |       F809  60        RTS                             A:5F X:00
D07C  41 80     EOR ($80,X) @ 80 = 0200 = AA    A:5F X:00       |       D07C  41 80     EOR ($80,X) @ 80 = 0200 = AA    A:5F X:00
D07E  20 0A F8  JSR $F80A                       A:F5 X:00       |       D07E  20 0A F8  JSR $F80A                       A:F5 X:00
F80A  B0 09     BCS $F815                       A:F5 X:00       |       F80A  B0 09     BCS $F815                       A:F5 X:00
F80C  10 07     BPL $F815                       A:F5 X:00       |       F80C  10 07     BPL $F815                       A:F5 X:00
F80E  C9 F5     CMP #$F5                        A:F5 X:00       |       F80E  C9 F5     CMP #$F5                        A:F5 X:00
F810  D0 03     BNE $F815                       A:F5 X:00       |       F810  D0 03     BNE $F815                       A:F5 X:00
F812  50 01     BVC $F815                       A:F5 X:00       |       F812  50 01     BVC $F815                       A:F5 X:00
F814  60        RTS                             A:F5 X:00       |       F814  60        RTS                             A:F5 X:00
D081  C8        INY                             A:F5 X:00       |       D081  C8        INY                             A:F5 X:00
D082  A9 70     LDA #$70                        A:F5 X:00       |       D082  A9 70     LDA #$70                        A:F5 X:00
D084  8D 00 03  STA $0300 = EF                  A:70 X:00       |       D084  8D 00 03  STA $0300 = EF                  A:70 X:00
D087  20 18 F8  JSR $F818                       A:70 X:00       |       D087  20 18 F8  JSR $F818                       A:70 X:00
F818  38        SEC                             A:70 X:00       |       F818  38        SEC                             A:70 X:00
F819  B8        CLV                             A:70 X:00       |       F819  B8        CLV                             A:70 X:00
F81A  A9 70     LDA #$70                        A:70 X:00       |       F81A  A9 70     LDA #$70                        A:70 X:00
F81C  60        RTS                             A:70 X:00       |       F81C  60        RTS                             A:70 X:00
D08A  41 82     EOR ($82,X) @ 82 = 0300 = 70    A:70 X:00       |       D08A  41 82     EOR ($82,X) @ 82 = 0300 = 70    A:70 X:00
D08C  20 1D F8  JSR $F81D                       A:00 X:00       |       D08C  20 1D F8  JSR $F81D                       A:00 X:00
F81D  D0 07     BNE $F826                       A:00 X:00       |       F81D  D0 07     BNE $F826                       A:00 X:00
F81F  70 05     BVS $F826                       A:00 X:00       |       F81F  70 05     BVS $F826                       A:00 X:00
F821  90 03     BCC $F826                       A:00 X:00       |       F821  90 03     BCC $F826                       A:00 X:00
F823  30 01     BMI $F826                       A:00 X:00       |       F823  30 01     BMI $F826                       A:00 X:00
F825  60        RTS                             A:00 X:00       |       F825  60        RTS                             A:00 X:00
D08F  C8        INY                             A:00 X:00       |       D08F  C8        INY                             A:00 X:00
D090  A9 69     LDA #$69                        A:00 X:00       |       D090  A9 69     LDA #$69                        A:00 X:00
D092  8D 00 02  STA $0200 = AA                  A:69 X:00       |       D092  8D 00 02  STA $0200 = AA                  A:69 X:00
D095  20 29 F8  JSR $F829                       A:69 X:00       |       D095  20 29 F8  JSR $F829                       A:69 X:00
F829  18        CLC                             A:69 X:00       |       F829  18        CLC                             A:69 X:00
F82A  24 01     BIT $01 = FF                    A:69 X:00       |       F82A  24 01     BIT $01 = FF                    A:69 X:00
F82C  A9 00     LDA #$00                        A:69 X:00       |       F82C  A9 00     LDA #$00                        A:69 X:00
F82E  60        RTS                             A:00 X:00       |       F82E  60        RTS                             A:00 X:00
D098  61 80     ADC ($80,X) @ 80 = 0200 = 69    A:00 X:00       |       D098  61 80     ADC ($80,X) @ 80 = 0200 = 69    A:00 X:00
D09A  20 2F F8  JSR $F82F                       A:69 X:00       |       D09A  20 2F F8  JSR $F82F                       A:69 X:00
F82F  30 09     BMI $F83A                       A:69 X:00       |       F82F  30 09     BMI $F83A                       A:69 X:00
F831  B0 07     BCS $F83A                       A:69 X:00       |       F831  B0 07     BCS $F83A                       A:69 X:00
F833  C9 69     CMP #$69                        A:69 X:00       |       F833  C9 69     CMP #$69                        A:69 X:00
F835  D0 03     BNE $F83A                       A:69 X:00       |       F835  D0 03     BNE $F83A                       A:69 X:00
F837  70 01     BVS $F83A                       A:69 X:00       |       F837  70 01     BVS $F83A                       A:69 X:00
F839  60        RTS                             A:69 X:00       |       F839  60        RTS                             A:69 X:00
D09D  C8        INY                             A:69 X:00       |       D09D  C8        INY                             A:69 X:00
D09E  20 3D F8  JSR $F83D                       A:69 X:00       |       D09E  20 3D F8  JSR $F83D                       A:69 X:00
F83D  38        SEC                             A:69 X:00       |       F83D  38        SEC                             A:69 X:00
F83E  24 01     BIT $01 = FF                    A:69 X:00       |       F83E  24 01     BIT $01 = FF                    A:69 X:00
F840  A9 00     LDA #$00                        A:69 X:00       |       F840  A9 00     LDA #$00                        A:69 X:00
F842  60        RTS                             A:00 X:00       |       F842  60        RTS                             A:00 X:00
D0A1  61 80     ADC ($80,X) @ 80 = 0200 = 69    A:00 X:00       |       D0A1  61 80     ADC ($80,X) @ 80 = 0200 = 69    A:00 X:00
D0A3  20 43 F8  JSR $F843                       A:6A X:00       |       D0A3  20 43 F8  JSR $F843                       A:6A X:00
F843  30 09     BMI $F84E                       A:6A X:00       |       F843  30 09     BMI $F84E                       A:6A X:00
F845  B0 07     BCS $F84E                       A:6A X:00       |       F845  B0 07     BCS $F84E                       A:6A X:00
F847  C9 6A     CMP #$6A                        A:6A X:00       |       F847  C9 6A     CMP #$6A                        A:6A X:00
F849  D0 03     BNE $F84E                       A:6A X:00       |       F849  D0 03     BNE $F84E                       A:6A X:00
F84B  70 01     BVS $F84E                       A:6A X:00       |       F84B  70 01     BVS $F84E                       A:6A X:00
F84D  60        RTS                             A:6A X:00       |       F84D  60        RTS                             A:6A X:00
D0A6  C8        INY                             A:6A X:00       |       D0A6  C8        INY                             A:6A X:00
D0A7  A9 7F     LDA #$7F                        A:6A X:00       |       D0A7  A9 7F     LDA #$7F                        A:6A X:00
D0A9  8D 00 02  STA $0200 = 69                  A:7F X:00       |       D0A9  8D 00 02  STA $0200 = 69                  A:7F X:00
D0AC  20 51 F8  JSR $F851                       A:7F X:00       |       D0AC  20 51 F8  JSR $F851                       A:7F X:00
F851  38        SEC                             A:7F X:00       |       F851  38        SEC                             A:7F X:00
F852  B8        CLV                             A:7F X:00       |       F852  B8        CLV                             A:7F X:00
F853  A9 7F     LDA #$7F                        A:7F X:00       |       F853  A9 7F     LDA #$7F                        A:7F X:00
F855  60        RTS                             A:7F X:00       |       F855  60        RTS                             A:7F X:00
D0AF  61 80     ADC ($80,X) @ 80 = 0200 = 7F    A:7F X:00       |       D0AF  61 80     ADC ($80,X) @ 80 = 0200 = 7F    A:7F X:00
D0B1  20 56 F8  JSR $F856                       A:FF X:00       |       D0B1  20 56 F8  JSR $F856                       A:FF X:00
F856  10 09     BPL $F861                       A:FF X:00       |       F856  10 09     BPL $F861                       A:FF X:00
F858  B0 07     BCS $F861                       A:FF X:00       |       F858  B0 07     BCS $F861                       A:FF X:00
F85A  C9 FF     CMP #$FF                        A:FF X:00       |       F85A  C9 FF     CMP #$FF                        A:FF X:00
F85C  D0 03     BNE $F861                       A:FF X:00       |       F85C  D0 03     BNE $F861                       A:FF X:00
F85E  50 01     BVC $F861                       A:FF X:00       |       F85E  50 01     BVC $F861                       A:FF X:00
F860  60        RTS                             A:FF X:00       |       F860  60        RTS                             A:FF X:00
D0B4  C8        INY                             A:FF X:00       |       D0B4  C8        INY                             A:FF X:00
D0B5  A9 80     LDA #$80                        A:FF X:00       |       D0B5  A9 80     LDA #$80                        A:FF X:00
D0B7  8D 00 02  STA $0200 = 7F                  A:80 X:00       |       D0B7  8D 00 02  STA $0200 = 7F                  A:80 X:00
D0BA  20 64 F8  JSR $F864                       A:80 X:00       |       D0BA  20 64 F8  JSR $F864                       A:80 X:00
F864  18        CLC                             A:80 X:00       |       F864  18        CLC                             A:80 X:00
F865  24 01     BIT $01 = FF                    A:80 X:00       |       F865  24 01     BIT $01 = FF                    A:80 X:00
F867  A9 7F     LDA #$7F                        A:80 X:00       |       F867  A9 7F     LDA #$7F                        A:80 X:00
F869  60        RTS                             A:7F X:00       |       F869  60        RTS                             A:7F X:00
D0BD  61 80     ADC ($80,X) @ 80 = 0200 = 80    A:7F X:00       |       D0BD  61 80     ADC ($80,X) @ 80 = 0200 = 80    A:7F X:00
D0BF  20 6A F8  JSR $F86A                       A:FF X:00       |       D0BF  20 6A F8  JSR $F86A                       A:FF X:00
F86A  10 09     BPL $F875                       A:FF X:00       |       F86A  10 09     BPL $F875                       A:FF X:00
F86C  B0 07     BCS $F875                       A:FF X:00       |       F86C  B0 07     BCS $F875                       A:FF X:00
F86E  C9 FF     CMP #$FF                        A:FF X:00       |       F86E  C9 FF     CMP #$FF                        A:FF X:00
F870  D0 03     BNE $F875                       A:FF X:00       |       F870  D0 03     BNE $F875                       A:FF X:00
F872  70 01     BVS $F875                       A:FF X:00       |       F872  70 01     BVS $F875                       A:FF X:00
F874  60        RTS                             A:FF X:00       |       F874  60        RTS                             A:FF X:00
D0C2  C8        INY                             A:FF X:00       |       D0C2  C8        INY                             A:FF X:00
D0C3  20 78 F8  JSR $F878                       A:FF X:00       |       D0C3  20 78 F8  JSR $F878                       A:FF X:00
F878  38        SEC                             A:FF X:00       |       F878  38        SEC                             A:FF X:00
F879  B8        CLV                             A:FF X:00       |       F879  B8        CLV                             A:FF X:00
F87A  A9 7F     LDA #$7F                        A:FF X:00       |       F87A  A9 7F     LDA #$7F                        A:FF X:00
F87C  60        RTS                             A:7F X:00       |       F87C  60        RTS                             A:7F X:00
D0C6  61 80     ADC ($80,X) @ 80 = 0200 = 80    A:7F X:00       |       D0C6  61 80     ADC ($80,X) @ 80 = 0200 = 80    A:7F X:00
D0C8  20 7D F8  JSR $F87D                       A:00 X:00       |       D0C8  20 7D F8  JSR $F87D                       A:00 X:00
F87D  D0 07     BNE $F886                       A:00 X:00       |       F87D  D0 07     BNE $F886                       A:00 X:00
F87F  30 05     BMI $F886                       A:00 X:00       |       F87F  30 05     BMI $F886                       A:00 X:00
F881  70 03     BVS $F886                       A:00 X:00       |       F881  70 03     BVS $F886                       A:00 X:00
F883  90 01     BCC $F886                       A:00 X:00       |       F883  90 01     BCC $F886                       A:00 X:00
F885  60        RTS                             A:00 X:00       |       F885  60        RTS                             A:00 X:00
D0CB  C8        INY                             A:00 X:00       |       D0CB  C8        INY                             A:00 X:00
D0CC  A9 40     LDA #$40                        A:00 X:00       |       D0CC  A9 40     LDA #$40                        A:00 X:00
D0CE  8D 00 02  STA $0200 = 80                  A:40 X:00       |       D0CE  8D 00 02  STA $0200 = 80                  A:40 X:00
D0D1  20 89 F8  JSR $F889                       A:40 X:00       |       D0D1  20 89 F8  JSR $F889                       A:40 X:00
F889  24 01     BIT $01 = FF                    A:40 X:00       |       F889  24 01     BIT $01 = FF                    A:40 X:00
F88B  A9 40     LDA #$40                        A:40 X:00       |       F88B  A9 40     LDA #$40                        A:40 X:00
F88D  60        RTS                             A:40 X:00       |       F88D  60        RTS                             A:40 X:00
D0D4  C1 80     CMP ($80,X) @ 80 = 0200 = 40    A:40 X:00       |       D0D4  C1 80     CMP ($80,X) @ 80 = 0200 = 40    A:40 X:00
D0D6  20 8E F8  JSR $F88E                       A:40 X:00       |       D0D6  20 8E F8  JSR $F88E                       A:40 X:00
F88E  30 07     BMI $F897                       A:40 X:00       |       F88E  30 07     BMI $F897                       A:40 X:00
F890  90 05     BCC $F897                       A:40 X:00       |       F890  90 05     BCC $F897                       A:40 X:00
F892  D0 03     BNE $F897                       A:40 X:00       |       F892  D0 03     BNE $F897                       A:40 X:00
F894  50 01     BVC $F897                       A:40 X:00       |       F894  50 01     BVC $F897                       A:40 X:00
F896  60        RTS                             A:40 X:00       |       F896  60        RTS                             A:40 X:00
D0D9  C8        INY                             A:40 X:00       |       D0D9  C8        INY                             A:40 X:00
D0DA  48        PHA                             A:40 X:00       |       D0DA  48        PHA                             A:40 X:00
D0DB  A9 3F     LDA #$3F                        A:40 X:00       |       D0DB  A9 3F     LDA #$3F                        A:40 X:00
D0DD  8D 00 02  STA $0200 = 40                  A:3F X:00       |       D0DD  8D 00 02  STA $0200 = 40                  A:3F X:00
D0E0  68        PLA                             A:3F X:00       |       D0E0  68        PLA                             A:3F X:00
D0E1  20 9A F8  JSR $F89A                       A:40 X:00       |       D0E1  20 9A F8  JSR $F89A                       A:40 X:00
F89A  B8        CLV                             A:40 X:00       |       F89A  B8        CLV                             A:40 X:00
F89B  60        RTS                             A:40 X:00       |       F89B  60        RTS                             A:40 X:00
D0E4  C1 80     CMP ($80,X) @ 80 = 0200 = 3F    A:40 X:00       |       D0E4  C1 80     CMP ($80,X) @ 80 = 0200 = 3F    A:40 X:00
D0E6  20 9C F8  JSR $F89C                       A:40 X:00       |       D0E6  20 9C F8  JSR $F89C                       A:40 X:00
F89C  F0 07     BEQ $F8A5                       A:40 X:00       |       F89C  F0 07     BEQ $F8A5                       A:40 X:00
F89E  30 05     BMI $F8A5                       A:40 X:00       |       F89E  30 05     BMI $F8A5                       A:40 X:00
F8A0  90 03     BCC $F8A5                       A:40 X:00       |       F8A0  90 03     BCC $F8A5                       A:40 X:00
F8A2  70 01     BVS $F8A5                       A:40 X:00       |       F8A2  70 01     BVS $F8A5                       A:40 X:00
F8A4  60        RTS                             A:40 X:00       |       F8A4  60        RTS                             A:40 X:00
D0E9  C8        INY                             A:40 X:00       |       D0E9  C8        INY                             A:40 X:00
D0EA  48        PHA                             A:40 X:00       |       D0EA  48        PHA                             A:40 X:00
D0EB  A9 41     LDA #$41                        A:40 X:00       |       D0EB  A9 41     LDA #$41                        A:40 X:00
D0ED  8D 00 02  STA $0200 = 3F                  A:41 X:00       |       D0ED  8D 00 02  STA $0200 = 3F                  A:41 X:00
D0F0  68        PLA                             A:41 X:00       |       D0F0  68        PLA                             A:41 X:00
D0F1  C1 80     CMP ($80,X) @ 80 = 0200 = 41    A:40 X:00       |       D0F1  C1 80     CMP ($80,X) @ 80 = 0200 = 41    A:40 X:00
D0F3  20 A8 F8  JSR $F8A8                       A:40 X:00       |       D0F3  20 A8 F8  JSR $F8A8                       A:40 X:00
F8A8  F0 05     BEQ $F8AF                       A:40 X:00       |       F8A8  F0 05     BEQ $F8AF                       A:40 X:00
F8AA  10 03     BPL $F8AF                       A:40 X:00       |       F8AA  10 03     BPL $F8AF                       A:40 X:00
F8AC  10 01     BPL $F8AF                       A:40 X:00       |       F8AC  10 01     BPL $F8AF                       A:40 X:00
F8AE  60        RTS                             A:40 X:00       |       F8AE  60        RTS                             A:40 X:00
D0F6  C8        INY                             A:40 X:00       |       D0F6  C8        INY                             A:40 X:00
D0F7  48        PHA                             A:40 X:00       |       D0F7  48        PHA                             A:40 X:00
D0F8  A9 00     LDA #$00                        A:40 X:00       |       D0F8  A9 00     LDA #$00                        A:40 X:00
D0FA  8D 00 02  STA $0200 = 41                  A:00 X:00       |       D0FA  8D 00 02  STA $0200 = 41                  A:00 X:00
D0FD  68        PLA                             A:00 X:00       |       D0FD  68        PLA                             A:00 X:00
D0FE  20 B2 F8  JSR $F8B2                       A:40 X:00       |       D0FE  20 B2 F8  JSR $F8B2                       A:40 X:00
F8B2  A9 80     LDA #$80                        A:40 X:00       |       F8B2  A9 80     LDA #$80                        A:40 X:00
F8B4  60        RTS                             A:80 X:00       |       F8B4  60        RTS                             A:80 X:00
D101  C1 80     CMP ($80,X) @ 80 = 0200 = 00    A:80 X:00       |       D101  C1 80     CMP ($80,X) @ 80 = 0200 = 00    A:80 X:00
D103  20 B5 F8  JSR $F8B5                       A:80 X:00       |       D103  20 B5 F8  JSR $F8B5                       A:80 X:00
F8B5  F0 05     BEQ $F8BC                       A:80 X:00       |       F8B5  F0 05     BEQ $F8BC                       A:80 X:00
F8B7  10 03     BPL $F8BC                       A:80 X:00       |       F8B7  10 03     BPL $F8BC                       A:80 X:00
F8B9  90 01     BCC $F8BC                       A:80 X:00       |       F8B9  90 01     BCC $F8BC                       A:80 X:00
F8BB  60        RTS                             A:80 X:00       |       F8BB  60        RTS                             A:80 X:00
D106  C8        INY                             A:80 X:00       |       D106  C8        INY                             A:80 X:00
D107  48        PHA                             A:80 X:00       |       D107  48        PHA                             A:80 X:00
D108  A9 80     LDA #$80                        A:80 X:00       |       D108  A9 80     LDA #$80                        A:80 X:00
D10A  8D 00 02  STA $0200 = 00                  A:80 X:00       |       D10A  8D 00 02  STA $0200 = 00                  A:80 X:00
D10D  68        PLA                             A:80 X:00       |       D10D  68        PLA                             A:80 X:00
D10E  C1 80     CMP ($80,X) @ 80 = 0200 = 80    A:80 X:00       |       D10E  C1 80     CMP ($80,X) @ 80 = 0200 = 80    A:80 X:00
D110  20 BF F8  JSR $F8BF                       A:80 X:00       |       D110  20 BF F8  JSR $F8BF                       A:80 X:00
F8BF  D0 05     BNE $F8C6                       A:80 X:00       |       F8BF  D0 05     BNE $F8C6                       A:80 X:00
F8C1  30 03     BMI $F8C6                       A:80 X:00       |       F8C1  30 03     BMI $F8C6                       A:80 X:00
F8C3  90 01     BCC $F8C6                       A:80 X:00       |       F8C3  90 01     BCC $F8C6                       A:80 X:00
F8C5  60        RTS                             A:80 X:00       |       F8C5  60        RTS                             A:80 X:00
D113  C8        INY                             A:80 X:00       |       D113  C8        INY                             A:80 X:00
D114  48        PHA                             A:80 X:00       |       D114  48        PHA                             A:80 X:00
D115  A9 81     LDA #$81                        A:80 X:00       |       D115  A9 81     LDA #$81                        A:80 X:00
D117  8D 00 02  STA $0200 = 80                  A:81 X:00       |       D117  8D 00 02  STA $0200 = 80                  A:81 X:00
D11A  68        PLA                             A:81 X:00       |       D11A  68        PLA                             A:81 X:00
D11B  C1 80     CMP ($80,X) @ 80 = 0200 = 81    A:80 X:00       |       D11B  C1 80     CMP ($80,X) @ 80 = 0200 = 81    A:80 X:00
D11D  20 C9 F8  JSR $F8C9                       A:80 X:00       |       D11D  20 C9 F8  JSR $F8C9                       A:80 X:00
F8C9  B0 05     BCS $F8D0                       A:80 X:00       |       F8C9  B0 05     BCS $F8D0                       A:80 X:00
F8CB  F0 03     BEQ $F8D0                       A:80 X:00       |       F8CB  F0 03     BEQ $F8D0                       A:80 X:00
F8CD  10 01     BPL $F8D0                       A:80 X:00       |       F8CD  10 01     BPL $F8D0                       A:80 X:00
F8CF  60        RTS                             A:80 X:00       |       F8CF  60        RTS                             A:80 X:00
D120  C8        INY                             A:80 X:00       |       D120  C8        INY                             A:80 X:00
D121  48        PHA                             A:80 X:00       |       D121  48        PHA                             A:80 X:00
D122  A9 7F     LDA #$7F                        A:80 X:00       |       D122  A9 7F     LDA #$7F                        A:80 X:00
D124  8D 00 02  STA $0200 = 81                  A:7F X:00       |       D124  8D 00 02  STA $0200 = 81                  A:7F X:00
D127  68        PLA                             A:7F X:00       |       D127  68        PLA                             A:7F X:00
D128  C1 80     CMP ($80,X) @ 80 = 0200 = 7F    A:80 X:00       |       D128  C1 80     CMP ($80,X) @ 80 = 0200 = 7F    A:80 X:00
D12A  20 D3 F8  JSR $F8D3                       A:80 X:00       |       D12A  20 D3 F8  JSR $F8D3                       A:80 X:00
F8D3  90 05     BCC $F8DA                       A:80 X:00       |       F8D3  90 05     BCC $F8DA                       A:80 X:00
F8D5  F0 03     BEQ $F8DA                       A:80 X:00       |       F8D5  F0 03     BEQ $F8DA                       A:80 X:00
F8D7  30 01     BMI $F8DA                       A:80 X:00       |       F8D7  30 01     BMI $F8DA                       A:80 X:00
F8D9  60        RTS                             A:80 X:00       |       F8D9  60        RTS                             A:80 X:00
D12D  C8        INY                             A:80 X:00       |       D12D  C8        INY                             A:80 X:00
D12E  A9 40     LDA #$40                        A:80 X:00       |       D12E  A9 40     LDA #$40                        A:80 X:00
D130  8D 00 02  STA $0200 = 7F                  A:40 X:00       |       D130  8D 00 02  STA $0200 = 7F                  A:40 X:00
D133  20 31 F9  JSR $F931                       A:40 X:00       |       D133  20 31 F9  JSR $F931                       A:40 X:00
F931  24 01     BIT $01 = FF                    A:40 X:00       |       F931  24 01     BIT $01 = FF                    A:40 X:00
F933  A9 40     LDA #$40                        A:40 X:00       |       F933  A9 40     LDA #$40                        A:40 X:00
F935  38        SEC                             A:40 X:00       |       F935  38        SEC                             A:40 X:00
F936  60        RTS                             A:40 X:00       |       F936  60        RTS                             A:40 X:00
D136  E1 80     SBC ($80,X) @ 80 = 0200 = 40    A:40 X:00       |       D136  E1 80     SBC ($80,X) @ 80 = 0200 = 40    A:40 X:00
D138  20 37 F9  JSR $F937                       A:00 X:00       |       D138  20 37 F9  JSR $F937                       A:00 X:00
F937  30 0B     BMI $F944                       A:00 X:00       |       F937  30 0B     BMI $F944                       A:00 X:00
F939  90 09     BCC $F944                       A:00 X:00       |       F939  90 09     BCC $F944                       A:00 X:00
F93B  D0 07     BNE $F944                       A:00 X:00       |       F93B  D0 07     BNE $F944                       A:00 X:00
F93D  70 05     BVS $F944                       A:00 X:00       |       F93D  70 05     BVS $F944                       A:00 X:00
F93F  C9 00     CMP #$00                        A:00 X:00       |       F93F  C9 00     CMP #$00                        A:00 X:00
F941  D0 01     BNE $F944                       A:00 X:00       |       F941  D0 01     BNE $F944                       A:00 X:00
F943  60        RTS                             A:00 X:00       |       F943  60        RTS                             A:00 X:00
D13B  C8        INY                             A:00 X:00       |       D13B  C8        INY                             A:00 X:00
D13C  A9 3F     LDA #$3F                        A:00 X:00       |       D13C  A9 3F     LDA #$3F                        A:00 X:00
D13E  8D 00 02  STA $0200 = 40                  A:3F X:00       |       D13E  8D 00 02  STA $0200 = 40                  A:3F X:00
D141  20 47 F9  JSR $F947                       A:3F X:00       |       D141  20 47 F9  JSR $F947                       A:3F X:00
F947  B8        CLV                             A:3F X:00       |       F947  B8        CLV                             A:3F X:00
F948  38        SEC                             A:3F X:00       |       F948  38        SEC                             A:3F X:00
F949  A9 40     LDA #$40                        A:3F X:00       |       F949  A9 40     LDA #$40                        A:3F X:00
F94B  60        RTS                             A:40 X:00       |       F94B  60        RTS                             A:40 X:00
D144  E1 80     SBC ($80,X) @ 80 = 0200 = 3F    A:40 X:00       |       D144  E1 80     SBC ($80,X) @ 80 = 0200 = 3F    A:40 X:00
D146  20 4C F9  JSR $F94C                       A:01 X:00       |       D146  20 4C F9  JSR $F94C                       A:01 X:00
F94C  F0 0B     BEQ $F959                       A:01 X:00       |       F94C  F0 0B     BEQ $F959                       A:01 X:00
F94E  30 09     BMI $F959                       A:01 X:00       |       F94E  30 09     BMI $F959                       A:01 X:00
F950  90 07     BCC $F959                       A:01 X:00       |       F950  90 07     BCC $F959                       A:01 X:00
F952  70 05     BVS $F959                       A:01 X:00       |       F952  70 05     BVS $F959                       A:01 X:00
F954  C9 01     CMP #$01                        A:01 X:00       |       F954  C9 01     CMP #$01                        A:01 X:00
F956  D0 01     BNE $F959                       A:01 X:00       |       F956  D0 01     BNE $F959                       A:01 X:00
F958  60        RTS                             A:01 X:00       |       F958  60        RTS                             A:01 X:00
D149  C8        INY                             A:01 X:00       |       D149  C8        INY                             A:01 X:00
D14A  A9 41     LDA #$41                        A:01 X:00       |       D14A  A9 41     LDA #$41                        A:01 X:00
D14C  8D 00 02  STA $0200 = 3F                  A:41 X:00       |       D14C  8D 00 02  STA $0200 = 3F                  A:41 X:00
D14F  20 5C F9  JSR $F95C                       A:41 X:00       |       D14F  20 5C F9  JSR $F95C                       A:41 X:00
F95C  A9 40     LDA #$40                        A:41 X:00       |       F95C  A9 40     LDA #$40                        A:41 X:00
F95E  38        SEC                             A:40 X:00       |       F95E  38        SEC                             A:40 X:00
F95F  24 01     BIT $01 = FF                    A:40 X:00       |       F95F  24 01     BIT $01 = FF                    A:40 X:00
F961  60        RTS                             A:40 X:00       |       F961  60        RTS                             A:40 X:00
D152  E1 80     SBC ($80,X) @ 80 = 0200 = 41    A:40 X:00       |       D152  E1 80     SBC ($80,X) @ 80 = 0200 = 41    A:40 X:00
D154  20 62 F9  JSR $F962                       A:FF X:00       |       D154  20 62 F9  JSR $F962                       A:FF X:00
F962  B0 0B     BCS $F96F                       A:FF X:00       |       F962  B0 0B     BCS $F96F                       A:FF X:00
F964  F0 09     BEQ $F96F                       A:FF X:00       |       F964  F0 09     BEQ $F96F                       A:FF X:00
F966  10 07     BPL $F96F                       A:FF X:00       |       F966  10 07     BPL $F96F                       A:FF X:00
F968  70 05     BVS $F96F                       A:FF X:00       |       F968  70 05     BVS $F96F                       A:FF X:00
F96A  C9 FF     CMP #$FF                        A:FF X:00       |       F96A  C9 FF     CMP #$FF                        A:FF X:00
F96C  D0 01     BNE $F96F                       A:FF X:00       |       F96C  D0 01     BNE $F96F                       A:FF X:00
F96E  60        RTS                             A:FF X:00       |       F96E  60        RTS                             A:FF X:00
D157  C8        INY                             A:FF X:00       |       D157  C8        INY                             A:FF X:00
D158  A9 00     LDA #$00                        A:FF X:00       |       D158  A9 00     LDA #$00                        A:FF X:00
D15A  8D 00 02  STA $0200 = 41                  A:00 X:00       |       D15A  8D 00 02  STA $0200 = 41                  A:00 X:00
D15D  20 72 F9  JSR $F972                       A:00 X:00       |       D15D  20 72 F9  JSR $F972                       A:00 X:00
F972  18        CLC                             A:00 X:00       |       F972  18        CLC                             A:00 X:00
F973  A9 80     LDA #$80                        A:00 X:00       |       F973  A9 80     LDA #$80                        A:00 X:00
F975  60        RTS                             A:80 X:00       |       F975  60        RTS                             A:80 X:00
D160  E1 80     SBC ($80,X) @ 80 = 0200 = 00    A:80 X:00       |       D160  E1 80     SBC ($80,X) @ 80 = 0200 = 00    A:80 X:00
D162  20 76 F9  JSR $F976                       A:7F X:00       |       D162  20 76 F9  JSR $F976                       A:7F X:00
F976  90 05     BCC $F97D                       A:7F X:00       |       F976  90 05     BCC $F97D                       A:7F X:00
F978  C9 7F     CMP #$7F                        A:7F X:00       |       F978  C9 7F     CMP #$7F                        A:7F X:00
F97A  D0 01     BNE $F97D                       A:7F X:00       |       F97A  D0 01     BNE $F97D                       A:7F X:00
F97C  60        RTS                             A:7F X:00       |       F97C  60        RTS                             A:7F X:00
D165  C8        INY                             A:7F X:00       |       D165  C8        INY                             A:7F X:00
D166  A9 7F     LDA #$7F                        A:7F X:00       |       D166  A9 7F     LDA #$7F                        A:7F X:00
D168  8D 00 02  STA $0200 = 00                  A:7F X:00       |       D168  8D 00 02  STA $0200 = 00                  A:7F X:00
D16B  20 80 F9  JSR $F980                       A:7F X:00       |       D16B  20 80 F9  JSR $F980                       A:7F X:00
F980  38        SEC                             A:7F X:00       |       F980  38        SEC                             A:7F X:00
F981  A9 81     LDA #$81                        A:7F X:00       |       F981  A9 81     LDA #$81                        A:7F X:00
F983  60        RTS                             A:81 X:00       |       F983  60        RTS                             A:81 X:00
D16E  E1 80     SBC ($80,X) @ 80 = 0200 = 7F    A:81 X:00       |       D16E  E1 80     SBC ($80,X) @ 80 = 0200 = 7F    A:81 X:00
D170  20 84 F9  JSR $F984                       A:02 X:00       |       D170  20 84 F9  JSR $F984                       A:02 X:00
F984  50 07     BVC $F98D                       A:02 X:00       |       F984  50 07     BVC $F98D                       A:02 X:00
F986  90 05     BCC $F98D                       A:02 X:00       |       F986  90 05     BCC $F98D                       A:02 X:00
F988  C9 02     CMP #$02                        A:02 X:00       |       F988  C9 02     CMP #$02                        A:02 X:00
F98A  D0 01     BNE $F98D                       A:02 X:00       |       F98A  D0 01     BNE $F98D                       A:02 X:00
F98C  60        RTS                             A:02 X:00       |       F98C  60        RTS                             A:02 X:00
D173  60        RTS                             A:02 X:00       |       D173  60        RTS                             A:02 X:00
C612  20 74 D1  JSR $D174                       A:02 X:00       |       C612  20 74 D1  JSR $D174                       A:02 X:00
D174  A9 55     LDA #$55                        A:02 X:00       |       D174  A9 55     LDA #$55                        A:02 X:00
D176  85 78     STA $78 = 00                    A:55 X:00       |       D176  85 78     STA $78 = 00                    A:55 X:00
D178  A9 FF     LDA #$FF                        A:55 X:00       |       D178  A9 FF     LDA #$FF                        A:55 X:00
D17A  85 01     STA $01 = FF                    A:FF X:00       |       D17A  85 01     STA $01 = FF                    A:FF X:00
D17C  24 01     BIT $01 = FF                    A:FF X:00       |       D17C  24 01     BIT $01 = FF                    A:FF X:00
D17E  A0 11     LDY #$11                        A:FF X:00       |       D17E  A0 11     LDY #$11                        A:FF X:00
D180  A2 23     LDX #$23                        A:FF X:00       |       D180  A2 23     LDX #$23                        A:FF X:00
D182  A9 00     LDA #$00                        A:FF X:23       |       D182  A9 00     LDA #$00                        A:FF X:23
D184  A5 78     LDA $78 = 55                    A:00 X:23       |       D184  A5 78     LDA $78 = 55                    A:00 X:23
D186  F0 10     BEQ $D198                       A:55 X:23       |       D186  F0 10     BEQ $D198                       A:55 X:23
D188  30 0E     BMI $D198                       A:55 X:23       |       D188  30 0E     BMI $D198                       A:55 X:23
D18A  C9 55     CMP #$55                        A:55 X:23       |       D18A  C9 55     CMP #$55                        A:55 X:23
D18C  D0 0A     BNE $D198                       A:55 X:23       |       D18C  D0 0A     BNE $D198                       A:55 X:23
D18E  C0 11     CPY #$11                        A:55 X:23       |       D18E  C0 11     CPY #$11                        A:55 X:23
D190  D0 06     BNE $D198                       A:55 X:23       |       D190  D0 06     BNE $D198                       A:55 X:23
D192  E0 23     CPX #$23                        A:55 X:23       |       D192  E0 23     CPX #$23                        A:55 X:23
D194  50 02     BVC $D198                       A:55 X:23       |       D194  50 02     BVC $D198                       A:55 X:23
D196  F0 04     BEQ $D19C                       A:55 X:23       |       D196  F0 04     BEQ $D19C                       A:55 X:23
D19C  A9 46     LDA #$46                        A:55 X:23       |       D19C  A9 46     LDA #$46                        A:55 X:23
D19E  24 01     BIT $01 = FF                    A:46 X:23       |       D19E  24 01     BIT $01 = FF                    A:46 X:23
D1A0  85 78     STA $78 = 55                    A:46 X:23       |       D1A0  85 78     STA $78 = 55                    A:46 X:23
D1A2  F0 0A     BEQ $D1AE                       A:46 X:23       |       D1A2  F0 0A     BEQ $D1AE                       A:46 X:23
D1A4  10 08     BPL $D1AE                       A:46 X:23       |       D1A4  10 08     BPL $D1AE                       A:46 X:23
D1A6  50 06     BVC $D1AE                       A:46 X:23       |       D1A6  50 06     BVC $D1AE                       A:46 X:23
D1A8  A5 78     LDA $78 = 46                    A:46 X:23       |       D1A8  A5 78     LDA $78 = 46                    A:46 X:23
D1AA  C9 46     CMP #$46                        A:46 X:23       |       D1AA  C9 46     CMP #$46                        A:46 X:23
D1AC  F0 04     BEQ $D1B2                       A:46 X:23       |       D1AC  F0 04     BEQ $D1B2                       A:46 X:23
D1B2  A9 55     LDA #$55                        A:46 X:23       |       D1B2  A9 55     LDA #$55                        A:46 X:23
D1B4  85 78     STA $78 = 46                    A:55 X:23       |       D1B4  85 78     STA $78 = 46                    A:55 X:23
D1B6  24 01     BIT $01 = FF                    A:55 X:23       |       D1B6  24 01     BIT $01 = FF                    A:55 X:23
D1B8  A9 11     LDA #$11                        A:55 X:23       |       D1B8  A9 11     LDA #$11                        A:55 X:23
D1BA  A2 23     LDX #$23                        A:11 X:23       |       D1BA  A2 23     LDX #$23                        A:11 X:23
D1BC  A0 00     LDY #$00                        A:11 X:23       |       D1BC  A0 00     LDY #$00                        A:11 X:23
D1BE  A4 78     LDY $78 = 55                    A:11 X:23       |       D1BE  A4 78     LDY $78 = 55                    A:11 X:23
D1C0  F0 10     BEQ $D1D2                       A:11 X:23       |       D1C0  F0 10     BEQ $D1D2                       A:11 X:23
D1C2  30 0E     BMI $D1D2                       A:11 X:23       |       D1C2  30 0E     BMI $D1D2                       A:11 X:23
D1C4  C0 55     CPY #$55                        A:11 X:23       |       D1C4  C0 55     CPY #$55                        A:11 X:23
D1C6  D0 0A     BNE $D1D2                       A:11 X:23       |       D1C6  D0 0A     BNE $D1D2                       A:11 X:23
D1C8  C9 11     CMP #$11                        A:11 X:23       |       D1C8  C9 11     CMP #$11                        A:11 X:23
D1CA  D0 06     BNE $D1D2                       A:11 X:23       |       D1CA  D0 06     BNE $D1D2                       A:11 X:23
D1CC  E0 23     CPX #$23                        A:11 X:23       |       D1CC  E0 23     CPX #$23                        A:11 X:23
D1CE  50 02     BVC $D1D2                       A:11 X:23       |       D1CE  50 02     BVC $D1D2                       A:11 X:23
D1D0  F0 04     BEQ $D1D6                       A:11 X:23       |       D1D0  F0 04     BEQ $D1D6                       A:11 X:23
D1D6  A0 46     LDY #$46                        A:11 X:23       |       D1D6  A0 46     LDY #$46                        A:11 X:23
D1D8  24 01     BIT $01 = FF                    A:11 X:23       |       D1D8  24 01     BIT $01 = FF                    A:11 X:23
D1DA  84 78     STY $78 = 55                    A:11 X:23       |       D1DA  84 78     STY $78 = 55                    A:11 X:23
D1DC  F0 0A     BEQ $D1E8                       A:11 X:23       |       D1DC  F0 0A     BEQ $D1E8                       A:11 X:23
D1DE  10 08     BPL $D1E8                       A:11 X:23       |       D1DE  10 08     BPL $D1E8                       A:11 X:23
D1E0  50 06     BVC $D1E8                       A:11 X:23       |       D1E0  50 06     BVC $D1E8                       A:11 X:23
D1E2  A4 78     LDY $78 = 46                    A:11 X:23       |       D1E2  A4 78     LDY $78 = 46                    A:11 X:23
D1E4  C0 46     CPY #$46                        A:11 X:23       |       D1E4  C0 46     CPY #$46                        A:11 X:23
D1E6  F0 04     BEQ $D1EC                       A:11 X:23       |       D1E6  F0 04     BEQ $D1EC                       A:11 X:23
D1EC  24 01     BIT $01 = FF                    A:11 X:23       |       D1EC  24 01     BIT $01 = FF                    A:11 X:23
D1EE  A9 55     LDA #$55                        A:11 X:23       |       D1EE  A9 55     LDA #$55                        A:11 X:23
D1F0  85 78     STA $78 = 46                    A:55 X:23       |       D1F0  85 78     STA $78 = 46                    A:55 X:23
D1F2  A0 11     LDY #$11                        A:55 X:23       |       D1F2  A0 11     LDY #$11                        A:55 X:23
D1F4  A9 23     LDA #$23                        A:55 X:23       |       D1F4  A9 23     LDA #$23                        A:55 X:23
D1F6  A2 00     LDX #$00                        A:23 X:23       |       D1F6  A2 00     LDX #$00                        A:23 X:23
D1F8  A6 78     LDX $78 = 55                    A:23 X:00       |       D1F8  A6 78     LDX $78 = 55                    A:23 X:00
D1FA  F0 10     BEQ $D20C                       A:23 X:55       |       D1FA  F0 10     BEQ $D20C                       A:23 X:55
D1FC  30 0E     BMI $D20C                       A:23 X:55       |       D1FC  30 0E     BMI $D20C                       A:23 X:55
D1FE  E0 55     CPX #$55                        A:23 X:55       |       D1FE  E0 55     CPX #$55                        A:23 X:55
D200  D0 0A     BNE $D20C                       A:23 X:55       |       D200  D0 0A     BNE $D20C                       A:23 X:55
D202  C0 11     CPY #$11                        A:23 X:55       |       D202  C0 11     CPY #$11                        A:23 X:55
D204  D0 06     BNE $D20C                       A:23 X:55       |       D204  D0 06     BNE $D20C                       A:23 X:55
D206  C9 23     CMP #$23                        A:23 X:55       |       D206  C9 23     CMP #$23                        A:23 X:55
D208  50 02     BVC $D20C                       A:23 X:55       |       D208  50 02     BVC $D20C                       A:23 X:55
D20A  F0 04     BEQ $D210                       A:23 X:55       |       D20A  F0 04     BEQ $D210                       A:23 X:55
D210  A2 46     LDX #$46                        A:23 X:55       |       D210  A2 46     LDX #$46                        A:23 X:55
D212  24 01     BIT $01 = FF                    A:23 X:46       |       D212  24 01     BIT $01 = FF                    A:23 X:46
D214  86 78     STX $78 = 55                    A:23 X:46       |       D214  86 78     STX $78 = 55                    A:23 X:46
D216  F0 0A     BEQ $D222                       A:23 X:46       |       D216  F0 0A     BEQ $D222                       A:23 X:46
D218  10 08     BPL $D222                       A:23 X:46       |       D218  10 08     BPL $D222                       A:23 X:46
D21A  50 06     BVC $D222                       A:23 X:46       |       D21A  50 06     BVC $D222                       A:23 X:46
D21C  A6 78     LDX $78 = 46                    A:23 X:46       |       D21C  A6 78     LDX $78 = 46                    A:23 X:46
D21E  E0 46     CPX #$46                        A:23 X:46       |       D21E  E0 46     CPX #$46                        A:23 X:46
D220  F0 04     BEQ $D226                       A:23 X:46       |       D220  F0 04     BEQ $D226                       A:23 X:46
D226  A9 C0     LDA #$C0                        A:23 X:46       |       D226  A9 C0     LDA #$C0                        A:23 X:46
D228  85 78     STA $78 = 46                    A:C0 X:46       |       D228  85 78     STA $78 = 46                    A:C0 X:46
D22A  A2 33     LDX #$33                        A:C0 X:46       |       D22A  A2 33     LDX #$33                        A:C0 X:46
D22C  A0 88     LDY #$88                        A:C0 X:33       |       D22C  A0 88     LDY #$88                        A:C0 X:33
D22E  A9 05     LDA #$05                        A:C0 X:33       |       D22E  A9 05     LDA #$05                        A:C0 X:33
D230  24 78     BIT $78 = C0                    A:05 X:33       |       D230  24 78     BIT $78 = C0                    A:05 X:33
D232  10 10     BPL $D244                       A:05 X:33       |       D232  10 10     BPL $D244                       A:05 X:33
D234  50 0E     BVC $D244                       A:05 X:33       |       D234  50 0E     BVC $D244                       A:05 X:33
D236  D0 0C     BNE $D244                       A:05 X:33       |       D236  D0 0C     BNE $D244                       A:05 X:33
D238  C9 05     CMP #$05                        A:05 X:33       |       D238  C9 05     CMP #$05                        A:05 X:33
D23A  D0 08     BNE $D244                       A:05 X:33       |       D23A  D0 08     BNE $D244                       A:05 X:33
D23C  E0 33     CPX #$33                        A:05 X:33       |       D23C  E0 33     CPX #$33                        A:05 X:33
D23E  D0 04     BNE $D244                       A:05 X:33       |       D23E  D0 04     BNE $D244                       A:05 X:33
D240  C0 88     CPY #$88                        A:05 X:33       |       D240  C0 88     CPY #$88                        A:05 X:33
D242  F0 04     BEQ $D248                       A:05 X:33       |       D242  F0 04     BEQ $D248                       A:05 X:33
D248  A9 03     LDA #$03                        A:05 X:33       |       D248  A9 03     LDA #$03                        A:05 X:33
D24A  85 78     STA $78 = C0                    A:03 X:33       |       D24A  85 78     STA $78 = C0                    A:03 X:33
D24C  A9 01     LDA #$01                        A:03 X:33       |       D24C  A9 01     LDA #$01                        A:03 X:33
D24E  24 78     BIT $78 = 03                    A:01 X:33       |       D24E  24 78     BIT $78 = 03                    A:01 X:33
D250  30 08     BMI $D25A                       A:01 X:33       |       D250  30 08     BMI $D25A                       A:01 X:33
D252  70 06     BVS $D25A                       A:01 X:33       |       D252  70 06     BVS $D25A                       A:01 X:33
D254  F0 04     BEQ $D25A                       A:01 X:33       |       D254  F0 04     BEQ $D25A                       A:01 X:33
D256  C9 01     CMP #$01                        A:01 X:33       |       D256  C9 01     CMP #$01                        A:01 X:33
D258  F0 04     BEQ $D25E                       A:01 X:33       |       D258  F0 04     BEQ $D25E                       A:01 X:33
D25E  A0 7E     LDY #$7E                        A:01 X:33       |       D25E  A0 7E     LDY #$7E                        A:01 X:33
D260  A9 AA     LDA #$AA                        A:01 X:33       |       D260  A9 AA     LDA #$AA                        A:01 X:33
D262  85 78     STA $78 = 03                    A:AA X:33       |       D262  85 78     STA $78 = 03                    A:AA X:33
D264  20 B6 F7  JSR $F7B6                       A:AA X:33       |       D264  20 B6 F7  JSR $F7B6                       A:AA X:33
F7B6  18        CLC                             A:AA X:33       |       F7B6  18        CLC                             A:AA X:33
F7B7  A9 FF     LDA #$FF                        A:AA X:33       |       F7B7  A9 FF     LDA #$FF                        A:AA X:33
F7B9  85 01     STA $01 = FF                    A:FF X:33       |       F7B9  85 01     STA $01 = FF                    A:FF X:33
F7BB  24 01     BIT $01 = FF                    A:FF X:33       |       F7BB  24 01     BIT $01 = FF                    A:FF X:33
F7BD  A9 55     LDA #$55                        A:FF X:33       |       F7BD  A9 55     LDA #$55                        A:FF X:33
F7BF  60        RTS                             A:55 X:33       |       F7BF  60        RTS                             A:55 X:33
D267  05 78     ORA $78 = AA                    A:55 X:33       |       D267  05 78     ORA $78 = AA                    A:55 X:33
D269  20 C0 F7  JSR $F7C0                       A:FF X:33       |       D269  20 C0 F7  JSR $F7C0                       A:FF X:33
F7C0  B0 09     BCS $F7CB                       A:FF X:33       |       F7C0  B0 09     BCS $F7CB                       A:FF X:33
F7C2  10 07     BPL $F7CB                       A:FF X:33       |       F7C2  10 07     BPL $F7CB                       A:FF X:33
F7C4  C9 FF     CMP #$FF                        A:FF X:33       |       F7C4  C9 FF     CMP #$FF                        A:FF X:33
F7C6  D0 03     BNE $F7CB                       A:FF X:33       |       F7C6  D0 03     BNE $F7CB                       A:FF X:33
F7C8  50 01     BVC $F7CB                       A:FF X:33       |       F7C8  50 01     BVC $F7CB                       A:FF X:33
F7CA  60        RTS                             A:FF X:33       |       F7CA  60        RTS                             A:FF X:33
D26C  C8        INY                             A:FF X:33       |       D26C  C8        INY                             A:FF X:33
D26D  A9 00     LDA #$00                        A:FF X:33       |       D26D  A9 00     LDA #$00                        A:FF X:33
D26F  85 78     STA $78 = AA                    A:00 X:33       |       D26F  85 78     STA $78 = AA                    A:00 X:33
D271  20 CE F7  JSR $F7CE                       A:00 X:33       |       D271  20 CE F7  JSR $F7CE                       A:00 X:33
F7CE  38        SEC                             A:00 X:33       |       F7CE  38        SEC                             A:00 X:33
F7CF  B8        CLV                             A:00 X:33       |       F7CF  B8        CLV                             A:00 X:33
F7D0  A9 00     LDA #$00                        A:00 X:33       |       F7D0  A9 00     LDA #$00                        A:00 X:33
F7D2  60        RTS                             A:00 X:33       |       F7D2  60        RTS                             A:00 X:33
D274  05 78     ORA $78 = 00                    A:00 X:33       |       D274  05 78     ORA $78 = 00                    A:00 X:33
D276  20 D3 F7  JSR $F7D3                       A:00 X:33       |       D276  20 D3 F7  JSR $F7D3                       A:00 X:33
F7D3  D0 07     BNE $F7DC                       A:00 X:33       |       F7D3  D0 07     BNE $F7DC                       A:00 X:33
F7D5  70 05     BVS $F7DC                       A:00 X:33       |       F7D5  70 05     BVS $F7DC                       A:00 X:33
F7D7  90 03     BCC $F7DC                       A:00 X:33       |       F7D7  90 03     BCC $F7DC                       A:00 X:33
F7D9  30 01     BMI $F7DC                       A:00 X:33       |       F7D9  30 01     BMI $F7DC                       A:00 X:33
F7DB  60        RTS                             A:00 X:33       |       F7DB  60        RTS                             A:00 X:33
D279  C8        INY                             A:00 X:33       |       D279  C8        INY                             A:00 X:33
D27A  A9 AA     LDA #$AA                        A:00 X:33       |       D27A  A9 AA     LDA #$AA                        A:00 X:33
D27C  85 78     STA $78 = 00                    A:AA X:33       |       D27C  85 78     STA $78 = 00                    A:AA X:33
D27E  20 DF F7  JSR $F7DF                       A:AA X:33       |       D27E  20 DF F7  JSR $F7DF                       A:AA X:33
F7DF  18        CLC                             A:AA X:33       |       F7DF  18        CLC                             A:AA X:33
F7E0  24 01     BIT $01 = FF                    A:AA X:33       |       F7E0  24 01     BIT $01 = FF                    A:AA X:33
F7E2  A9 55     LDA #$55                        A:AA X:33       |       F7E2  A9 55     LDA #$55                        A:AA X:33
F7E4  60        RTS                             A:55 X:33       |       F7E4  60        RTS                             A:55 X:33
D281  25 78     AND $78 = AA                    A:55 X:33       |       D281  25 78     AND $78 = AA                    A:55 X:33
D283  20 E5 F7  JSR $F7E5                       A:00 X:33       |       D283  20 E5 F7  JSR $F7E5                       A:00 X:33
F7E5  D0 07     BNE $F7EE                       A:00 X:33       |       F7E5  D0 07     BNE $F7EE                       A:00 X:33
F7E7  50 05     BVC $F7EE                       A:00 X:33       |       F7E7  50 05     BVC $F7EE                       A:00 X:33
F7E9  B0 03     BCS $F7EE                       A:00 X:33       |       F7E9  B0 03     BCS $F7EE                       A:00 X:33
F7EB  30 01     BMI $F7EE                       A:00 X:33       |       F7EB  30 01     BMI $F7EE                       A:00 X:33
F7ED  60        RTS                             A:00 X:33       |       F7ED  60        RTS                             A:00 X:33
D286  C8        INY                             A:00 X:33       |       D286  C8        INY                             A:00 X:33
D287  A9 EF     LDA #$EF                        A:00 X:33       |       D287  A9 EF     LDA #$EF                        A:00 X:33
D289  85 78     STA $78 = AA                    A:EF X:33       |       D289  85 78     STA $78 = AA                    A:EF X:33
D28B  20 F1 F7  JSR $F7F1                       A:EF X:33       |       D28B  20 F1 F7  JSR $F7F1                       A:EF X:33
F7F1  38        SEC                             A:EF X:33       |       F7F1  38        SEC                             A:EF X:33
F7F2  B8        CLV                             A:EF X:33       |       F7F2  B8        CLV                             A:EF X:33
F7F3  A9 F8     LDA #$F8                        A:EF X:33       |       F7F3  A9 F8     LDA #$F8                        A:EF X:33
F7F5  60        RTS                             A:F8 X:33       |       F7F5  60        RTS                             A:F8 X:33
D28E  25 78     AND $78 = EF                    A:F8 X:33       |       D28E  25 78     AND $78 = EF                    A:F8 X:33
D290  20 F6 F7  JSR $F7F6                       A:E8 X:33       |       D290  20 F6 F7  JSR $F7F6                       A:E8 X:33
F7F6  90 09     BCC $F801                       A:E8 X:33       |       F7F6  90 09     BCC $F801                       A:E8 X:33
F7F8  10 07     BPL $F801                       A:E8 X:33       |       F7F8  10 07     BPL $F801                       A:E8 X:33
F7FA  C9 E8     CMP #$E8                        A:E8 X:33       |       F7FA  C9 E8     CMP #$E8                        A:E8 X:33
F7FC  D0 03     BNE $F801                       A:E8 X:33       |       F7FC  D0 03     BNE $F801                       A:E8 X:33
F7FE  70 01     BVS $F801                       A:E8 X:33       |       F7FE  70 01     BVS $F801                       A:E8 X:33
F800  60        RTS                             A:E8 X:33       |       F800  60        RTS                             A:E8 X:33
D293  C8        INY                             A:E8 X:33       |       D293  C8        INY                             A:E8 X:33
D294  A9 AA     LDA #$AA                        A:E8 X:33       |       D294  A9 AA     LDA #$AA                        A:E8 X:33
D296  85 78     STA $78 = EF                    A:AA X:33       |       D296  85 78     STA $78 = EF                    A:AA X:33
D298  20 04 F8  JSR $F804                       A:AA X:33       |       D298  20 04 F8  JSR $F804                       A:AA X:33
F804  18        CLC                             A:AA X:33       |       F804  18        CLC                             A:AA X:33
F805  24 01     BIT $01 = FF                    A:AA X:33       |       F805  24 01     BIT $01 = FF                    A:AA X:33
F807  A9 5F     LDA #$5F                        A:AA X:33       |       F807  A9 5F     LDA #$5F                        A:AA X:33
F809  60        RTS                             A:5F X:33       |       F809  60        RTS                             A:5F X:33
D29B  45 78     EOR $78 = AA                    A:5F X:33       |       D29B  45 78     EOR $78 = AA                    A:5F X:33
D29D  20 0A F8  JSR $F80A                       A:F5 X:33       |       D29D  20 0A F8  JSR $F80A                       A:F5 X:33
F80A  B0 09     BCS $F815                       A:F5 X:33       |       F80A  B0 09     BCS $F815                       A:F5 X:33
F80C  10 07     BPL $F815                       A:F5 X:33       |       F80C  10 07     BPL $F815                       A:F5 X:33
F80E  C9 F5     CMP #$F5                        A:F5 X:33       |       F80E  C9 F5     CMP #$F5                        A:F5 X:33
F810  D0 03     BNE $F815                       A:F5 X:33       |       F810  D0 03     BNE $F815                       A:F5 X:33
F812  50 01     BVC $F815                       A:F5 X:33       |       F812  50 01     BVC $F815                       A:F5 X:33
F814  60        RTS                             A:F5 X:33       |       F814  60        RTS                             A:F5 X:33
D2A0  C8        INY                             A:F5 X:33       |       D2A0  C8        INY                             A:F5 X:33
D2A1  A9 70     LDA #$70                        A:F5 X:33       |       D2A1  A9 70     LDA #$70                        A:F5 X:33
D2A3  85 78     STA $78 = AA                    A:70 X:33       |       D2A3  85 78     STA $78 = AA                    A:70 X:33
D2A5  20 18 F8  JSR $F818                       A:70 X:33       |       D2A5  20 18 F8  JSR $F818                       A:70 X:33
F818  38        SEC                             A:70 X:33       |       F818  38        SEC                             A:70 X:33
F819  B8        CLV                             A:70 X:33       |       F819  B8        CLV                             A:70 X:33
F81A  A9 70     LDA #$70                        A:70 X:33       |       F81A  A9 70     LDA #$70                        A:70 X:33
F81C  60        RTS                             A:70 X:33       |       F81C  60        RTS                             A:70 X:33
D2A8  45 78     EOR $78 = 70                    A:70 X:33       |       D2A8  45 78     EOR $78 = 70                    A:70 X:33
D2AA  20 1D F8  JSR $F81D                       A:00 X:33       |       D2AA  20 1D F8  JSR $F81D                       A:00 X:33
F81D  D0 07     BNE $F826                       A:00 X:33       |       F81D  D0 07     BNE $F826                       A:00 X:33
F81F  70 05     BVS $F826                       A:00 X:33       |       F81F  70 05     BVS $F826                       A:00 X:33
F821  90 03     BCC $F826                       A:00 X:33       |       F821  90 03     BCC $F826                       A:00 X:33
F823  30 01     BMI $F826                       A:00 X:33       |       F823  30 01     BMI $F826                       A:00 X:33
F825  60        RTS                             A:00 X:33       |       F825  60        RTS                             A:00 X:33
D2AD  C8        INY                             A:00 X:33       |       D2AD  C8        INY                             A:00 X:33
D2AE  A9 69     LDA #$69                        A:00 X:33       |       D2AE  A9 69     LDA #$69                        A:00 X:33
D2B0  85 78     STA $78 = 70                    A:69 X:33       |       D2B0  85 78     STA $78 = 70                    A:69 X:33
D2B2  20 29 F8  JSR $F829                       A:69 X:33       |       D2B2  20 29 F8  JSR $F829                       A:69 X:33
F829  18        CLC                             A:69 X:33       |       F829  18        CLC                             A:69 X:33
F82A  24 01     BIT $01 = FF                    A:69 X:33       |       F82A  24 01     BIT $01 = FF                    A:69 X:33
F82C  A9 00     LDA #$00                        A:69 X:33       |       F82C  A9 00     LDA #$00                        A:69 X:33
F82E  60        RTS                             A:00 X:33       |       F82E  60        RTS                             A:00 X:33
D2B5  65 78     ADC $78 = 69                    A:00 X:33       |       D2B5  65 78     ADC $78 = 69                    A:00 X:33
D2B7  20 2F F8  JSR $F82F                       A:69 X:33       |       D2B7  20 2F F8  JSR $F82F                       A:69 X:33
F82F  30 09     BMI $F83A                       A:69 X:33       |       F82F  30 09     BMI $F83A                       A:69 X:33
F831  B0 07     BCS $F83A                       A:69 X:33       |       F831  B0 07     BCS $F83A                       A:69 X:33
F833  C9 69     CMP #$69                        A:69 X:33       |       F833  C9 69     CMP #$69                        A:69 X:33
F835  D0 03     BNE $F83A                       A:69 X:33       |       F835  D0 03     BNE $F83A                       A:69 X:33
F837  70 01     BVS $F83A                       A:69 X:33       |       F837  70 01     BVS $F83A                       A:69 X:33
F839  60        RTS                             A:69 X:33       |       F839  60        RTS                             A:69 X:33
D2BA  C8        INY                             A:69 X:33       |       D2BA  C8        INY                             A:69 X:33
D2BB  20 3D F8  JSR $F83D                       A:69 X:33       |       D2BB  20 3D F8  JSR $F83D                       A:69 X:33
F83D  38        SEC                             A:69 X:33       |       F83D  38        SEC                             A:69 X:33
F83E  24 01     BIT $01 = FF                    A:69 X:33       |       F83E  24 01     BIT $01 = FF                    A:69 X:33
F840  A9 00     LDA #$00                        A:69 X:33       |       F840  A9 00     LDA #$00                        A:69 X:33
F842  60        RTS                             A:00 X:33       |       F842  60        RTS                             A:00 X:33
D2BE  65 78     ADC $78 = 69                    A:00 X:33       |       D2BE  65 78     ADC $78 = 69                    A:00 X:33
D2C0  20 43 F8  JSR $F843                       A:6A X:33       |       D2C0  20 43 F8  JSR $F843                       A:6A X:33
F843  30 09     BMI $F84E                       A:6A X:33       |       F843  30 09     BMI $F84E                       A:6A X:33
F845  B0 07     BCS $F84E                       A:6A X:33       |       F845  B0 07     BCS $F84E                       A:6A X:33
F847  C9 6A     CMP #$6A                        A:6A X:33       |       F847  C9 6A     CMP #$6A                        A:6A X:33
F849  D0 03     BNE $F84E                       A:6A X:33       |       F849  D0 03     BNE $F84E                       A:6A X:33
F84B  70 01     BVS $F84E                       A:6A X:33       |       F84B  70 01     BVS $F84E                       A:6A X:33
F84D  60        RTS                             A:6A X:33       |       F84D  60        RTS                             A:6A X:33
D2C3  C8        INY                             A:6A X:33       |       D2C3  C8        INY                             A:6A X:33
D2C4  A9 7F     LDA #$7F                        A:6A X:33       |       D2C4  A9 7F     LDA #$7F                        A:6A X:33
D2C6  85 78     STA $78 = 69                    A:7F X:33       |       D2C6  85 78     STA $78 = 69                    A:7F X:33
D2C8  20 51 F8  JSR $F851                       A:7F X:33       |       D2C8  20 51 F8  JSR $F851                       A:7F X:33
F851  38        SEC                             A:7F X:33       |       F851  38        SEC                             A:7F X:33
F852  B8        CLV                             A:7F X:33       |       F852  B8        CLV                             A:7F X:33
F853  A9 7F     LDA #$7F                        A:7F X:33       |       F853  A9 7F     LDA #$7F                        A:7F X:33
F855  60        RTS                             A:7F X:33       |       F855  60        RTS                             A:7F X:33
D2CB  65 78     ADC $78 = 7F                    A:7F X:33       |       D2CB  65 78     ADC $78 = 7F                    A:7F X:33
D2CD  20 56 F8  JSR $F856                       A:FF X:33       |       D2CD  20 56 F8  JSR $F856                       A:FF X:33
F856  10 09     BPL $F861                       A:FF X:33       |       F856  10 09     BPL $F861                       A:FF X:33
F858  B0 07     BCS $F861                       A:FF X:33       |       F858  B0 07     BCS $F861                       A:FF X:33
F85A  C9 FF     CMP #$FF                        A:FF X:33       |       F85A  C9 FF     CMP #$FF                        A:FF X:33
F85C  D0 03     BNE $F861                       A:FF X:33       |       F85C  D0 03     BNE $F861                       A:FF X:33
F85E  50 01     BVC $F861                       A:FF X:33       |       F85E  50 01     BVC $F861                       A:FF X:33
F860  60        RTS                             A:FF X:33       |       F860  60        RTS                             A:FF X:33
D2D0  C8        INY                             A:FF X:33       |       D2D0  C8        INY                             A:FF X:33
D2D1  A9 80     LDA #$80                        A:FF X:33       |       D2D1  A9 80     LDA #$80                        A:FF X:33
D2D3  85 78     STA $78 = 7F                    A:80 X:33       |       D2D3  85 78     STA $78 = 7F                    A:80 X:33
D2D5  20 64 F8  JSR $F864                       A:80 X:33       |       D2D5  20 64 F8  JSR $F864                       A:80 X:33
F864  18        CLC                             A:80 X:33       |       F864  18        CLC                             A:80 X:33
F865  24 01     BIT $01 = FF                    A:80 X:33       |       F865  24 01     BIT $01 = FF                    A:80 X:33
F867  A9 7F     LDA #$7F                        A:80 X:33       |       F867  A9 7F     LDA #$7F                        A:80 X:33
F869  60        RTS                             A:7F X:33       |       F869  60        RTS                             A:7F X:33
D2D8  65 78     ADC $78 = 80                    A:7F X:33       |       D2D8  65 78     ADC $78 = 80                    A:7F X:33
D2DA  20 6A F8  JSR $F86A                       A:FF X:33       |       D2DA  20 6A F8  JSR $F86A                       A:FF X:33
F86A  10 09     BPL $F875                       A:FF X:33       |       F86A  10 09     BPL $F875                       A:FF X:33
F86C  B0 07     BCS $F875                       A:FF X:33       |       F86C  B0 07     BCS $F875                       A:FF X:33
F86E  C9 FF     CMP #$FF                        A:FF X:33       |       F86E  C9 FF     CMP #$FF                        A:FF X:33
F870  D0 03     BNE $F875                       A:FF X:33       |       F870  D0 03     BNE $F875                       A:FF X:33
F872  70 01     BVS $F875                       A:FF X:33       |       F872  70 01     BVS $F875                       A:FF X:33
F874  60        RTS                             A:FF X:33       |       F874  60        RTS                             A:FF X:33
D2DD  C8        INY                             A:FF X:33       |       D2DD  C8        INY                             A:FF X:33
D2DE  20 78 F8  JSR $F878                       A:FF X:33       |       D2DE  20 78 F8  JSR $F878                       A:FF X:33
F878  38        SEC                             A:FF X:33       |       F878  38        SEC                             A:FF X:33
F879  B8        CLV                             A:FF X:33       |       F879  B8        CLV                             A:FF X:33
F87A  A9 7F     LDA #$7F                        A:FF X:33       |       F87A  A9 7F     LDA #$7F                        A:FF X:33
F87C  60        RTS                             A:7F X:33       |       F87C  60        RTS                             A:7F X:33
D2E1  65 78     ADC $78 = 80                    A:7F X:33       |       D2E1  65 78     ADC $78 = 80                    A:7F X:33
D2E3  20 7D F8  JSR $F87D                       A:00 X:33       |       D2E3  20 7D F8  JSR $F87D                       A:00 X:33
F87D  D0 07     BNE $F886                       A:00 X:33       |       F87D  D0 07     BNE $F886                       A:00 X:33
F87F  30 05     BMI $F886                       A:00 X:33       |       F87F  30 05     BMI $F886                       A:00 X:33
F881  70 03     BVS $F886                       A:00 X:33       |       F881  70 03     BVS $F886                       A:00 X:33
F883  90 01     BCC $F886                       A:00 X:33       |       F883  90 01     BCC $F886                       A:00 X:33
F885  60        RTS                             A:00 X:33       |       F885  60        RTS                             A:00 X:33
D2E6  C8        INY                             A:00 X:33       |       D2E6  C8        INY                             A:00 X:33
D2E7  A9 40     LDA #$40                        A:00 X:33       |       D2E7  A9 40     LDA #$40                        A:00 X:33
D2E9  85 78     STA $78 = 80                    A:40 X:33       |       D2E9  85 78     STA $78 = 80                    A:40 X:33
D2EB  20 89 F8  JSR $F889                       A:40 X:33       |       D2EB  20 89 F8  JSR $F889                       A:40 X:33
F889  24 01     BIT $01 = FF                    A:40 X:33       |       F889  24 01     BIT $01 = FF                    A:40 X:33
F88B  A9 40     LDA #$40                        A:40 X:33       |       F88B  A9 40     LDA #$40                        A:40 X:33
F88D  60        RTS                             A:40 X:33       |       F88D  60        RTS                             A:40 X:33
D2EE  C5 78     CMP $78 = 40                    A:40 X:33       |       D2EE  C5 78     CMP $78 = 40                    A:40 X:33
D2F0  20 8E F8  JSR $F88E                       A:40 X:33       |       D2F0  20 8E F8  JSR $F88E                       A:40 X:33
F88E  30 07     BMI $F897                       A:40 X:33       |       F88E  30 07     BMI $F897                       A:40 X:33
F890  90 05     BCC $F897                       A:40 X:33       |       F890  90 05     BCC $F897                       A:40 X:33
F892  D0 03     BNE $F897                       A:40 X:33       |       F892  D0 03     BNE $F897                       A:40 X:33
F894  50 01     BVC $F897                       A:40 X:33       |       F894  50 01     BVC $F897                       A:40 X:33
F896  60        RTS                             A:40 X:33       |       F896  60        RTS                             A:40 X:33
D2F3  C8        INY                             A:40 X:33       |       D2F3  C8        INY                             A:40 X:33
D2F4  48        PHA                             A:40 X:33       |       D2F4  48        PHA                             A:40 X:33
D2F5  A9 3F     LDA #$3F                        A:40 X:33       |       D2F5  A9 3F     LDA #$3F                        A:40 X:33
D2F7  85 78     STA $78 = 40                    A:3F X:33       |       D2F7  85 78     STA $78 = 40                    A:3F X:33
D2F9  68        PLA                             A:3F X:33       |       D2F9  68        PLA                             A:3F X:33
D2FA  20 9A F8  JSR $F89A                       A:40 X:33       |       D2FA  20 9A F8  JSR $F89A                       A:40 X:33
F89A  B8        CLV                             A:40 X:33       |       F89A  B8        CLV                             A:40 X:33
F89B  60        RTS                             A:40 X:33       |       F89B  60        RTS                             A:40 X:33
D2FD  C5 78     CMP $78 = 3F                    A:40 X:33       |       D2FD  C5 78     CMP $78 = 3F                    A:40 X:33
D2FF  20 9C F8  JSR $F89C                       A:40 X:33       |       D2FF  20 9C F8  JSR $F89C                       A:40 X:33
F89C  F0 07     BEQ $F8A5                       A:40 X:33       |       F89C  F0 07     BEQ $F8A5                       A:40 X:33
F89E  30 05     BMI $F8A5                       A:40 X:33       |       F89E  30 05     BMI $F8A5                       A:40 X:33
F8A0  90 03     BCC $F8A5                       A:40 X:33       |       F8A0  90 03     BCC $F8A5                       A:40 X:33
F8A2  70 01     BVS $F8A5                       A:40 X:33       |       F8A2  70 01     BVS $F8A5                       A:40 X:33
F8A4  60        RTS                             A:40 X:33       |       F8A4  60        RTS                             A:40 X:33
D302  C8        INY                             A:40 X:33       |       D302  C8        INY                             A:40 X:33
D303  48        PHA                             A:40 X:33       |       D303  48        PHA                             A:40 X:33
D304  A9 41     LDA #$41                        A:40 X:33       |       D304  A9 41     LDA #$41                        A:40 X:33
D306  85 78     STA $78 = 3F                    A:41 X:33       |       D306  85 78     STA $78 = 3F                    A:41 X:33
D308  68        PLA                             A:41 X:33       |       D308  68        PLA                             A:41 X:33
D309  C5 78     CMP $78 = 41                    A:40 X:33       |       D309  C5 78     CMP $78 = 41                    A:40 X:33
D30B  20 A8 F8  JSR $F8A8                       A:40 X:33       |       D30B  20 A8 F8  JSR $F8A8                       A:40 X:33
F8A8  F0 05     BEQ $F8AF                       A:40 X:33       |       F8A8  F0 05     BEQ $F8AF                       A:40 X:33
F8AA  10 03     BPL $F8AF                       A:40 X:33       |       F8AA  10 03     BPL $F8AF                       A:40 X:33
F8AC  10 01     BPL $F8AF                       A:40 X:33       |       F8AC  10 01     BPL $F8AF                       A:40 X:33
F8AE  60        RTS                             A:40 X:33       |       F8AE  60        RTS                             A:40 X:33
D30E  C8        INY                             A:40 X:33       |       D30E  C8        INY                             A:40 X:33
D30F  48        PHA                             A:40 X:33       |       D30F  48        PHA                             A:40 X:33
D310  A9 00     LDA #$00                        A:40 X:33       |       D310  A9 00     LDA #$00                        A:40 X:33
D312  85 78     STA $78 = 41                    A:00 X:33       |       D312  85 78     STA $78 = 41                    A:00 X:33
D314  68        PLA                             A:00 X:33       |       D314  68        PLA                             A:00 X:33
D315  20 B2 F8  JSR $F8B2                       A:40 X:33       |       D315  20 B2 F8  JSR $F8B2                       A:40 X:33
F8B2  A9 80     LDA #$80                        A:40 X:33       |       F8B2  A9 80     LDA #$80                        A:40 X:33
F8B4  60        RTS                             A:80 X:33       |       F8B4  60        RTS                             A:80 X:33
D318  C5 78     CMP $78 = 00                    A:80 X:33       |       D318  C5 78     CMP $78 = 00                    A:80 X:33
D31A  20 B5 F8  JSR $F8B5                       A:80 X:33       |       D31A  20 B5 F8  JSR $F8B5                       A:80 X:33
F8B5  F0 05     BEQ $F8BC                       A:80 X:33       |       F8B5  F0 05     BEQ $F8BC                       A:80 X:33
F8B7  10 03     BPL $F8BC                       A:80 X:33       |       F8B7  10 03     BPL $F8BC                       A:80 X:33
F8B9  90 01     BCC $F8BC                       A:80 X:33       |       F8B9  90 01     BCC $F8BC                       A:80 X:33
F8BB  60        RTS                             A:80 X:33       |       F8BB  60        RTS                             A:80 X:33
D31D  C8        INY                             A:80 X:33       |       D31D  C8        INY                             A:80 X:33
D31E  48        PHA                             A:80 X:33       |       D31E  48        PHA                             A:80 X:33
D31F  A9 80     LDA #$80                        A:80 X:33       |       D31F  A9 80     LDA #$80                        A:80 X:33
D321  85 78     STA $78 = 00                    A:80 X:33       |       D321  85 78     STA $78 = 00                    A:80 X:33
D323  68        PLA                             A:80 X:33       |       D323  68        PLA                             A:80 X:33
D324  C5 78     CMP $78 = 80                    A:80 X:33       |       D324  C5 78     CMP $78 = 80                    A:80 X:33
D326  20 BF F8  JSR $F8BF                       A:80 X:33       |       D326  20 BF F8  JSR $F8BF                       A:80 X:33
F8BF  D0 05     BNE $F8C6                       A:80 X:33       |       F8BF  D0 05     BNE $F8C6                       A:80 X:33
F8C1  30 03     BMI $F8C6                       A:80 X:33       |       F8C1  30 03     BMI $F8C6                       A:80 X:33
F8C3  90 01     BCC $F8C6                       A:80 X:33       |       F8C3  90 01     BCC $F8C6                       A:80 X:33
F8C5  60        RTS                             A:80 X:33       |       F8C5  60        RTS                             A:80 X:33
D329  C8        INY                             A:80 X:33       |       D329  C8        INY                             A:80 X:33
D32A  48        PHA                             A:80 X:33       |       D32A  48        PHA                             A:80 X:33
D32B  A9 81     LDA #$81                        A:80 X:33       |       D32B  A9 81     LDA #$81                        A:80 X:33
D32D  85 78     STA $78 = 80                    A:81 X:33       |       D32D  85 78     STA $78 = 80                    A:81 X:33
D32F  68        PLA                             A:81 X:33       |       D32F  68        PLA                             A:81 X:33
D330  C5 78     CMP $78 = 81                    A:80 X:33       |       D330  C5 78     CMP $78 = 81                    A:80 X:33
D332  20 C9 F8  JSR $F8C9                       A:80 X:33       |       D332  20 C9 F8  JSR $F8C9                       A:80 X:33
F8C9  B0 05     BCS $F8D0                       A:80 X:33       |       F8C9  B0 05     BCS $F8D0                       A:80 X:33
F8CB  F0 03     BEQ $F8D0                       A:80 X:33       |       F8CB  F0 03     BEQ $F8D0                       A:80 X:33
F8CD  10 01     BPL $F8D0                       A:80 X:33       |       F8CD  10 01     BPL $F8D0                       A:80 X:33
F8CF  60        RTS                             A:80 X:33       |       F8CF  60        RTS                             A:80 X:33
D335  C8        INY                             A:80 X:33       |       D335  C8        INY                             A:80 X:33
D336  48        PHA                             A:80 X:33       |       D336  48        PHA                             A:80 X:33
D337  A9 7F     LDA #$7F                        A:80 X:33       |       D337  A9 7F     LDA #$7F                        A:80 X:33
D339  85 78     STA $78 = 81                    A:7F X:33       |       D339  85 78     STA $78 = 81                    A:7F X:33
D33B  68        PLA                             A:7F X:33       |       D33B  68        PLA                             A:7F X:33
D33C  C5 78     CMP $78 = 7F                    A:80 X:33       |       D33C  C5 78     CMP $78 = 7F                    A:80 X:33
D33E  20 D3 F8  JSR $F8D3                       A:80 X:33       |       D33E  20 D3 F8  JSR $F8D3                       A:80 X:33
F8D3  90 05     BCC $F8DA                       A:80 X:33       |       F8D3  90 05     BCC $F8DA                       A:80 X:33
F8D5  F0 03     BEQ $F8DA                       A:80 X:33       |       F8D5  F0 03     BEQ $F8DA                       A:80 X:33
F8D7  30 01     BMI $F8DA                       A:80 X:33       |       F8D7  30 01     BMI $F8DA                       A:80 X:33
F8D9  60        RTS                             A:80 X:33       |       F8D9  60        RTS                             A:80 X:33
D341  C8        INY                             A:80 X:33       |       D341  C8        INY                             A:80 X:33
D342  A9 40     LDA #$40                        A:80 X:33       |       D342  A9 40     LDA #$40                        A:80 X:33
D344  85 78     STA $78 = 7F                    A:40 X:33       |       D344  85 78     STA $78 = 7F                    A:40 X:33
D346  20 31 F9  JSR $F931                       A:40 X:33       |       D346  20 31 F9  JSR $F931                       A:40 X:33
F931  24 01     BIT $01 = FF                    A:40 X:33       |       F931  24 01     BIT $01 = FF                    A:40 X:33
F933  A9 40     LDA #$40                        A:40 X:33       |       F933  A9 40     LDA #$40                        A:40 X:33
F935  38        SEC                             A:40 X:33       |       F935  38        SEC                             A:40 X:33
F936  60        RTS                             A:40 X:33       |       F936  60        RTS                             A:40 X:33
D349  E5 78     SBC $78 = 40                    A:40 X:33       |       D349  E5 78     SBC $78 = 40                    A:40 X:33
D34B  20 37 F9  JSR $F937                       A:00 X:33       |       D34B  20 37 F9  JSR $F937                       A:00 X:33
F937  30 0B     BMI $F944                       A:00 X:33       |       F937  30 0B     BMI $F944                       A:00 X:33
F939  90 09     BCC $F944                       A:00 X:33       |       F939  90 09     BCC $F944                       A:00 X:33
F93B  D0 07     BNE $F944                       A:00 X:33       |       F93B  D0 07     BNE $F944                       A:00 X:33
F93D  70 05     BVS $F944                       A:00 X:33       |       F93D  70 05     BVS $F944                       A:00 X:33
F93F  C9 00     CMP #$00                        A:00 X:33       |       F93F  C9 00     CMP #$00                        A:00 X:33
F941  D0 01     BNE $F944                       A:00 X:33       |       F941  D0 01     BNE $F944                       A:00 X:33
F943  60        RTS                             A:00 X:33       |       F943  60        RTS                             A:00 X:33
D34E  C8        INY                             A:00 X:33       |       D34E  C8        INY                             A:00 X:33
D34F  A9 3F     LDA #$3F                        A:00 X:33       |       D34F  A9 3F     LDA #$3F                        A:00 X:33
D351  85 78     STA $78 = 40                    A:3F X:33       |       D351  85 78     STA $78 = 40                    A:3F X:33
D353  20 47 F9  JSR $F947                       A:3F X:33       |       D353  20 47 F9  JSR $F947                       A:3F X:33
F947  B8        CLV                             A:3F X:33       |       F947  B8        CLV                             A:3F X:33
F948  38        SEC                             A:3F X:33       |       F948  38        SEC                             A:3F X:33
F949  A9 40     LDA #$40                        A:3F X:33       |       F949  A9 40     LDA #$40                        A:3F X:33
F94B  60        RTS                             A:40 X:33       |       F94B  60        RTS                             A:40 X:33
D356  E5 78     SBC $78 = 3F                    A:40 X:33       |       D356  E5 78     SBC $78 = 3F                    A:40 X:33
D358  20 4C F9  JSR $F94C                       A:01 X:33       |       D358  20 4C F9  JSR $F94C                       A:01 X:33
F94C  F0 0B     BEQ $F959                       A:01 X:33       |       F94C  F0 0B     BEQ $F959                       A:01 X:33
F94E  30 09     BMI $F959                       A:01 X:33       |       F94E  30 09     BMI $F959                       A:01 X:33
F950  90 07     BCC $F959                       A:01 X:33       |       F950  90 07     BCC $F959                       A:01 X:33
F952  70 05     BVS $F959                       A:01 X:33       |       F952  70 05     BVS $F959                       A:01 X:33
F954  C9 01     CMP #$01                        A:01 X:33       |       F954  C9 01     CMP #$01                        A:01 X:33
F956  D0 01     BNE $F959                       A:01 X:33       |       F956  D0 01     BNE $F959                       A:01 X:33
F958  60        RTS                             A:01 X:33       |       F958  60        RTS                             A:01 X:33
D35B  C8        INY                             A:01 X:33       |       D35B  C8        INY                             A:01 X:33
D35C  A9 41     LDA #$41                        A:01 X:33       |       D35C  A9 41     LDA #$41                        A:01 X:33
D35E  85 78     STA $78 = 3F                    A:41 X:33       |       D35E  85 78     STA $78 = 3F                    A:41 X:33
D360  20 5C F9  JSR $F95C                       A:41 X:33       |       D360  20 5C F9  JSR $F95C                       A:41 X:33
F95C  A9 40     LDA #$40                        A:41 X:33       |       F95C  A9 40     LDA #$40                        A:41 X:33
F95E  38        SEC                             A:40 X:33       |       F95E  38        SEC                             A:40 X:33
F95F  24 01     BIT $01 = FF                    A:40 X:33       |       F95F  24 01     BIT $01 = FF                    A:40 X:33
F961  60        RTS                             A:40 X:33       |       F961  60        RTS                             A:40 X:33
D363  E5 78     SBC $78 = 41                    A:40 X:33       |       D363  E5 78     SBC $78 = 41                    A:40 X:33
D365  20 62 F9  JSR $F962                       A:FF X:33       |       D365  20 62 F9  JSR $F962                       A:FF X:33
F962  B0 0B     BCS $F96F                       A:FF X:33       |       F962  B0 0B     BCS $F96F                       A:FF X:33
F964  F0 09     BEQ $F96F                       A:FF X:33       |       F964  F0 09     BEQ $F96F                       A:FF X:33
F966  10 07     BPL $F96F                       A:FF X:33       |       F966  10 07     BPL $F96F                       A:FF X:33
F968  70 05     BVS $F96F                       A:FF X:33       |       F968  70 05     BVS $F96F                       A:FF X:33
F96A  C9 FF     CMP #$FF                        A:FF X:33       |       F96A  C9 FF     CMP #$FF                        A:FF X:33
F96C  D0 01     BNE $F96F                       A:FF X:33       |       F96C  D0 01     BNE $F96F                       A:FF X:33
F96E  60        RTS                             A:FF X:33       |       F96E  60        RTS                             A:FF X:33
D368  C8        INY                             A:FF X:33       |       D368  C8        INY                             A:FF X:33
D369  A9 00     LDA #$00                        A:FF X:33       |       D369  A9 00     LDA #$00                        A:FF X:33
D36B  85 78     STA $78 = 41                    A:00 X:33       |       D36B  85 78     STA $78 = 41                    A:00 X:33
D36D  20 72 F9  JSR $F972                       A:00 X:33       |       D36D  20 72 F9  JSR $F972                       A:00 X:33
F972  18        CLC                             A:00 X:33       |       F972  18        CLC                             A:00 X:33
F973  A9 80     LDA #$80                        A:00 X:33       |       F973  A9 80     LDA #$80                        A:00 X:33
F975  60        RTS                             A:80 X:33       |       F975  60        RTS                             A:80 X:33
D370  E5 78     SBC $78 = 00                    A:80 X:33       |       D370  E5 78     SBC $78 = 00                    A:80 X:33
D372  20 76 F9  JSR $F976                       A:7F X:33       |       D372  20 76 F9  JSR $F976                       A:7F X:33
F976  90 05     BCC $F97D                       A:7F X:33       |       F976  90 05     BCC $F97D                       A:7F X:33
F978  C9 7F     CMP #$7F                        A:7F X:33       |       F978  C9 7F     CMP #$7F                        A:7F X:33
F97A  D0 01     BNE $F97D                       A:7F X:33       |       F97A  D0 01     BNE $F97D                       A:7F X:33
F97C  60        RTS                             A:7F X:33       |       F97C  60        RTS                             A:7F X:33
D375  C8        INY                             A:7F X:33       |       D375  C8        INY                             A:7F X:33
D376  A9 7F     LDA #$7F                        A:7F X:33       |       D376  A9 7F     LDA #$7F                        A:7F X:33
D378  85 78     STA $78 = 00                    A:7F X:33       |       D378  85 78     STA $78 = 00                    A:7F X:33
D37A  20 80 F9  JSR $F980                       A:7F X:33       |       D37A  20 80 F9  JSR $F980                       A:7F X:33
F980  38        SEC                             A:7F X:33       |       F980  38        SEC                             A:7F X:33
F981  A9 81     LDA #$81                        A:7F X:33       |       F981  A9 81     LDA #$81                        A:7F X:33
F983  60        RTS                             A:81 X:33       |       F983  60        RTS                             A:81 X:33
D37D  E5 78     SBC $78 = 7F                    A:81 X:33       |       D37D  E5 78     SBC $78 = 7F                    A:81 X:33
D37F  20 84 F9  JSR $F984                       A:02 X:33       |       D37F  20 84 F9  JSR $F984                       A:02 X:33
F984  50 07     BVC $F98D                       A:02 X:33       |       F984  50 07     BVC $F98D                       A:02 X:33
F986  90 05     BCC $F98D                       A:02 X:33       |       F986  90 05     BCC $F98D                       A:02 X:33
F988  C9 02     CMP #$02                        A:02 X:33       |       F988  C9 02     CMP #$02                        A:02 X:33
F98A  D0 01     BNE $F98D                       A:02 X:33       |       F98A  D0 01     BNE $F98D                       A:02 X:33
F98C  60        RTS                             A:02 X:33       |       F98C  60        RTS                             A:02 X:33
D382  C8        INY                             A:02 X:33       |       D382  C8        INY                             A:02 X:33
D383  A9 40     LDA #$40                        A:02 X:33       |       D383  A9 40     LDA #$40                        A:02 X:33
D385  85 78     STA $78 = 7F                    A:40 X:33       |       D385  85 78     STA $78 = 7F                    A:40 X:33
D387  20 89 F8  JSR $F889                       A:40 X:33       |       D387  20 89 F8  JSR $F889                       A:40 X:33
F889  24 01     BIT $01 = FF                    A:40 X:33       |       F889  24 01     BIT $01 = FF                    A:40 X:33
F88B  A9 40     LDA #$40                        A:40 X:33       |       F88B  A9 40     LDA #$40                        A:40 X:33
F88D  60        RTS                             A:40 X:33       |       F88D  60        RTS                             A:40 X:33
D38A  AA        TAX                             A:40 X:33       |       D38A  AA        TAX                             A:40 X:33
D38B  E4 78     CPX $78 = 40                    A:40 X:40       |       D38B  E4 78     CPX $78 = 40                    A:40 X:40
D38D  20 8E F8  JSR $F88E                       A:40 X:40       |       D38D  20 8E F8  JSR $F88E                       A:40 X:40
F88E  30 07     BMI $F897                       A:40 X:40       |       F88E  30 07     BMI $F897                       A:40 X:40
F890  90 05     BCC $F897                       A:40 X:40       |       F890  90 05     BCC $F897                       A:40 X:40
F892  D0 03     BNE $F897                       A:40 X:40       |       F892  D0 03     BNE $F897                       A:40 X:40
F894  50 01     BVC $F897                       A:40 X:40       |       F894  50 01     BVC $F897                       A:40 X:40
F896  60        RTS                             A:40 X:40       |       F896  60        RTS                             A:40 X:40
D390  C8        INY                             A:40 X:40       |       D390  C8        INY                             A:40 X:40
D391  A9 3F     LDA #$3F                        A:40 X:40       |       D391  A9 3F     LDA #$3F                        A:40 X:40
D393  85 78     STA $78 = 40                    A:3F X:40       |       D393  85 78     STA $78 = 40                    A:3F X:40
D395  20 9A F8  JSR $F89A                       A:3F X:40       |       D395  20 9A F8  JSR $F89A                       A:3F X:40
F89A  B8        CLV                             A:3F X:40       |       F89A  B8        CLV                             A:3F X:40
F89B  60        RTS                             A:3F X:40       |       F89B  60        RTS                             A:3F X:40
D398  E4 78     CPX $78 = 3F                    A:3F X:40       |       D398  E4 78     CPX $78 = 3F                    A:3F X:40
D39A  20 9C F8  JSR $F89C                       A:3F X:40       |       D39A  20 9C F8  JSR $F89C                       A:3F X:40
F89C  F0 07     BEQ $F8A5                       A:3F X:40       |       F89C  F0 07     BEQ $F8A5                       A:3F X:40
F89E  30 05     BMI $F8A5                       A:3F X:40       |       F89E  30 05     BMI $F8A5                       A:3F X:40
F8A0  90 03     BCC $F8A5                       A:3F X:40       |       F8A0  90 03     BCC $F8A5                       A:3F X:40
F8A2  70 01     BVS $F8A5                       A:3F X:40       |       F8A2  70 01     BVS $F8A5                       A:3F X:40
F8A4  60        RTS                             A:3F X:40       |       F8A4  60        RTS                             A:3F X:40
D39D  C8        INY                             A:3F X:40       |       D39D  C8        INY                             A:3F X:40
D39E  A9 41     LDA #$41                        A:3F X:40       |       D39E  A9 41     LDA #$41                        A:3F X:40
D3A0  85 78     STA $78 = 3F                    A:41 X:40       |       D3A0  85 78     STA $78 = 3F                    A:41 X:40
D3A2  E4 78     CPX $78 = 41                    A:41 X:40       |       D3A2  E4 78     CPX $78 = 41                    A:41 X:40
D3A4  20 A8 F8  JSR $F8A8                       A:41 X:40       |       D3A4  20 A8 F8  JSR $F8A8                       A:41 X:40
F8A8  F0 05     BEQ $F8AF                       A:41 X:40       |       F8A8  F0 05     BEQ $F8AF                       A:41 X:40
F8AA  10 03     BPL $F8AF                       A:41 X:40       |       F8AA  10 03     BPL $F8AF                       A:41 X:40
F8AC  10 01     BPL $F8AF                       A:41 X:40       |       F8AC  10 01     BPL $F8AF                       A:41 X:40
F8AE  60        RTS                             A:41 X:40       |       F8AE  60        RTS                             A:41 X:40
D3A7  C8        INY                             A:41 X:40       |       D3A7  C8        INY                             A:41 X:40
D3A8  A9 00     LDA #$00                        A:41 X:40       |       D3A8  A9 00     LDA #$00                        A:41 X:40
D3AA  85 78     STA $78 = 41                    A:00 X:40       |       D3AA  85 78     STA $78 = 41                    A:00 X:40
D3AC  20 B2 F8  JSR $F8B2                       A:00 X:40       |       D3AC  20 B2 F8  JSR $F8B2                       A:00 X:40
F8B2  A9 80     LDA #$80                        A:00 X:40       |       F8B2  A9 80     LDA #$80                        A:00 X:40
F8B4  60        RTS                             A:80 X:40       |       F8B4  60        RTS                             A:80 X:40
D3AF  AA        TAX                             A:80 X:40       |       D3AF  AA        TAX                             A:80 X:40
D3B0  E4 78     CPX $78 = 00                    A:80 X:80       |       D3B0  E4 78     CPX $78 = 00                    A:80 X:80
D3B2  20 B5 F8  JSR $F8B5                       A:80 X:80       |       D3B2  20 B5 F8  JSR $F8B5                       A:80 X:80
F8B5  F0 05     BEQ $F8BC                       A:80 X:80       |       F8B5  F0 05     BEQ $F8BC                       A:80 X:80
F8B7  10 03     BPL $F8BC                       A:80 X:80       |       F8B7  10 03     BPL $F8BC                       A:80 X:80
F8B9  90 01     BCC $F8BC                       A:80 X:80       |       F8B9  90 01     BCC $F8BC                       A:80 X:80
F8BB  60        RTS                             A:80 X:80       |       F8BB  60        RTS                             A:80 X:80
D3B5  C8        INY                             A:80 X:80       |       D3B5  C8        INY                             A:80 X:80
D3B6  A9 80     LDA #$80                        A:80 X:80       |       D3B6  A9 80     LDA #$80                        A:80 X:80
D3B8  85 78     STA $78 = 00                    A:80 X:80       |       D3B8  85 78     STA $78 = 00                    A:80 X:80
D3BA  E4 78     CPX $78 = 80                    A:80 X:80       |       D3BA  E4 78     CPX $78 = 80                    A:80 X:80
D3BC  20 BF F8  JSR $F8BF                       A:80 X:80       |       D3BC  20 BF F8  JSR $F8BF                       A:80 X:80
F8BF  D0 05     BNE $F8C6                       A:80 X:80       |       F8BF  D0 05     BNE $F8C6                       A:80 X:80
F8C1  30 03     BMI $F8C6                       A:80 X:80       |       F8C1  30 03     BMI $F8C6                       A:80 X:80
F8C3  90 01     BCC $F8C6                       A:80 X:80       |       F8C3  90 01     BCC $F8C6                       A:80 X:80
F8C5  60        RTS                             A:80 X:80       |       F8C5  60        RTS                             A:80 X:80
D3BF  C8        INY                             A:80 X:80       |       D3BF  C8        INY                             A:80 X:80
D3C0  A9 81     LDA #$81                        A:80 X:80       |       D3C0  A9 81     LDA #$81                        A:80 X:80
D3C2  85 78     STA $78 = 80                    A:81 X:80       |       D3C2  85 78     STA $78 = 80                    A:81 X:80
D3C4  E4 78     CPX $78 = 81                    A:81 X:80       |       D3C4  E4 78     CPX $78 = 81                    A:81 X:80
D3C6  20 C9 F8  JSR $F8C9                       A:81 X:80       |       D3C6  20 C9 F8  JSR $F8C9                       A:81 X:80
F8C9  B0 05     BCS $F8D0                       A:81 X:80       |       F8C9  B0 05     BCS $F8D0                       A:81 X:80
F8CB  F0 03     BEQ $F8D0                       A:81 X:80       |       F8CB  F0 03     BEQ $F8D0                       A:81 X:80
F8CD  10 01     BPL $F8D0                       A:81 X:80       |       F8CD  10 01     BPL $F8D0                       A:81 X:80
F8CF  60        RTS                             A:81 X:80       |       F8CF  60        RTS                             A:81 X:80
D3C9  C8        INY                             A:81 X:80       |       D3C9  C8        INY                             A:81 X:80
D3CA  A9 7F     LDA #$7F                        A:81 X:80       |       D3CA  A9 7F     LDA #$7F                        A:81 X:80
D3CC  85 78     STA $78 = 81                    A:7F X:80       |       D3CC  85 78     STA $78 = 81                    A:7F X:80
D3CE  E4 78     CPX $78 = 7F                    A:7F X:80       |       D3CE  E4 78     CPX $78 = 7F                    A:7F X:80
D3D0  20 D3 F8  JSR $F8D3                       A:7F X:80       |       D3D0  20 D3 F8  JSR $F8D3                       A:7F X:80
F8D3  90 05     BCC $F8DA                       A:7F X:80       |       F8D3  90 05     BCC $F8DA                       A:7F X:80
F8D5  F0 03     BEQ $F8DA                       A:7F X:80       |       F8D5  F0 03     BEQ $F8DA                       A:7F X:80
F8D7  30 01     BMI $F8DA                       A:7F X:80       |       F8D7  30 01     BMI $F8DA                       A:7F X:80
F8D9  60        RTS                             A:7F X:80       |       F8D9  60        RTS                             A:7F X:80
D3D3  C8        INY                             A:7F X:80       |       D3D3  C8        INY                             A:7F X:80
D3D4  98        TYA                             A:7F X:80       |       D3D4  98        TYA                             A:7F X:80
D3D5  AA        TAX                             A:9C X:80       |       D3D5  AA        TAX                             A:9C X:80
D3D6  A9 40     LDA #$40                        A:9C X:9C       |       D3D6  A9 40     LDA #$40                        A:9C X:9C
D3D8  85 78     STA $78 = 7F                    A:40 X:9C       |       D3D8  85 78     STA $78 = 7F                    A:40 X:9C
D3DA  20 DD F8  JSR $F8DD                       A:40 X:9C       |       D3DA  20 DD F8  JSR $F8DD                       A:40 X:9C
F8DD  24 01     BIT $01 = FF                    A:40 X:9C       |       F8DD  24 01     BIT $01 = FF                    A:40 X:9C
F8DF  A0 40     LDY #$40                        A:40 X:9C       |       F8DF  A0 40     LDY #$40                        A:40 X:9C
F8E1  60        RTS                             A:40 X:9C       |       F8E1  60        RTS                             A:40 X:9C
D3DD  C4 78     CPY $78 = 40                    A:40 X:9C       |       D3DD  C4 78     CPY $78 = 40                    A:40 X:9C
D3DF  20 E2 F8  JSR $F8E2                       A:40 X:9C       |       D3DF  20 E2 F8  JSR $F8E2                       A:40 X:9C
F8E2  30 07     BMI $F8EB                       A:40 X:9C       |       F8E2  30 07     BMI $F8EB                       A:40 X:9C
F8E4  90 05     BCC $F8EB                       A:40 X:9C       |       F8E4  90 05     BCC $F8EB                       A:40 X:9C
F8E6  D0 03     BNE $F8EB                       A:40 X:9C       |       F8E6  D0 03     BNE $F8EB                       A:40 X:9C
F8E8  50 01     BVC $F8EB                       A:40 X:9C       |       F8E8  50 01     BVC $F8EB                       A:40 X:9C
F8EA  60        RTS                             A:40 X:9C       |       F8EA  60        RTS                             A:40 X:9C
D3E2  E8        INX                             A:40 X:9C       |       D3E2  E8        INX                             A:40 X:9C
D3E3  A9 3F     LDA #$3F                        A:40 X:9D       |       D3E3  A9 3F     LDA #$3F                        A:40 X:9D
D3E5  85 78     STA $78 = 40                    A:3F X:9D       |       D3E5  85 78     STA $78 = 40                    A:3F X:9D
D3E7  20 EE F8  JSR $F8EE                       A:3F X:9D       |       D3E7  20 EE F8  JSR $F8EE                       A:3F X:9D
F8EE  B8        CLV                             A:3F X:9D       |       F8EE  B8        CLV                             A:3F X:9D
F8EF  60        RTS                             A:3F X:9D       |       F8EF  60        RTS                             A:3F X:9D
D3EA  C4 78     CPY $78 = 3F                    A:3F X:9D       |       D3EA  C4 78     CPY $78 = 3F                    A:3F X:9D
D3EC  20 F0 F8  JSR $F8F0                       A:3F X:9D       |       D3EC  20 F0 F8  JSR $F8F0                       A:3F X:9D
F8F0  F0 07     BEQ $F8F9                       A:3F X:9D       |       F8F0  F0 07     BEQ $F8F9                       A:3F X:9D
F8F2  30 05     BMI $F8F9                       A:3F X:9D       |       F8F2  30 05     BMI $F8F9                       A:3F X:9D
F8F4  90 03     BCC $F8F9                       A:3F X:9D       |       F8F4  90 03     BCC $F8F9                       A:3F X:9D
F8F6  70 01     BVS $F8F9                       A:3F X:9D       |       F8F6  70 01     BVS $F8F9                       A:3F X:9D
F8F8  60        RTS                             A:3F X:9D       |       F8F8  60        RTS                             A:3F X:9D
D3EF  E8        INX                             A:3F X:9D       |       D3EF  E8        INX                             A:3F X:9D
D3F0  A9 41     LDA #$41                        A:3F X:9E       |       D3F0  A9 41     LDA #$41                        A:3F X:9E
D3F2  85 78     STA $78 = 3F                    A:41 X:9E       |       D3F2  85 78     STA $78 = 3F                    A:41 X:9E
D3F4  C4 78     CPY $78 = 41                    A:41 X:9E       |       D3F4  C4 78     CPY $78 = 41                    A:41 X:9E
D3F6  20 FC F8  JSR $F8FC                       A:41 X:9E       |       D3F6  20 FC F8  JSR $F8FC                       A:41 X:9E
F8FC  F0 05     BEQ $F903                       A:41 X:9E       |       F8FC  F0 05     BEQ $F903                       A:41 X:9E
F8FE  10 03     BPL $F903                       A:41 X:9E       |       F8FE  10 03     BPL $F903                       A:41 X:9E
F900  10 01     BPL $F903                       A:41 X:9E       |       F900  10 01     BPL $F903                       A:41 X:9E
F902  60        RTS                             A:41 X:9E       |       F902  60        RTS                             A:41 X:9E
D3F9  E8        INX                             A:41 X:9E       |       D3F9  E8        INX                             A:41 X:9E
D3FA  A9 00     LDA #$00                        A:41 X:9F       |       D3FA  A9 00     LDA #$00                        A:41 X:9F
D3FC  85 78     STA $78 = 41                    A:00 X:9F       |       D3FC  85 78     STA $78 = 41                    A:00 X:9F
D3FE  20 06 F9  JSR $F906                       A:00 X:9F       |       D3FE  20 06 F9  JSR $F906                       A:00 X:9F
F906  A0 80     LDY #$80                        A:00 X:9F       |       F906  A0 80     LDY #$80                        A:00 X:9F
F908  60        RTS                             A:00 X:9F       |       F908  60        RTS                             A:00 X:9F
D401  C4 78     CPY $78 = 00                    A:00 X:9F       |       D401  C4 78     CPY $78 = 00                    A:00 X:9F
D403  20 09 F9  JSR $F909                       A:00 X:9F       |       D403  20 09 F9  JSR $F909                       A:00 X:9F
F909  F0 05     BEQ $F910                       A:00 X:9F       |       F909  F0 05     BEQ $F910                       A:00 X:9F
F90B  10 03     BPL $F910                       A:00 X:9F       |       F90B  10 03     BPL $F910                       A:00 X:9F
F90D  90 01     BCC $F910                       A:00 X:9F       |       F90D  90 01     BCC $F910                       A:00 X:9F
F90F  60        RTS                             A:00 X:9F       |       F90F  60        RTS                             A:00 X:9F
D406  E8        INX                             A:00 X:9F       |       D406  E8        INX                             A:00 X:9F
D407  A9 80     LDA #$80                        A:00 X:A0       |       D407  A9 80     LDA #$80                        A:00 X:A0
D409  85 78     STA $78 = 00                    A:80 X:A0       |       D409  85 78     STA $78 = 00                    A:80 X:A0
D40B  C4 78     CPY $78 = 80                    A:80 X:A0       |       D40B  C4 78     CPY $78 = 80                    A:80 X:A0
D40D  20 13 F9  JSR $F913                       A:80 X:A0       |       D40D  20 13 F9  JSR $F913                       A:80 X:A0
F913  D0 05     BNE $F91A                       A:80 X:A0       |       F913  D0 05     BNE $F91A                       A:80 X:A0
F915  30 03     BMI $F91A                       A:80 X:A0       |       F915  30 03     BMI $F91A                       A:80 X:A0
F917  90 01     BCC $F91A                       A:80 X:A0       |       F917  90 01     BCC $F91A                       A:80 X:A0
F919  60        RTS                             A:80 X:A0       |       F919  60        RTS                             A:80 X:A0
D410  E8        INX                             A:80 X:A0       |       D410  E8        INX                             A:80 X:A0
D411  A9 81     LDA #$81                        A:80 X:A1       |       D411  A9 81     LDA #$81                        A:80 X:A1
D413  85 78     STA $78 = 80                    A:81 X:A1       |       D413  85 78     STA $78 = 80                    A:81 X:A1
D415  C4 78     CPY $78 = 81                    A:81 X:A1       |       D415  C4 78     CPY $78 = 81                    A:81 X:A1
D417  20 1D F9  JSR $F91D                       A:81 X:A1       |       D417  20 1D F9  JSR $F91D                       A:81 X:A1
F91D  B0 05     BCS $F924                       A:81 X:A1       |       F91D  B0 05     BCS $F924                       A:81 X:A1
F91F  F0 03     BEQ $F924                       A:81 X:A1       |       F91F  F0 03     BEQ $F924                       A:81 X:A1
F921  10 01     BPL $F924                       A:81 X:A1       |       F921  10 01     BPL $F924                       A:81 X:A1
F923  60        RTS                             A:81 X:A1       |       F923  60        RTS                             A:81 X:A1
D41A  E8        INX                             A:81 X:A1       |       D41A  E8        INX                             A:81 X:A1
D41B  A9 7F     LDA #$7F                        A:81 X:A2       |       D41B  A9 7F     LDA #$7F                        A:81 X:A2
D41D  85 78     STA $78 = 81                    A:7F X:A2       |       D41D  85 78     STA $78 = 81                    A:7F X:A2
D41F  C4 78     CPY $78 = 7F                    A:7F X:A2       |       D41F  C4 78     CPY $78 = 7F                    A:7F X:A2
D421  20 27 F9  JSR $F927                       A:7F X:A2       |       D421  20 27 F9  JSR $F927                       A:7F X:A2
F927  90 05     BCC $F92E                       A:7F X:A2       |       F927  90 05     BCC $F92E                       A:7F X:A2
F929  F0 03     BEQ $F92E                       A:7F X:A2       |       F929  F0 03     BEQ $F92E                       A:7F X:A2
F92B  30 01     BMI $F92E                       A:7F X:A2       |       F92B  30 01     BMI $F92E                       A:7F X:A2
F92D  60        RTS                             A:7F X:A2       |       F92D  60        RTS                             A:7F X:A2
D424  E8        INX                             A:7F X:A2       |       D424  E8        INX                             A:7F X:A2
D425  8A        TXA                             A:7F X:A3       |       D425  8A        TXA                             A:7F X:A3
D426  A8        TAY                             A:A3 X:A3       |       D426  A8        TAY                             A:A3 X:A3
D427  20 90 F9  JSR $F990                       A:A3 X:A3       |       D427  20 90 F9  JSR $F990                       A:A3 X:A3
F990  A2 55     LDX #$55                        A:A3 X:A3       |       F990  A2 55     LDX #$55                        A:A3 X:A3
F992  A9 FF     LDA #$FF                        A:A3 X:55       |       F992  A9 FF     LDA #$FF                        A:A3 X:55
F994  85 01     STA $01 = FF                    A:FF X:55       |       F994  85 01     STA $01 = FF                    A:FF X:55
F996  EA        NOP                             A:FF X:55       |       F996  EA        NOP                             A:FF X:55
F997  24 01     BIT $01 = FF                    A:FF X:55       |       F997  24 01     BIT $01 = FF                    A:FF X:55
F999  38        SEC                             A:FF X:55       |       F999  38        SEC                             A:FF X:55
F99A  A9 01     LDA #$01                        A:FF X:55       |       F99A  A9 01     LDA #$01                        A:FF X:55
F99C  60        RTS                             A:01 X:55       |       F99C  60        RTS                             A:01 X:55
D42A  85 78     STA $78 = 7F                    A:01 X:55       |       D42A  85 78     STA $78 = 7F                    A:01 X:55
D42C  46 78     LSR $78 = 01                    A:01 X:55       |       D42C  46 78     LSR $78 = 01                    A:01 X:55
D42E  A5 78     LDA $78 = 00                    A:01 X:55       |       D42E  A5 78     LDA $78 = 00                    A:01 X:55
D430  20 9D F9  JSR $F99D                       A:00 X:55       |       D430  20 9D F9  JSR $F99D                       A:00 X:55
F99D  90 1B     BCC $F9BA                       A:00 X:55       |       F99D  90 1B     BCC $F9BA                       A:00 X:55
F99F  D0 19     BNE $F9BA                       A:00 X:55       |       F99F  D0 19     BNE $F9BA                       A:00 X:55
F9A1  30 17     BMI $F9BA                       A:00 X:55       |       F9A1  30 17     BMI $F9BA                       A:00 X:55
F9A3  50 15     BVC $F9BA                       A:00 X:55       |       F9A3  50 15     BVC $F9BA                       A:00 X:55
F9A5  C9 00     CMP #$00                        A:00 X:55       |       F9A5  C9 00     CMP #$00                        A:00 X:55
F9A7  D0 11     BNE $F9BA                       A:00 X:55       |       F9A7  D0 11     BNE $F9BA                       A:00 X:55
F9A9  B8        CLV                             A:00 X:55       |       F9A9  B8        CLV                             A:00 X:55
F9AA  A9 AA     LDA #$AA                        A:00 X:55       |       F9AA  A9 AA     LDA #$AA                        A:00 X:55
F9AC  60        RTS                             A:AA X:55       |       F9AC  60        RTS                             A:AA X:55
D433  C8        INY                             A:AA X:55       |       D433  C8        INY                             A:AA X:55
D434  85 78     STA $78 = 00                    A:AA X:55       |       D434  85 78     STA $78 = 00                    A:AA X:55
D436  46 78     LSR $78 = AA                    A:AA X:55       |       D436  46 78     LSR $78 = AA                    A:AA X:55
D438  A5 78     LDA $78 = 55                    A:AA X:55       |       D438  A5 78     LDA $78 = 55                    A:AA X:55
D43A  20 AD F9  JSR $F9AD                       A:55 X:55       |       D43A  20 AD F9  JSR $F9AD                       A:55 X:55
F9AD  B0 0B     BCS $F9BA                       A:55 X:55       |       F9AD  B0 0B     BCS $F9BA                       A:55 X:55
F9AF  F0 09     BEQ $F9BA                       A:55 X:55       |       F9AF  F0 09     BEQ $F9BA                       A:55 X:55
F9B1  30 07     BMI $F9BA                       A:55 X:55       |       F9B1  30 07     BMI $F9BA                       A:55 X:55
F9B3  70 05     BVS $F9BA                       A:55 X:55       |       F9B3  70 05     BVS $F9BA                       A:55 X:55
F9B5  C9 55     CMP #$55                        A:55 X:55       |       F9B5  C9 55     CMP #$55                        A:55 X:55
F9B7  D0 01     BNE $F9BA                       A:55 X:55       |       F9B7  D0 01     BNE $F9BA                       A:55 X:55
F9B9  60        RTS                             A:55 X:55       |       F9B9  60        RTS                             A:55 X:55
D43D  C8        INY                             A:55 X:55       |       D43D  C8        INY                             A:55 X:55
D43E  20 BD F9  JSR $F9BD                       A:55 X:55       |       D43E  20 BD F9  JSR $F9BD                       A:55 X:55
F9BD  24 01     BIT $01 = FF                    A:55 X:55       |       F9BD  24 01     BIT $01 = FF                    A:55 X:55
F9BF  38        SEC                             A:55 X:55       |       F9BF  38        SEC                             A:55 X:55
F9C0  A9 80     LDA #$80                        A:55 X:55       |       F9C0  A9 80     LDA #$80                        A:55 X:55
F9C2  60        RTS                             A:80 X:55       |       F9C2  60        RTS                             A:80 X:55
D441  85 78     STA $78 = 55                    A:80 X:55       |       D441  85 78     STA $78 = 55                    A:80 X:55
D443  06 78     ASL $78 = 80                    A:80 X:55       |       D443  06 78     ASL $78 = 80                    A:80 X:55
D445  A5 78     LDA $78 = 00                    A:80 X:55       |       D445  A5 78     LDA $78 = 00                    A:80 X:55
D447  20 C3 F9  JSR $F9C3                       A:00 X:55       |       D447  20 C3 F9  JSR $F9C3                       A:00 X:55
F9C3  90 1C     BCC $F9E1                       A:00 X:55       |       F9C3  90 1C     BCC $F9E1                       A:00 X:55
F9C5  D0 1A     BNE $F9E1                       A:00 X:55       |       F9C5  D0 1A     BNE $F9E1                       A:00 X:55
F9C7  30 18     BMI $F9E1                       A:00 X:55       |       F9C7  30 18     BMI $F9E1                       A:00 X:55
F9C9  50 16     BVC $F9E1                       A:00 X:55       |       F9C9  50 16     BVC $F9E1                       A:00 X:55
F9CB  C9 00     CMP #$00                        A:00 X:55       |       F9CB  C9 00     CMP #$00                        A:00 X:55
F9CD  D0 12     BNE $F9E1                       A:00 X:55       |       F9CD  D0 12     BNE $F9E1                       A:00 X:55
F9CF  B8        CLV                             A:00 X:55       |       F9CF  B8        CLV                             A:00 X:55
F9D0  A9 55     LDA #$55                        A:00 X:55       |       F9D0  A9 55     LDA #$55                        A:00 X:55
F9D2  38        SEC                             A:55 X:55       |       F9D2  38        SEC                             A:55 X:55
F9D3  60        RTS                             A:55 X:55       |       F9D3  60        RTS                             A:55 X:55
D44A  C8        INY                             A:55 X:55       |       D44A  C8        INY                             A:55 X:55
D44B  85 78     STA $78 = 00                    A:55 X:55       |       D44B  85 78     STA $78 = 00                    A:55 X:55
D44D  06 78     ASL $78 = 55                    A:55 X:55       |       D44D  06 78     ASL $78 = 55                    A:55 X:55
D44F  A5 78     LDA $78 = AA                    A:55 X:55       |       D44F  A5 78     LDA $78 = AA                    A:55 X:55
D451  20 D4 F9  JSR $F9D4                       A:AA X:55       |       D451  20 D4 F9  JSR $F9D4                       A:AA X:55
F9D4  B0 0B     BCS $F9E1                       A:AA X:55       |       F9D4  B0 0B     BCS $F9E1                       A:AA X:55
F9D6  F0 09     BEQ $F9E1                       A:AA X:55       |       F9D6  F0 09     BEQ $F9E1                       A:AA X:55
F9D8  10 07     BPL $F9E1                       A:AA X:55       |       F9D8  10 07     BPL $F9E1                       A:AA X:55
F9DA  70 05     BVS $F9E1                       A:AA X:55       |       F9DA  70 05     BVS $F9E1                       A:AA X:55
F9DC  C9 AA     CMP #$AA                        A:AA X:55       |       F9DC  C9 AA     CMP #$AA                        A:AA X:55
F9DE  D0 01     BNE $F9E1                       A:AA X:55       |       F9DE  D0 01     BNE $F9E1                       A:AA X:55
F9E0  60        RTS                             A:AA X:55       |       F9E0  60        RTS                             A:AA X:55
D454  C8        INY                             A:AA X:55       |       D454  C8        INY                             A:AA X:55
D455  20 E4 F9  JSR $F9E4                       A:AA X:55       |       D455  20 E4 F9  JSR $F9E4                       A:AA X:55
F9E4  24 01     BIT $01 = FF                    A:AA X:55       |       F9E4  24 01     BIT $01 = FF                    A:AA X:55
F9E6  38        SEC                             A:AA X:55       |       F9E6  38        SEC                             A:AA X:55
F9E7  A9 01     LDA #$01                        A:AA X:55       |       F9E7  A9 01     LDA #$01                        A:AA X:55
F9E9  60        RTS                             A:01 X:55       |       F9E9  60        RTS                             A:01 X:55
D458  85 78     STA $78 = AA                    A:01 X:55       |       D458  85 78     STA $78 = AA                    A:01 X:55
D45A  66 78     ROR $78 = 01                    A:01 X:55       |       D45A  66 78     ROR $78 = 01                    A:01 X:55
D45C  A5 78     LDA $78 = 80                    A:01 X:55       |       D45C  A5 78     LDA $78 = 80                    A:01 X:55
D45E  20 EA F9  JSR $F9EA                       A:80 X:55       |       D45E  20 EA F9  JSR $F9EA                       A:80 X:55
F9EA  90 1C     BCC $FA08                       A:80 X:55       |       F9EA  90 1C     BCC $FA08                       A:80 X:55
F9EC  F0 1A     BEQ $FA08                       A:80 X:55       |       F9EC  F0 1A     BEQ $FA08                       A:80 X:55
F9EE  10 18     BPL $FA08                       A:80 X:55       |       F9EE  10 18     BPL $FA08                       A:80 X:55
F9F0  50 16     BVC $FA08                       A:80 X:55       |       F9F0  50 16     BVC $FA08                       A:80 X:55
F9F2  C9 80     CMP #$80                        A:80 X:55       |       F9F2  C9 80     CMP #$80                        A:80 X:55
F9F4  D0 12     BNE $FA08                       A:80 X:55       |       F9F4  D0 12     BNE $FA08                       A:80 X:55
F9F6  B8        CLV                             A:80 X:55       |       F9F6  B8        CLV                             A:80 X:55
F9F7  18        CLC                             A:80 X:55       |       F9F7  18        CLC                             A:80 X:55
F9F8  A9 55     LDA #$55                        A:80 X:55       |       F9F8  A9 55     LDA #$55                        A:80 X:55
F9FA  60        RTS                             A:55 X:55       |       F9FA  60        RTS                             A:55 X:55
D461  C8        INY                             A:55 X:55       |       D461  C8        INY                             A:55 X:55
D462  85 78     STA $78 = 80                    A:55 X:55       |       D462  85 78     STA $78 = 80                    A:55 X:55
D464  66 78     ROR $78 = 55                    A:55 X:55       |       D464  66 78     ROR $78 = 55                    A:55 X:55
D466  A5 78     LDA $78 = 2A                    A:55 X:55       |       D466  A5 78     LDA $78 = 2A                    A:55 X:55
D468  20 FB F9  JSR $F9FB                       A:2A X:55       |       D468  20 FB F9  JSR $F9FB                       A:2A X:55
F9FB  90 0B     BCC $FA08                       A:2A X:55       |       F9FB  90 0B     BCC $FA08                       A:2A X:55
F9FD  F0 09     BEQ $FA08                       A:2A X:55       |       F9FD  F0 09     BEQ $FA08                       A:2A X:55
F9FF  30 07     BMI $FA08                       A:2A X:55       |       F9FF  30 07     BMI $FA08                       A:2A X:55
FA01  70 05     BVS $FA08                       A:2A X:55       |       FA01  70 05     BVS $FA08                       A:2A X:55
FA03  C9 2A     CMP #$2A                        A:2A X:55       |       FA03  C9 2A     CMP #$2A                        A:2A X:55
FA05  D0 01     BNE $FA08                       A:2A X:55       |       FA05  D0 01     BNE $FA08                       A:2A X:55
FA07  60        RTS                             A:2A X:55       |       FA07  60        RTS                             A:2A X:55
D46B  C8        INY                             A:2A X:55       |       D46B  C8        INY                             A:2A X:55
D46C  20 0A FA  JSR $FA0A                       A:2A X:55       |       D46C  20 0A FA  JSR $FA0A                       A:2A X:55
FA0A  24 01     BIT $01 = FF                    A:2A X:55       |       FA0A  24 01     BIT $01 = FF                    A:2A X:55
FA0C  38        SEC                             A:2A X:55       |       FA0C  38        SEC                             A:2A X:55
FA0D  A9 80     LDA #$80                        A:2A X:55       |       FA0D  A9 80     LDA #$80                        A:2A X:55
FA0F  60        RTS                             A:80 X:55       |       FA0F  60        RTS                             A:80 X:55
D46F  85 78     STA $78 = 2A                    A:80 X:55       |       D46F  85 78     STA $78 = 2A                    A:80 X:55
D471  26 78     ROL $78 = 80                    A:80 X:55       |       D471  26 78     ROL $78 = 80                    A:80 X:55
D473  A5 78     LDA $78 = 01                    A:80 X:55       |       D473  A5 78     LDA $78 = 01                    A:80 X:55
D475  20 10 FA  JSR $FA10                       A:01 X:55       |       D475  20 10 FA  JSR $FA10                       A:01 X:55
FA10  90 1C     BCC $FA2E                       A:01 X:55       |       FA10  90 1C     BCC $FA2E                       A:01 X:55
FA12  F0 1A     BEQ $FA2E                       A:01 X:55       |       FA12  F0 1A     BEQ $FA2E                       A:01 X:55
FA14  30 18     BMI $FA2E                       A:01 X:55       |       FA14  30 18     BMI $FA2E                       A:01 X:55
FA16  50 16     BVC $FA2E                       A:01 X:55       |       FA16  50 16     BVC $FA2E                       A:01 X:55
FA18  C9 01     CMP #$01                        A:01 X:55       |       FA18  C9 01     CMP #$01                        A:01 X:55
FA1A  D0 12     BNE $FA2E                       A:01 X:55       |       FA1A  D0 12     BNE $FA2E                       A:01 X:55
FA1C  B8        CLV                             A:01 X:55       |       FA1C  B8        CLV                             A:01 X:55
FA1D  18        CLC                             A:01 X:55       |       FA1D  18        CLC                             A:01 X:55
FA1E  A9 55     LDA #$55                        A:01 X:55       |       FA1E  A9 55     LDA #$55                        A:01 X:55
FA20  60        RTS                             A:55 X:55       |       FA20  60        RTS                             A:55 X:55
D478  C8        INY                             A:55 X:55       |       D478  C8        INY                             A:55 X:55
D479  85 78     STA $78 = 01                    A:55 X:55       |       D479  85 78     STA $78 = 01                    A:55 X:55
D47B  26 78     ROL $78 = 55                    A:55 X:55       |       D47B  26 78     ROL $78 = 55                    A:55 X:55
D47D  A5 78     LDA $78 = AA                    A:55 X:55       |       D47D  A5 78     LDA $78 = AA                    A:55 X:55
D47F  20 21 FA  JSR $FA21                       A:AA X:55       |       D47F  20 21 FA  JSR $FA21                       A:AA X:55
FA21  B0 0B     BCS $FA2E                       A:AA X:55       |       FA21  B0 0B     BCS $FA2E                       A:AA X:55
FA23  F0 09     BEQ $FA2E                       A:AA X:55       |       FA23  F0 09     BEQ $FA2E                       A:AA X:55
FA25  10 07     BPL $FA2E                       A:AA X:55       |       FA25  10 07     BPL $FA2E                       A:AA X:55
FA27  70 05     BVS $FA2E                       A:AA X:55       |       FA27  70 05     BVS $FA2E                       A:AA X:55
FA29  C9 AA     CMP #$AA                        A:AA X:55       |       FA29  C9 AA     CMP #$AA                        A:AA X:55
FA2B  D0 01     BNE $FA2E                       A:AA X:55       |       FA2B  D0 01     BNE $FA2E                       A:AA X:55
FA2D  60        RTS                             A:AA X:55       |       FA2D  60        RTS                             A:AA X:55
D482  A9 FF     LDA #$FF                        A:AA X:55       |       D482  A9 FF     LDA #$FF                        A:AA X:55
D484  85 78     STA $78 = AA                    A:FF X:55       |       D484  85 78     STA $78 = AA                    A:FF X:55
D486  85 01     STA $01 = FF                    A:FF X:55       |       D486  85 01     STA $01 = FF                    A:FF X:55
D488  24 01     BIT $01 = FF                    A:FF X:55       |       D488  24 01     BIT $01 = FF                    A:FF X:55
D48A  38        SEC                             A:FF X:55       |       D48A  38        SEC                             A:FF X:55
D48B  E6 78     INC $78 = FF                    A:FF X:55       |       D48B  E6 78     INC $78 = FF                    A:FF X:55
D48D  D0 0C     BNE $D49B                       A:FF X:55       |       D48D  D0 0C     BNE $D49B                       A:FF X:55
D48F  30 0A     BMI $D49B                       A:FF X:55       |       D48F  30 0A     BMI $D49B                       A:FF X:55
D491  50 08     BVC $D49B                       A:FF X:55       |       D491  50 08     BVC $D49B                       A:FF X:55
D493  90 06     BCC $D49B                       A:FF X:55       |       D493  90 06     BCC $D49B                       A:FF X:55
D495  A5 78     LDA $78 = 00                    A:FF X:55       |       D495  A5 78     LDA $78 = 00                    A:FF X:55
D497  C9 00     CMP #$00                        A:00 X:55       |       D497  C9 00     CMP #$00                        A:00 X:55
D499  F0 04     BEQ $D49F                       A:00 X:55       |       D499  F0 04     BEQ $D49F                       A:00 X:55
D49F  A9 7F     LDA #$7F                        A:00 X:55       |       D49F  A9 7F     LDA #$7F                        A:00 X:55
D4A1  85 78     STA $78 = 00                    A:7F X:55       |       D4A1  85 78     STA $78 = 00                    A:7F X:55
D4A3  B8        CLV                             A:7F X:55       |       D4A3  B8        CLV                             A:7F X:55
D4A4  18        CLC                             A:7F X:55       |       D4A4  18        CLC                             A:7F X:55
D4A5  E6 78     INC $78 = 7F                    A:7F X:55       |       D4A5  E6 78     INC $78 = 7F                    A:7F X:55
D4A7  F0 0C     BEQ $D4B5                       A:7F X:55       |       D4A7  F0 0C     BEQ $D4B5                       A:7F X:55
D4A9  10 0A     BPL $D4B5                       A:7F X:55       |       D4A9  10 0A     BPL $D4B5                       A:7F X:55
D4AB  70 08     BVS $D4B5                       A:7F X:55       |       D4AB  70 08     BVS $D4B5                       A:7F X:55
D4AD  B0 06     BCS $D4B5                       A:7F X:55       |       D4AD  B0 06     BCS $D4B5                       A:7F X:55
D4AF  A5 78     LDA $78 = 80                    A:7F X:55       |       D4AF  A5 78     LDA $78 = 80                    A:7F X:55
D4B1  C9 80     CMP #$80                        A:80 X:55       |       D4B1  C9 80     CMP #$80                        A:80 X:55
D4B3  F0 04     BEQ $D4B9                       A:80 X:55       |       D4B3  F0 04     BEQ $D4B9                       A:80 X:55
D4B9  A9 00     LDA #$00                        A:80 X:55       |       D4B9  A9 00     LDA #$00                        A:80 X:55
D4BB  85 78     STA $78 = 80                    A:00 X:55       |       D4BB  85 78     STA $78 = 80                    A:00 X:55
D4BD  24 01     BIT $01 = FF                    A:00 X:55       |       D4BD  24 01     BIT $01 = FF                    A:00 X:55
D4BF  38        SEC                             A:00 X:55       |       D4BF  38        SEC                             A:00 X:55
D4C0  C6 78     DEC $78 = 00                    A:00 X:55       |       D4C0  C6 78     DEC $78 = 00                    A:00 X:55
D4C2  F0 0C     BEQ $D4D0                       A:00 X:55       |       D4C2  F0 0C     BEQ $D4D0                       A:00 X:55
D4C4  10 0A     BPL $D4D0                       A:00 X:55       |       D4C4  10 0A     BPL $D4D0                       A:00 X:55
D4C6  50 08     BVC $D4D0                       A:00 X:55       |       D4C6  50 08     BVC $D4D0                       A:00 X:55
D4C8  90 06     BCC $D4D0                       A:00 X:55       |       D4C8  90 06     BCC $D4D0                       A:00 X:55
D4CA  A5 78     LDA $78 = FF                    A:00 X:55       |       D4CA  A5 78     LDA $78 = FF                    A:00 X:55
D4CC  C9 FF     CMP #$FF                        A:FF X:55       |       D4CC  C9 FF     CMP #$FF                        A:FF X:55
D4CE  F0 04     BEQ $D4D4                       A:FF X:55       |       D4CE  F0 04     BEQ $D4D4                       A:FF X:55
D4D4  A9 80     LDA #$80                        A:FF X:55       |       D4D4  A9 80     LDA #$80                        A:FF X:55
D4D6  85 78     STA $78 = FF                    A:80 X:55       |       D4D6  85 78     STA $78 = FF                    A:80 X:55
D4D8  B8        CLV                             A:80 X:55       |       D4D8  B8        CLV                             A:80 X:55
D4D9  18        CLC                             A:80 X:55       |       D4D9  18        CLC                             A:80 X:55
D4DA  C6 78     DEC $78 = 80                    A:80 X:55       |       D4DA  C6 78     DEC $78 = 80                    A:80 X:55
D4DC  F0 0C     BEQ $D4EA                       A:80 X:55       |       D4DC  F0 0C     BEQ $D4EA                       A:80 X:55
D4DE  30 0A     BMI $D4EA                       A:80 X:55       |       D4DE  30 0A     BMI $D4EA                       A:80 X:55
D4E0  70 08     BVS $D4EA                       A:80 X:55       |       D4E0  70 08     BVS $D4EA                       A:80 X:55
D4E2  B0 06     BCS $D4EA                       A:80 X:55       |       D4E2  B0 06     BCS $D4EA                       A:80 X:55
D4E4  A5 78     LDA $78 = 7F                    A:80 X:55       |       D4E4  A5 78     LDA $78 = 7F                    A:80 X:55
D4E6  C9 7F     CMP #$7F                        A:7F X:55       |       D4E6  C9 7F     CMP #$7F                        A:7F X:55
D4E8  F0 04     BEQ $D4EE                       A:7F X:55       |       D4E8  F0 04     BEQ $D4EE                       A:7F X:55
D4EE  A9 01     LDA #$01                        A:7F X:55       |       D4EE  A9 01     LDA #$01                        A:7F X:55
D4F0  85 78     STA $78 = 7F                    A:01 X:55       |       D4F0  85 78     STA $78 = 7F                    A:01 X:55
D4F2  C6 78     DEC $78 = 01                    A:01 X:55       |       D4F2  C6 78     DEC $78 = 01                    A:01 X:55
D4F4  F0 04     BEQ $D4FA                       A:01 X:55       |       D4F4  F0 04     BEQ $D4FA                       A:01 X:55
D4FA  60        RTS                             A:01 X:55       |       D4FA  60        RTS                             A:01 X:55
C615  20 FB D4  JSR $D4FB                       A:01 X:55       |       C615  20 FB D4  JSR $D4FB                       A:01 X:55
D4FB  A9 55     LDA #$55                        A:01 X:55       |       D4FB  A9 55     LDA #$55                        A:01 X:55
D4FD  8D 78 06  STA $0678 = 00                  A:55 X:55       |       D4FD  8D 78 06  STA $0678 = 00                  A:55 X:55
D500  A9 FF     LDA #$FF                        A:55 X:55       |       D500  A9 FF     LDA #$FF                        A:55 X:55
D502  85 01     STA $01 = FF                    A:FF X:55       |       D502  85 01     STA $01 = FF                    A:FF X:55
D504  24 01     BIT $01 = FF                    A:FF X:55       |       D504  24 01     BIT $01 = FF                    A:FF X:55
D506  A0 11     LDY #$11                        A:FF X:55       |       D506  A0 11     LDY #$11                        A:FF X:55
D508  A2 23     LDX #$23                        A:FF X:55       |       D508  A2 23     LDX #$23                        A:FF X:55
D50A  A9 00     LDA #$00                        A:FF X:23       |       D50A  A9 00     LDA #$00                        A:FF X:23
D50C  AD 78 06  LDA $0678 = 55                  A:00 X:23       |       D50C  AD 78 06  LDA $0678 = 55                  A:00 X:23
D50F  F0 10     BEQ $D521                       A:55 X:23       |       D50F  F0 10     BEQ $D521                       A:55 X:23
D511  30 0E     BMI $D521                       A:55 X:23       |       D511  30 0E     BMI $D521                       A:55 X:23
D513  C9 55     CMP #$55                        A:55 X:23       |       D513  C9 55     CMP #$55                        A:55 X:23
D515  D0 0A     BNE $D521                       A:55 X:23       |       D515  D0 0A     BNE $D521                       A:55 X:23
D517  C0 11     CPY #$11                        A:55 X:23       |       D517  C0 11     CPY #$11                        A:55 X:23
D519  D0 06     BNE $D521                       A:55 X:23       |       D519  D0 06     BNE $D521                       A:55 X:23
D51B  E0 23     CPX #$23                        A:55 X:23       |       D51B  E0 23     CPX #$23                        A:55 X:23
D51D  50 02     BVC $D521                       A:55 X:23       |       D51D  50 02     BVC $D521                       A:55 X:23
D51F  F0 04     BEQ $D525                       A:55 X:23       |       D51F  F0 04     BEQ $D525                       A:55 X:23
D525  A9 46     LDA #$46                        A:55 X:23       |       D525  A9 46     LDA #$46                        A:55 X:23
D527  24 01     BIT $01 = FF                    A:46 X:23       |       D527  24 01     BIT $01 = FF                    A:46 X:23
D529  8D 78 06  STA $0678 = 55                  A:46 X:23       |       D529  8D 78 06  STA $0678 = 55                  A:46 X:23
D52C  F0 0B     BEQ $D539                       A:46 X:23       |       D52C  F0 0B     BEQ $D539                       A:46 X:23
D52E  10 09     BPL $D539                       A:46 X:23       |       D52E  10 09     BPL $D539                       A:46 X:23
D530  50 07     BVC $D539                       A:46 X:23       |       D530  50 07     BVC $D539                       A:46 X:23
D532  AD 78 06  LDA $0678 = 46                  A:46 X:23       |       D532  AD 78 06  LDA $0678 = 46                  A:46 X:23
D535  C9 46     CMP #$46                        A:46 X:23       |       D535  C9 46     CMP #$46                        A:46 X:23
D537  F0 04     BEQ $D53D                       A:46 X:23       |       D537  F0 04     BEQ $D53D                       A:46 X:23
D53D  A9 55     LDA #$55                        A:46 X:23       |       D53D  A9 55     LDA #$55                        A:46 X:23
D53F  8D 78 06  STA $0678 = 46                  A:55 X:23       |       D53F  8D 78 06  STA $0678 = 46                  A:55 X:23
D542  24 01     BIT $01 = FF                    A:55 X:23       |       D542  24 01     BIT $01 = FF                    A:55 X:23
D544  A9 11     LDA #$11                        A:55 X:23       |       D544  A9 11     LDA #$11                        A:55 X:23
D546  A2 23     LDX #$23                        A:11 X:23       |       D546  A2 23     LDX #$23                        A:11 X:23
D548  A0 00     LDY #$00                        A:11 X:23       |       D548  A0 00     LDY #$00                        A:11 X:23
D54A  AC 78 06  LDY $0678 = 55                  A:11 X:23       |       D54A  AC 78 06  LDY $0678 = 55                  A:11 X:23
D54D  F0 10     BEQ $D55F                       A:11 X:23       |       D54D  F0 10     BEQ $D55F                       A:11 X:23
D54F  30 0E     BMI $D55F                       A:11 X:23       |       D54F  30 0E     BMI $D55F                       A:11 X:23
D551  C0 55     CPY #$55                        A:11 X:23       |       D551  C0 55     CPY #$55                        A:11 X:23
D553  D0 0A     BNE $D55F                       A:11 X:23       |       D553  D0 0A     BNE $D55F                       A:11 X:23
D555  C9 11     CMP #$11                        A:11 X:23       |       D555  C9 11     CMP #$11                        A:11 X:23
D557  D0 06     BNE $D55F                       A:11 X:23       |       D557  D0 06     BNE $D55F                       A:11 X:23
D559  E0 23     CPX #$23                        A:11 X:23       |       D559  E0 23     CPX #$23                        A:11 X:23
D55B  50 02     BVC $D55F                       A:11 X:23       |       D55B  50 02     BVC $D55F                       A:11 X:23
D55D  F0 04     BEQ $D563                       A:11 X:23       |       D55D  F0 04     BEQ $D563                       A:11 X:23
D563  A0 46     LDY #$46                        A:11 X:23       |       D563  A0 46     LDY #$46                        A:11 X:23
D565  24 01     BIT $01 = FF                    A:11 X:23       |       D565  24 01     BIT $01 = FF                    A:11 X:23
D567  8C 78 06  STY $0678 = 55                  A:11 X:23       |       D567  8C 78 06  STY $0678 = 55                  A:11 X:23
D56A  F0 0B     BEQ $D577                       A:11 X:23       |       D56A  F0 0B     BEQ $D577                       A:11 X:23
D56C  10 09     BPL $D577                       A:11 X:23       |       D56C  10 09     BPL $D577                       A:11 X:23
D56E  50 07     BVC $D577                       A:11 X:23       |       D56E  50 07     BVC $D577                       A:11 X:23
D570  AC 78 06  LDY $0678 = 46                  A:11 X:23       |       D570  AC 78 06  LDY $0678 = 46                  A:11 X:23
D573  C0 46     CPY #$46                        A:11 X:23       |       D573  C0 46     CPY #$46                        A:11 X:23
D575  F0 04     BEQ $D57B                       A:11 X:23       |       D575  F0 04     BEQ $D57B                       A:11 X:23
D57B  24 01     BIT $01 = FF                    A:11 X:23       |       D57B  24 01     BIT $01 = FF                    A:11 X:23
D57D  A9 55     LDA #$55                        A:11 X:23       |       D57D  A9 55     LDA #$55                        A:11 X:23
D57F  8D 78 06  STA $0678 = 46                  A:55 X:23       |       D57F  8D 78 06  STA $0678 = 46                  A:55 X:23
D582  A0 11     LDY #$11                        A:55 X:23       |       D582  A0 11     LDY #$11                        A:55 X:23
D584  A9 23     LDA #$23                        A:55 X:23       |       D584  A9 23     LDA #$23                        A:55 X:23
D586  A2 00     LDX #$00                        A:23 X:23       |       D586  A2 00     LDX #$00                        A:23 X:23
D588  AE 78 06  LDX $0678 = 55                  A:23 X:00       |       D588  AE 78 06  LDX $0678 = 55                  A:23 X:00
D58B  F0 10     BEQ $D59D                       A:23 X:55       |       D58B  F0 10     BEQ $D59D                       A:23 X:55
D58D  30 0E     BMI $D59D                       A:23 X:55       |       D58D  30 0E     BMI $D59D                       A:23 X:55
D58F  E0 55     CPX #$55                        A:23 X:55       |       D58F  E0 55     CPX #$55                        A:23 X:55
D591  D0 0A     BNE $D59D                       A:23 X:55       |       D591  D0 0A     BNE $D59D                       A:23 X:55
D593  C0 11     CPY #$11                        A:23 X:55       |       D593  C0 11     CPY #$11                        A:23 X:55
D595  D0 06     BNE $D59D                       A:23 X:55       |       D595  D0 06     BNE $D59D                       A:23 X:55
D597  C9 23     CMP #$23                        A:23 X:55       |       D597  C9 23     CMP #$23                        A:23 X:55
D599  50 02     BVC $D59D                       A:23 X:55       |       D599  50 02     BVC $D59D                       A:23 X:55
D59B  F0 04     BEQ $D5A1                       A:23 X:55       |       D59B  F0 04     BEQ $D5A1                       A:23 X:55
D5A1  A2 46     LDX #$46                        A:23 X:55       |       D5A1  A2 46     LDX #$46                        A:23 X:55
D5A3  24 01     BIT $01 = FF                    A:23 X:46       |       D5A3  24 01     BIT $01 = FF                    A:23 X:46
D5A5  8E 78 06  STX $0678 = 55                  A:23 X:46       |       D5A5  8E 78 06  STX $0678 = 55                  A:23 X:46
D5A8  F0 0B     BEQ $D5B5                       A:23 X:46       |       D5A8  F0 0B     BEQ $D5B5                       A:23 X:46
D5AA  10 09     BPL $D5B5                       A:23 X:46       |       D5AA  10 09     BPL $D5B5                       A:23 X:46
D5AC  50 07     BVC $D5B5                       A:23 X:46       |       D5AC  50 07     BVC $D5B5                       A:23 X:46
D5AE  AE 78 06  LDX $0678 = 46                  A:23 X:46       |       D5AE  AE 78 06  LDX $0678 = 46                  A:23 X:46
D5B1  E0 46     CPX #$46                        A:23 X:46       |       D5B1  E0 46     CPX #$46                        A:23 X:46
D5B3  F0 04     BEQ $D5B9                       A:23 X:46       |       D5B3  F0 04     BEQ $D5B9                       A:23 X:46
D5B9  A9 C0     LDA #$C0                        A:23 X:46       |       D5B9  A9 C0     LDA #$C0                        A:23 X:46
D5BB  8D 78 06  STA $0678 = 46                  A:C0 X:46       |       D5BB  8D 78 06  STA $0678 = 46                  A:C0 X:46
D5BE  A2 33     LDX #$33                        A:C0 X:46       |       D5BE  A2 33     LDX #$33                        A:C0 X:46
D5C0  A0 88     LDY #$88                        A:C0 X:33       |       D5C0  A0 88     LDY #$88                        A:C0 X:33
D5C2  A9 05     LDA #$05                        A:C0 X:33       |       D5C2  A9 05     LDA #$05                        A:C0 X:33
D5C4  2C 78 06  BIT $0678 = C0                  A:05 X:33       |       D5C4  2C 78 06  BIT $0678 = C0                  A:05 X:33
D5C7  10 10     BPL $D5D9                       A:05 X:33       |       D5C7  10 10     BPL $D5D9                       A:05 X:33
D5C9  50 0E     BVC $D5D9                       A:05 X:33       |       D5C9  50 0E     BVC $D5D9                       A:05 X:33
D5CB  D0 0C     BNE $D5D9                       A:05 X:33       |       D5CB  D0 0C     BNE $D5D9                       A:05 X:33
D5CD  C9 05     CMP #$05                        A:05 X:33       |       D5CD  C9 05     CMP #$05                        A:05 X:33
D5CF  D0 08     BNE $D5D9                       A:05 X:33       |       D5CF  D0 08     BNE $D5D9                       A:05 X:33
D5D1  E0 33     CPX #$33                        A:05 X:33       |       D5D1  E0 33     CPX #$33                        A:05 X:33
D5D3  D0 04     BNE $D5D9                       A:05 X:33       |       D5D3  D0 04     BNE $D5D9                       A:05 X:33
D5D5  C0 88     CPY #$88                        A:05 X:33       |       D5D5  C0 88     CPY #$88                        A:05 X:33
D5D7  F0 04     BEQ $D5DD                       A:05 X:33       |       D5D7  F0 04     BEQ $D5DD                       A:05 X:33
D5DD  A9 03     LDA #$03                        A:05 X:33       |       D5DD  A9 03     LDA #$03                        A:05 X:33
D5DF  8D 78 06  STA $0678 = C0                  A:03 X:33       |       D5DF  8D 78 06  STA $0678 = C0                  A:03 X:33
D5E2  A9 01     LDA #$01                        A:03 X:33       |       D5E2  A9 01     LDA #$01                        A:03 X:33
D5E4  2C 78 06  BIT $0678 = 03                  A:01 X:33       |       D5E4  2C 78 06  BIT $0678 = 03                  A:01 X:33
D5E7  30 08     BMI $D5F1                       A:01 X:33       |       D5E7  30 08     BMI $D5F1                       A:01 X:33
D5E9  70 06     BVS $D5F1                       A:01 X:33       |       D5E9  70 06     BVS $D5F1                       A:01 X:33
D5EB  F0 04     BEQ $D5F1                       A:01 X:33       |       D5EB  F0 04     BEQ $D5F1                       A:01 X:33
D5ED  C9 01     CMP #$01                        A:01 X:33       |       D5ED  C9 01     CMP #$01                        A:01 X:33
D5EF  F0 04     BEQ $D5F5                       A:01 X:33       |       D5EF  F0 04     BEQ $D5F5                       A:01 X:33
D5F5  A0 B8     LDY #$B8                        A:01 X:33       |       D5F5  A0 B8     LDY #$B8                        A:01 X:33
D5F7  A9 AA     LDA #$AA                        A:01 X:33       |       D5F7  A9 AA     LDA #$AA                        A:01 X:33
D5F9  8D 78 06  STA $0678 = 03                  A:AA X:33       |       D5F9  8D 78 06  STA $0678 = 03                  A:AA X:33
D5FC  20 B6 F7  JSR $F7B6                       A:AA X:33       |       D5FC  20 B6 F7  JSR $F7B6                       A:AA X:33
F7B6  18        CLC                             A:AA X:33       |       F7B6  18        CLC                             A:AA X:33
F7B7  A9 FF     LDA #$FF                        A:AA X:33       |       F7B7  A9 FF     LDA #$FF                        A:AA X:33
F7B9  85 01     STA $01 = FF                    A:FF X:33       |       F7B9  85 01     STA $01 = FF                    A:FF X:33
F7BB  24 01     BIT $01 = FF                    A:FF X:33       |       F7BB  24 01     BIT $01 = FF                    A:FF X:33
F7BD  A9 55     LDA #$55                        A:FF X:33       |       F7BD  A9 55     LDA #$55                        A:FF X:33
F7BF  60        RTS                             A:55 X:33       |       F7BF  60        RTS                             A:55 X:33
D5FF  0D 78 06  ORA $0678 = AA                  A:55 X:33       |       D5FF  0D 78 06  ORA $0678 = AA                  A:55 X:33
D602  20 C0 F7  JSR $F7C0                       A:FF X:33       |       D602  20 C0 F7  JSR $F7C0                       A:FF X:33
F7C0  B0 09     BCS $F7CB                       A:FF X:33       |       F7C0  B0 09     BCS $F7CB                       A:FF X:33
F7C2  10 07     BPL $F7CB                       A:FF X:33       |       F7C2  10 07     BPL $F7CB                       A:FF X:33
F7C4  C9 FF     CMP #$FF                        A:FF X:33       |       F7C4  C9 FF     CMP #$FF                        A:FF X:33
F7C6  D0 03     BNE $F7CB                       A:FF X:33       |       F7C6  D0 03     BNE $F7CB                       A:FF X:33
F7C8  50 01     BVC $F7CB                       A:FF X:33       |       F7C8  50 01     BVC $F7CB                       A:FF X:33
F7CA  60        RTS                             A:FF X:33       |       F7CA  60        RTS                             A:FF X:33
D605  C8        INY                             A:FF X:33       |       D605  C8        INY                             A:FF X:33
D606  A9 00     LDA #$00                        A:FF X:33       |       D606  A9 00     LDA #$00                        A:FF X:33
D608  8D 78 06  STA $0678 = AA                  A:00 X:33       |       D608  8D 78 06  STA $0678 = AA                  A:00 X:33
D60B  20 CE F7  JSR $F7CE                       A:00 X:33       |       D60B  20 CE F7  JSR $F7CE                       A:00 X:33
F7CE  38        SEC                             A:00 X:33       |       F7CE  38        SEC                             A:00 X:33
F7CF  B8        CLV                             A:00 X:33       |       F7CF  B8        CLV                             A:00 X:33
F7D0  A9 00     LDA #$00                        A:00 X:33       |       F7D0  A9 00     LDA #$00                        A:00 X:33
F7D2  60        RTS                             A:00 X:33       |       F7D2  60        RTS                             A:00 X:33
D60E  0D 78 06  ORA $0678 = 00                  A:00 X:33       |       D60E  0D 78 06  ORA $0678 = 00                  A:00 X:33
D611  20 D3 F7  JSR $F7D3                       A:00 X:33       |       D611  20 D3 F7  JSR $F7D3                       A:00 X:33
F7D3  D0 07     BNE $F7DC                       A:00 X:33       |       F7D3  D0 07     BNE $F7DC                       A:00 X:33
F7D5  70 05     BVS $F7DC                       A:00 X:33       |       F7D5  70 05     BVS $F7DC                       A:00 X:33
F7D7  90 03     BCC $F7DC                       A:00 X:33       |       F7D7  90 03     BCC $F7DC                       A:00 X:33
F7D9  30 01     BMI $F7DC                       A:00 X:33       |       F7D9  30 01     BMI $F7DC                       A:00 X:33
F7DB  60        RTS                             A:00 X:33       |       F7DB  60        RTS                             A:00 X:33
D614  C8        INY                             A:00 X:33       |       D614  C8        INY                             A:00 X:33
D615  A9 AA     LDA #$AA                        A:00 X:33       |       D615  A9 AA     LDA #$AA                        A:00 X:33
D617  8D 78 06  STA $0678 = 00                  A:AA X:33       |       D617  8D 78 06  STA $0678 = 00                  A:AA X:33
D61A  20 DF F7  JSR $F7DF                       A:AA X:33       |       D61A  20 DF F7  JSR $F7DF                       A:AA X:33
F7DF  18        CLC                             A:AA X:33       |       F7DF  18        CLC                             A:AA X:33
F7E0  24 01     BIT $01 = FF                    A:AA X:33       |       F7E0  24 01     BIT $01 = FF                    A:AA X:33
F7E2  A9 55     LDA #$55                        A:AA X:33       |       F7E2  A9 55     LDA #$55                        A:AA X:33
F7E4  60        RTS                             A:55 X:33       |       F7E4  60        RTS                             A:55 X:33
D61D  2D 78 06  AND $0678 = AA                  A:55 X:33       |       D61D  2D 78 06  AND $0678 = AA                  A:55 X:33
D620  20 E5 F7  JSR $F7E5                       A:00 X:33       |       D620  20 E5 F7  JSR $F7E5                       A:00 X:33
F7E5  D0 07     BNE $F7EE                       A:00 X:33       |       F7E5  D0 07     BNE $F7EE                       A:00 X:33
F7E7  50 05     BVC $F7EE                       A:00 X:33       |       F7E7  50 05     BVC $F7EE                       A:00 X:33
F7E9  B0 03     BCS $F7EE                       A:00 X:33       |       F7E9  B0 03     BCS $F7EE                       A:00 X:33
F7EB  30 01     BMI $F7EE                       A:00 X:33       |       F7EB  30 01     BMI $F7EE                       A:00 X:33
F7ED  60        RTS                             A:00 X:33       |       F7ED  60        RTS                             A:00 X:33
D623  C8        INY                             A:00 X:33       |       D623  C8        INY                             A:00 X:33
D624  A9 EF     LDA #$EF                        A:00 X:33       |       D624  A9 EF     LDA #$EF                        A:00 X:33
D626  8D 78 06  STA $0678 = AA                  A:EF X:33       |       D626  8D 78 06  STA $0678 = AA                  A:EF X:33
D629  20 F1 F7  JSR $F7F1                       A:EF X:33       |       D629  20 F1 F7  JSR $F7F1                       A:EF X:33
F7F1  38        SEC                             A:EF X:33       |       F7F1  38        SEC                             A:EF X:33
F7F2  B8        CLV                             A:EF X:33       |       F7F2  B8        CLV                             A:EF X:33
F7F3  A9 F8     LDA #$F8                        A:EF X:33       |       F7F3  A9 F8     LDA #$F8                        A:EF X:33
F7F5  60        RTS                             A:F8 X:33       |       F7F5  60        RTS                             A:F8 X:33
D62C  2D 78 06  AND $0678 = EF                  A:F8 X:33       |       D62C  2D 78 06  AND $0678 = EF                  A:F8 X:33
D62F  20 F6 F7  JSR $F7F6                       A:E8 X:33       |       D62F  20 F6 F7  JSR $F7F6                       A:E8 X:33
F7F6  90 09     BCC $F801                       A:E8 X:33       |       F7F6  90 09     BCC $F801                       A:E8 X:33
F7F8  10 07     BPL $F801                       A:E8 X:33       |       F7F8  10 07     BPL $F801                       A:E8 X:33
F7FA  C9 E8     CMP #$E8                        A:E8 X:33       |       F7FA  C9 E8     CMP #$E8                        A:E8 X:33
F7FC  D0 03     BNE $F801                       A:E8 X:33       |       F7FC  D0 03     BNE $F801                       A:E8 X:33
F7FE  70 01     BVS $F801                       A:E8 X:33       |       F7FE  70 01     BVS $F801                       A:E8 X:33
F800  60        RTS                             A:E8 X:33       |       F800  60        RTS                             A:E8 X:33
D632  C8        INY                             A:E8 X:33       |       D632  C8        INY                             A:E8 X:33
D633  A9 AA     LDA #$AA                        A:E8 X:33       |       D633  A9 AA     LDA #$AA                        A:E8 X:33
D635  8D 78 06  STA $0678 = EF                  A:AA X:33       |       D635  8D 78 06  STA $0678 = EF                  A:AA X:33
D638  20 04 F8  JSR $F804                       A:AA X:33       |       D638  20 04 F8  JSR $F804                       A:AA X:33
F804  18        CLC                             A:AA X:33       |       F804  18        CLC                             A:AA X:33
F805  24 01     BIT $01 = FF                    A:AA X:33       |       F805  24 01     BIT $01 = FF                    A:AA X:33
F807  A9 5F     LDA #$5F                        A:AA X:33       |       F807  A9 5F     LDA #$5F                        A:AA X:33
F809  60        RTS                             A:5F X:33       |       F809  60        RTS                             A:5F X:33
D63B  4D 78 06  EOR $0678 = AA                  A:5F X:33       |       D63B  4D 78 06  EOR $0678 = AA                  A:5F X:33
D63E  20 0A F8  JSR $F80A                       A:F5 X:33       |       D63E  20 0A F8  JSR $F80A                       A:F5 X:33
F80A  B0 09     BCS $F815                       A:F5 X:33       |       F80A  B0 09     BCS $F815                       A:F5 X:33
F80C  10 07     BPL $F815                       A:F5 X:33       |       F80C  10 07     BPL $F815                       A:F5 X:33
F80E  C9 F5     CMP #$F5                        A:F5 X:33       |       F80E  C9 F5     CMP #$F5                        A:F5 X:33
F810  D0 03     BNE $F815                       A:F5 X:33       |       F810  D0 03     BNE $F815                       A:F5 X:33
F812  50 01     BVC $F815                       A:F5 X:33       |       F812  50 01     BVC $F815                       A:F5 X:33
F814  60        RTS                             A:F5 X:33       |       F814  60        RTS                             A:F5 X:33
D641  C8        INY                             A:F5 X:33       |       D641  C8        INY                             A:F5 X:33
D642  A9 70     LDA #$70                        A:F5 X:33       |       D642  A9 70     LDA #$70                        A:F5 X:33
D644  8D 78 06  STA $0678 = AA                  A:70 X:33       |       D644  8D 78 06  STA $0678 = AA                  A:70 X:33
D647  20 18 F8  JSR $F818                       A:70 X:33       |       D647  20 18 F8  JSR $F818                       A:70 X:33
F818  38        SEC                             A:70 X:33       |       F818  38        SEC                             A:70 X:33
F819  B8        CLV                             A:70 X:33       |       F819  B8        CLV                             A:70 X:33
F81A  A9 70     LDA #$70                        A:70 X:33       |       F81A  A9 70     LDA #$70                        A:70 X:33
F81C  60        RTS                             A:70 X:33       |       F81C  60        RTS                             A:70 X:33
D64A  4D 78 06  EOR $0678 = 70                  A:70 X:33       |       D64A  4D 78 06  EOR $0678 = 70                  A:70 X:33
D64D  20 1D F8  JSR $F81D                       A:00 X:33       |       D64D  20 1D F8  JSR $F81D                       A:00 X:33
F81D  D0 07     BNE $F826                       A:00 X:33       |       F81D  D0 07     BNE $F826                       A:00 X:33
F81F  70 05     BVS $F826                       A:00 X:33       |       F81F  70 05     BVS $F826                       A:00 X:33
F821  90 03     BCC $F826                       A:00 X:33       |       F821  90 03     BCC $F826                       A:00 X:33
F823  30 01     BMI $F826                       A:00 X:33       |       F823  30 01     BMI $F826                       A:00 X:33
F825  60        RTS                             A:00 X:33       |       F825  60        RTS                             A:00 X:33
D650  C8        INY                             A:00 X:33       |       D650  C8        INY                             A:00 X:33
D651  A9 69     LDA #$69                        A:00 X:33       |       D651  A9 69     LDA #$69                        A:00 X:33
D653  8D 78 06  STA $0678 = 70                  A:69 X:33       |       D653  8D 78 06  STA $0678 = 70                  A:69 X:33
D656  20 29 F8  JSR $F829                       A:69 X:33       |       D656  20 29 F8  JSR $F829                       A:69 X:33
F829  18        CLC                             A:69 X:33       |       F829  18        CLC                             A:69 X:33
F82A  24 01     BIT $01 = FF                    A:69 X:33       |       F82A  24 01     BIT $01 = FF                    A:69 X:33
F82C  A9 00     LDA #$00                        A:69 X:33       |       F82C  A9 00     LDA #$00                        A:69 X:33
F82E  60        RTS                             A:00 X:33       |       F82E  60        RTS                             A:00 X:33
D659  6D 78 06  ADC $0678 = 69                  A:00 X:33       |       D659  6D 78 06  ADC $0678 = 69                  A:00 X:33
D65C  20 2F F8  JSR $F82F                       A:69 X:33       |       D65C  20 2F F8  JSR $F82F                       A:69 X:33
F82F  30 09     BMI $F83A                       A:69 X:33       |       F82F  30 09     BMI $F83A                       A:69 X:33
F831  B0 07     BCS $F83A                       A:69 X:33       |       F831  B0 07     BCS $F83A                       A:69 X:33
F833  C9 69     CMP #$69                        A:69 X:33       |       F833  C9 69     CMP #$69                        A:69 X:33
F835  D0 03     BNE $F83A                       A:69 X:33       |       F835  D0 03     BNE $F83A                       A:69 X:33
F837  70 01     BVS $F83A                       A:69 X:33       |       F837  70 01     BVS $F83A                       A:69 X:33
F839  60        RTS                             A:69 X:33       |       F839  60        RTS                             A:69 X:33
D65F  C8        INY                             A:69 X:33       |       D65F  C8        INY                             A:69 X:33
D660  20 3D F8  JSR $F83D                       A:69 X:33       |       D660  20 3D F8  JSR $F83D                       A:69 X:33
F83D  38        SEC                             A:69 X:33       |       F83D  38        SEC                             A:69 X:33
F83E  24 01     BIT $01 = FF                    A:69 X:33       |       F83E  24 01     BIT $01 = FF                    A:69 X:33
F840  A9 00     LDA #$00                        A:69 X:33       |       F840  A9 00     LDA #$00                        A:69 X:33
F842  60        RTS                             A:00 X:33       |       F842  60        RTS                             A:00 X:33
D663  6D 78 06  ADC $0678 = 69                  A:00 X:33       |       D663  6D 78 06  ADC $0678 = 69                  A:00 X:33
D666  20 43 F8  JSR $F843                       A:6A X:33       |       D666  20 43 F8  JSR $F843                       A:6A X:33
F843  30 09     BMI $F84E                       A:6A X:33       |       F843  30 09     BMI $F84E                       A:6A X:33
F845  B0 07     BCS $F84E                       A:6A X:33       |       F845  B0 07     BCS $F84E                       A:6A X:33
F847  C9 6A     CMP #$6A                        A:6A X:33       |       F847  C9 6A     CMP #$6A                        A:6A X:33
F849  D0 03     BNE $F84E                       A:6A X:33       |       F849  D0 03     BNE $F84E                       A:6A X:33
F84B  70 01     BVS $F84E                       A:6A X:33       |       F84B  70 01     BVS $F84E                       A:6A X:33
F84D  60        RTS                             A:6A X:33       |       F84D  60        RTS                             A:6A X:33
D669  C8        INY                             A:6A X:33       |       D669  C8        INY                             A:6A X:33
D66A  A9 7F     LDA #$7F                        A:6A X:33       |       D66A  A9 7F     LDA #$7F                        A:6A X:33
D66C  8D 78 06  STA $0678 = 69                  A:7F X:33       |       D66C  8D 78 06  STA $0678 = 69                  A:7F X:33
D66F  20 51 F8  JSR $F851                       A:7F X:33       |       D66F  20 51 F8  JSR $F851                       A:7F X:33
F851  38        SEC                             A:7F X:33       |       F851  38        SEC                             A:7F X:33
F852  B8        CLV                             A:7F X:33       |       F852  B8        CLV                             A:7F X:33
F853  A9 7F     LDA #$7F                        A:7F X:33       |       F853  A9 7F     LDA #$7F                        A:7F X:33
F855  60        RTS                             A:7F X:33       |       F855  60        RTS                             A:7F X:33
D672  6D 78 06  ADC $0678 = 7F                  A:7F X:33       |       D672  6D 78 06  ADC $0678 = 7F                  A:7F X:33
D675  20 56 F8  JSR $F856                       A:FF X:33       |       D675  20 56 F8  JSR $F856                       A:FF X:33
F856  10 09     BPL $F861                       A:FF X:33       |       F856  10 09     BPL $F861                       A:FF X:33
F858  B0 07     BCS $F861                       A:FF X:33       |       F858  B0 07     BCS $F861                       A:FF X:33
F85A  C9 FF     CMP #$FF                        A:FF X:33       |       F85A  C9 FF     CMP #$FF                        A:FF X:33
F85C  D0 03     BNE $F861                       A:FF X:33       |       F85C  D0 03     BNE $F861                       A:FF X:33
F85E  50 01     BVC $F861                       A:FF X:33       |       F85E  50 01     BVC $F861                       A:FF X:33
F860  60        RTS                             A:FF X:33       |       F860  60        RTS                             A:FF X:33
D678  C8        INY                             A:FF X:33       |       D678  C8        INY                             A:FF X:33
D679  A9 80     LDA #$80                        A:FF X:33       |       D679  A9 80     LDA #$80                        A:FF X:33
D67B  8D 78 06  STA $0678 = 7F                  A:80 X:33       |       D67B  8D 78 06  STA $0678 = 7F                  A:80 X:33
D67E  20 64 F8  JSR $F864                       A:80 X:33       |       D67E  20 64 F8  JSR $F864                       A:80 X:33
F864  18        CLC                             A:80 X:33       |       F864  18        CLC                             A:80 X:33
F865  24 01     BIT $01 = FF                    A:80 X:33       |       F865  24 01     BIT $01 = FF                    A:80 X:33
F867  A9 7F     LDA #$7F                        A:80 X:33       |       F867  A9 7F     LDA #$7F                        A:80 X:33
F869  60        RTS                             A:7F X:33       |       F869  60        RTS                             A:7F X:33
D681  6D 78 06  ADC $0678 = 80                  A:7F X:33       |       D681  6D 78 06  ADC $0678 = 80                  A:7F X:33
D684  20 6A F8  JSR $F86A                       A:FF X:33       |       D684  20 6A F8  JSR $F86A                       A:FF X:33
F86A  10 09     BPL $F875                       A:FF X:33       |       F86A  10 09     BPL $F875                       A:FF X:33
F86C  B0 07     BCS $F875                       A:FF X:33       |       F86C  B0 07     BCS $F875                       A:FF X:33
F86E  C9 FF     CMP #$FF                        A:FF X:33       |       F86E  C9 FF     CMP #$FF                        A:FF X:33
F870  D0 03     BNE $F875                       A:FF X:33       |       F870  D0 03     BNE $F875                       A:FF X:33
F872  70 01     BVS $F875                       A:FF X:33       |       F872  70 01     BVS $F875                       A:FF X:33
F874  60        RTS                             A:FF X:33       |       F874  60        RTS                             A:FF X:33
D687  C8        INY                             A:FF X:33       |       D687  C8        INY                             A:FF X:33
D688  20 78 F8  JSR $F878                       A:FF X:33       |       D688  20 78 F8  JSR $F878                       A:FF X:33
F878  38        SEC                             A:FF X:33       |       F878  38        SEC                             A:FF X:33
F879  B8        CLV                             A:FF X:33       |       F879  B8        CLV                             A:FF X:33
F87A  A9 7F     LDA #$7F                        A:FF X:33       |       F87A  A9 7F     LDA #$7F                        A:FF X:33
F87C  60        RTS                             A:7F X:33       |       F87C  60        RTS                             A:7F X:33
D68B  6D 78 06  ADC $0678 = 80                  A:7F X:33       |       D68B  6D 78 06  ADC $0678 = 80                  A:7F X:33
D68E  20 7D F8  JSR $F87D                       A:00 X:33       |       D68E  20 7D F8  JSR $F87D                       A:00 X:33
F87D  D0 07     BNE $F886                       A:00 X:33       |       F87D  D0 07     BNE $F886                       A:00 X:33
F87F  30 05     BMI $F886                       A:00 X:33       |       F87F  30 05     BMI $F886                       A:00 X:33
F881  70 03     BVS $F886                       A:00 X:33       |       F881  70 03     BVS $F886                       A:00 X:33
F883  90 01     BCC $F886                       A:00 X:33       |       F883  90 01     BCC $F886                       A:00 X:33
F885  60        RTS                             A:00 X:33       |       F885  60        RTS                             A:00 X:33
D691  C8        INY                             A:00 X:33       |       D691  C8        INY                             A:00 X:33
D692  A9 40     LDA #$40                        A:00 X:33       |       D692  A9 40     LDA #$40                        A:00 X:33
D694  8D 78 06  STA $0678 = 80                  A:40 X:33       |       D694  8D 78 06  STA $0678 = 80                  A:40 X:33
D697  20 89 F8  JSR $F889                       A:40 X:33       |       D697  20 89 F8  JSR $F889                       A:40 X:33
F889  24 01     BIT $01 = FF                    A:40 X:33       |       F889  24 01     BIT $01 = FF                    A:40 X:33
F88B  A9 40     LDA #$40                        A:40 X:33       |       F88B  A9 40     LDA #$40                        A:40 X:33
F88D  60        RTS                             A:40 X:33       |       F88D  60        RTS                             A:40 X:33
D69A  CD 78 06  CMP $0678 = 40                  A:40 X:33       |       D69A  CD 78 06  CMP $0678 = 40                  A:40 X:33
D69D  20 8E F8  JSR $F88E                       A:40 X:33       |       D69D  20 8E F8  JSR $F88E                       A:40 X:33
F88E  30 07     BMI $F897                       A:40 X:33       |       F88E  30 07     BMI $F897                       A:40 X:33
F890  90 05     BCC $F897                       A:40 X:33       |       F890  90 05     BCC $F897                       A:40 X:33
F892  D0 03     BNE $F897                       A:40 X:33       |       F892  D0 03     BNE $F897                       A:40 X:33
F894  50 01     BVC $F897                       A:40 X:33       |       F894  50 01     BVC $F897                       A:40 X:33
F896  60        RTS                             A:40 X:33       |       F896  60        RTS                             A:40 X:33
D6A0  C8        INY                             A:40 X:33       |       D6A0  C8        INY                             A:40 X:33
D6A1  48        PHA                             A:40 X:33       |       D6A1  48        PHA                             A:40 X:33
D6A2  A9 3F     LDA #$3F                        A:40 X:33       |       D6A2  A9 3F     LDA #$3F                        A:40 X:33
D6A4  8D 78 06  STA $0678 = 40                  A:3F X:33       |       D6A4  8D 78 06  STA $0678 = 40                  A:3F X:33
D6A7  68        PLA                             A:3F X:33       |       D6A7  68        PLA                             A:3F X:33
D6A8  20 9A F8  JSR $F89A                       A:40 X:33       |       D6A8  20 9A F8  JSR $F89A                       A:40 X:33
F89A  B8        CLV                             A:40 X:33       |       F89A  B8        CLV                             A:40 X:33
F89B  60        RTS                             A:40 X:33       |       F89B  60        RTS                             A:40 X:33
D6AB  CD 78 06  CMP $0678 = 3F                  A:40 X:33       |       D6AB  CD 78 06  CMP $0678 = 3F                  A:40 X:33
D6AE  20 9C F8  JSR $F89C                       A:40 X:33       |       D6AE  20 9C F8  JSR $F89C                       A:40 X:33
F89C  F0 07     BEQ $F8A5                       A:40 X:33       |       F89C  F0 07     BEQ $F8A5                       A:40 X:33
F89E  30 05     BMI $F8A5                       A:40 X:33       |       F89E  30 05     BMI $F8A5                       A:40 X:33
F8A0  90 03     BCC $F8A5                       A:40 X:33       |       F8A0  90 03     BCC $F8A5                       A:40 X:33
F8A2  70 01     BVS $F8A5                       A:40 X:33       |       F8A2  70 01     BVS $F8A5                       A:40 X:33
F8A4  60        RTS                             A:40 X:33       |       F8A4  60        RTS                             A:40 X:33
D6B1  C8        INY                             A:40 X:33       |       D6B1  C8        INY                             A:40 X:33
D6B2  48        PHA                             A:40 X:33       |       D6B2  48        PHA                             A:40 X:33
D6B3  A9 41     LDA #$41                        A:40 X:33       |       D6B3  A9 41     LDA #$41                        A:40 X:33
D6B5  8D 78 06  STA $0678 = 3F                  A:41 X:33       |       D6B5  8D 78 06  STA $0678 = 3F                  A:41 X:33
D6B8  68        PLA                             A:41 X:33       |       D6B8  68        PLA                             A:41 X:33
D6B9  CD 78 06  CMP $0678 = 41                  A:40 X:33       |       D6B9  CD 78 06  CMP $0678 = 41                  A:40 X:33
D6BC  20 A8 F8  JSR $F8A8                       A:40 X:33       |       D6BC  20 A8 F8  JSR $F8A8                       A:40 X:33
F8A8  F0 05     BEQ $F8AF                       A:40 X:33       |       F8A8  F0 05     BEQ $F8AF                       A:40 X:33
F8AA  10 03     BPL $F8AF                       A:40 X:33       |       F8AA  10 03     BPL $F8AF                       A:40 X:33
F8AC  10 01     BPL $F8AF                       A:40 X:33       |       F8AC  10 01     BPL $F8AF                       A:40 X:33
F8AE  60        RTS                             A:40 X:33       |       F8AE  60        RTS                             A:40 X:33
D6BF  C8        INY                             A:40 X:33       |       D6BF  C8        INY                             A:40 X:33
D6C0  48        PHA                             A:40 X:33       |       D6C0  48        PHA                             A:40 X:33
D6C1  A9 00     LDA #$00                        A:40 X:33       |       D6C1  A9 00     LDA #$00                        A:40 X:33
D6C3  8D 78 06  STA $0678 = 41                  A:00 X:33       |       D6C3  8D 78 06  STA $0678 = 41                  A:00 X:33
D6C6  68        PLA                             A:00 X:33       |       D6C6  68        PLA                             A:00 X:33
D6C7  20 B2 F8  JSR $F8B2                       A:40 X:33       |       D6C7  20 B2 F8  JSR $F8B2                       A:40 X:33
F8B2  A9 80     LDA #$80                        A:40 X:33       |       F8B2  A9 80     LDA #$80                        A:40 X:33
F8B4  60        RTS                             A:80 X:33       |       F8B4  60        RTS                             A:80 X:33
D6CA  CD 78 06  CMP $0678 = 00                  A:80 X:33       |       D6CA  CD 78 06  CMP $0678 = 00                  A:80 X:33
D6CD  20 B5 F8  JSR $F8B5                       A:80 X:33       |       D6CD  20 B5 F8  JSR $F8B5                       A:80 X:33
F8B5  F0 05     BEQ $F8BC                       A:80 X:33       |       F8B5  F0 05     BEQ $F8BC                       A:80 X:33
F8B7  10 03     BPL $F8BC                       A:80 X:33       |       F8B7  10 03     BPL $F8BC                       A:80 X:33
F8B9  90 01     BCC $F8BC                       A:80 X:33       |       F8B9  90 01     BCC $F8BC                       A:80 X:33
F8BB  60        RTS                             A:80 X:33       |       F8BB  60        RTS                             A:80 X:33
D6D0  C8        INY                             A:80 X:33       |       D6D0  C8        INY                             A:80 X:33
D6D1  48        PHA                             A:80 X:33       |       D6D1  48        PHA                             A:80 X:33
D6D2  A9 80     LDA #$80                        A:80 X:33       |       D6D2  A9 80     LDA #$80                        A:80 X:33
D6D4  8D 78 06  STA $0678 = 00                  A:80 X:33       |       D6D4  8D 78 06  STA $0678 = 00                  A:80 X:33
D6D7  68        PLA                             A:80 X:33       |       D6D7  68        PLA                             A:80 X:33
D6D8  CD 78 06  CMP $0678 = 80                  A:80 X:33       |       D6D8  CD 78 06  CMP $0678 = 80                  A:80 X:33
D6DB  20 BF F8  JSR $F8BF                       A:80 X:33       |       D6DB  20 BF F8  JSR $F8BF                       A:80 X:33
F8BF  D0 05     BNE $F8C6                       A:80 X:33       |       F8BF  D0 05     BNE $F8C6                       A:80 X:33
F8C1  30 03     BMI $F8C6                       A:80 X:33       |       F8C1  30 03     BMI $F8C6                       A:80 X:33
F8C3  90 01     BCC $F8C6                       A:80 X:33       |       F8C3  90 01     BCC $F8C6                       A:80 X:33
F8C5  60        RTS                             A:80 X:33       |       F8C5  60        RTS                             A:80 X:33
D6DE  C8        INY                             A:80 X:33       |       D6DE  C8        INY                             A:80 X:33
D6DF  48        PHA                             A:80 X:33       |       D6DF  48        PHA                             A:80 X:33
D6E0  A9 81     LDA #$81                        A:80 X:33       |       D6E0  A9 81     LDA #$81                        A:80 X:33
D6E2  8D 78 06  STA $0678 = 80                  A:81 X:33       |       D6E2  8D 78 06  STA $0678 = 80                  A:81 X:33
D6E5  68        PLA                             A:81 X:33       |       D6E5  68        PLA                             A:81 X:33
D6E6  CD 78 06  CMP $0678 = 81                  A:80 X:33       |       D6E6  CD 78 06  CMP $0678 = 81                  A:80 X:33
D6E9  20 C9 F8  JSR $F8C9                       A:80 X:33       |       D6E9  20 C9 F8  JSR $F8C9                       A:80 X:33
F8C9  B0 05     BCS $F8D0                       A:80 X:33       |       F8C9  B0 05     BCS $F8D0                       A:80 X:33
F8CB  F0 03     BEQ $F8D0                       A:80 X:33       |       F8CB  F0 03     BEQ $F8D0                       A:80 X:33
F8CD  10 01     BPL $F8D0                       A:80 X:33       |       F8CD  10 01     BPL $F8D0                       A:80 X:33
F8CF  60        RTS                             A:80 X:33       |       F8CF  60        RTS                             A:80 X:33
D6EC  C8        INY                             A:80 X:33       |       D6EC  C8        INY                             A:80 X:33
D6ED  48        PHA                             A:80 X:33       |       D6ED  48        PHA                             A:80 X:33
D6EE  A9 7F     LDA #$7F                        A:80 X:33       |       D6EE  A9 7F     LDA #$7F                        A:80 X:33
D6F0  8D 78 06  STA $0678 = 81                  A:7F X:33       |       D6F0  8D 78 06  STA $0678 = 81                  A:7F X:33
D6F3  68        PLA                             A:7F X:33       |       D6F3  68        PLA                             A:7F X:33
D6F4  CD 78 06  CMP $0678 = 7F                  A:80 X:33       |       D6F4  CD 78 06  CMP $0678 = 7F                  A:80 X:33
D6F7  20 D3 F8  JSR $F8D3                       A:80 X:33       |       D6F7  20 D3 F8  JSR $F8D3                       A:80 X:33
F8D3  90 05     BCC $F8DA                       A:80 X:33       |       F8D3  90 05     BCC $F8DA                       A:80 X:33
F8D5  F0 03     BEQ $F8DA                       A:80 X:33       |       F8D5  F0 03     BEQ $F8DA                       A:80 X:33
F8D7  30 01     BMI $F8DA                       A:80 X:33       |       F8D7  30 01     BMI $F8DA                       A:80 X:33
F8D9  60        RTS                             A:80 X:33       |       F8D9  60        RTS                             A:80 X:33
D6FA  C8        INY                             A:80 X:33       |       D6FA  C8        INY                             A:80 X:33
D6FB  A9 40     LDA #$40                        A:80 X:33       |       D6FB  A9 40     LDA #$40                        A:80 X:33
D6FD  8D 78 06  STA $0678 = 7F                  A:40 X:33       |       D6FD  8D 78 06  STA $0678 = 7F                  A:40 X:33
D700  20 31 F9  JSR $F931                       A:40 X:33       |       D700  20 31 F9  JSR $F931                       A:40 X:33
F931  24 01     BIT $01 = FF                    A:40 X:33       |       F931  24 01     BIT $01 = FF                    A:40 X:33
F933  A9 40     LDA #$40                        A:40 X:33       |       F933  A9 40     LDA #$40                        A:40 X:33
F935  38        SEC                             A:40 X:33       |       F935  38        SEC                             A:40 X:33
F936  60        RTS                             A:40 X:33       |       F936  60        RTS                             A:40 X:33
D703  ED 78 06  SBC $0678 = 40                  A:40 X:33       |       D703  ED 78 06  SBC $0678 = 40                  A:40 X:33
D706  20 37 F9  JSR $F937                       A:00 X:33       |       D706  20 37 F9  JSR $F937                       A:00 X:33
F937  30 0B     BMI $F944                       A:00 X:33       |       F937  30 0B     BMI $F944                       A:00 X:33
F939  90 09     BCC $F944                       A:00 X:33       |       F939  90 09     BCC $F944                       A:00 X:33
F93B  D0 07     BNE $F944                       A:00 X:33       |       F93B  D0 07     BNE $F944                       A:00 X:33
F93D  70 05     BVS $F944                       A:00 X:33       |       F93D  70 05     BVS $F944                       A:00 X:33
F93F  C9 00     CMP #$00                        A:00 X:33       |       F93F  C9 00     CMP #$00                        A:00 X:33
F941  D0 01     BNE $F944                       A:00 X:33       |       F941  D0 01     BNE $F944                       A:00 X:33
F943  60        RTS                             A:00 X:33       |       F943  60        RTS                             A:00 X:33
D709  C8        INY                             A:00 X:33       |       D709  C8        INY                             A:00 X:33
D70A  A9 3F     LDA #$3F                        A:00 X:33       |       D70A  A9 3F     LDA #$3F                        A:00 X:33
D70C  8D 78 06  STA $0678 = 40                  A:3F X:33       |       D70C  8D 78 06  STA $0678 = 40                  A:3F X:33
D70F  20 47 F9  JSR $F947                       A:3F X:33       |       D70F  20 47 F9  JSR $F947                       A:3F X:33
F947  B8        CLV                             A:3F X:33       |       F947  B8        CLV                             A:3F X:33
F948  38        SEC                             A:3F X:33       |       F948  38        SEC                             A:3F X:33
F949  A9 40     LDA #$40                        A:3F X:33       |       F949  A9 40     LDA #$40                        A:3F X:33
F94B  60        RTS                             A:40 X:33       |       F94B  60        RTS                             A:40 X:33
D712  ED 78 06  SBC $0678 = 3F                  A:40 X:33       |       D712  ED 78 06  SBC $0678 = 3F                  A:40 X:33
D715  20 4C F9  JSR $F94C                       A:01 X:33       |       D715  20 4C F9  JSR $F94C                       A:01 X:33
F94C  F0 0B     BEQ $F959                       A:01 X:33       |       F94C  F0 0B     BEQ $F959                       A:01 X:33
F94E  30 09     BMI $F959                       A:01 X:33       |       F94E  30 09     BMI $F959                       A:01 X:33
F950  90 07     BCC $F959                       A:01 X:33       |       F950  90 07     BCC $F959                       A:01 X:33
F952  70 05     BVS $F959                       A:01 X:33       |       F952  70 05     BVS $F959                       A:01 X:33
F954  C9 01     CMP #$01                        A:01 X:33       |       F954  C9 01     CMP #$01                        A:01 X:33
F956  D0 01     BNE $F959                       A:01 X:33       |       F956  D0 01     BNE $F959                       A:01 X:33
F958  60        RTS                             A:01 X:33       |       F958  60        RTS                             A:01 X:33
D718  C8        INY                             A:01 X:33       |       D718  C8        INY                             A:01 X:33
D719  A9 41     LDA #$41                        A:01 X:33       |       D719  A9 41     LDA #$41                        A:01 X:33
D71B  8D 78 06  STA $0678 = 3F                  A:41 X:33       |       D71B  8D 78 06  STA $0678 = 3F                  A:41 X:33
D71E  20 5C F9  JSR $F95C                       A:41 X:33       |       D71E  20 5C F9  JSR $F95C                       A:41 X:33
F95C  A9 40     LDA #$40                        A:41 X:33       |       F95C  A9 40     LDA #$40                        A:41 X:33
F95E  38        SEC                             A:40 X:33       |       F95E  38        SEC                             A:40 X:33
F95F  24 01     BIT $01 = FF                    A:40 X:33       |       F95F  24 01     BIT $01 = FF                    A:40 X:33
F961  60        RTS                             A:40 X:33       |       F961  60        RTS                             A:40 X:33
D721  ED 78 06  SBC $0678 = 41                  A:40 X:33       |       D721  ED 78 06  SBC $0678 = 41                  A:40 X:33
D724  20 62 F9  JSR $F962                       A:FF X:33       |       D724  20 62 F9  JSR $F962                       A:FF X:33
F962  B0 0B     BCS $F96F                       A:FF X:33       |       F962  B0 0B     BCS $F96F                       A:FF X:33
F964  F0 09     BEQ $F96F                       A:FF X:33       |       F964  F0 09     BEQ $F96F                       A:FF X:33
F966  10 07     BPL $F96F                       A:FF X:33       |       F966  10 07     BPL $F96F                       A:FF X:33
F968  70 05     BVS $F96F                       A:FF X:33       |       F968  70 05     BVS $F96F                       A:FF X:33
F96A  C9 FF     CMP #$FF                        A:FF X:33       |       F96A  C9 FF     CMP #$FF                        A:FF X:33
F96C  D0 01     BNE $F96F                       A:FF X:33       |       F96C  D0 01     BNE $F96F                       A:FF X:33
F96E  60        RTS                             A:FF X:33       |       F96E  60        RTS                             A:FF X:33
D727  C8        INY                             A:FF X:33       |       D727  C8        INY                             A:FF X:33
D728  A9 00     LDA #$00                        A:FF X:33       |       D728  A9 00     LDA #$00                        A:FF X:33
D72A  8D 78 06  STA $0678 = 41                  A:00 X:33       |       D72A  8D 78 06  STA $0678 = 41                  A:00 X:33
D72D  20 72 F9  JSR $F972                       A:00 X:33       |       D72D  20 72 F9  JSR $F972                       A:00 X:33
F972  18        CLC                             A:00 X:33       |       F972  18        CLC                             A:00 X:33
F973  A9 80     LDA #$80                        A:00 X:33       |       F973  A9 80     LDA #$80                        A:00 X:33
F975  60        RTS                             A:80 X:33       |       F975  60        RTS                             A:80 X:33
D730  ED 78 06  SBC $0678 = 00                  A:80 X:33       |       D730  ED 78 06  SBC $0678 = 00                  A:80 X:33
D733  20 76 F9  JSR $F976                       A:7F X:33       |       D733  20 76 F9  JSR $F976                       A:7F X:33
F976  90 05     BCC $F97D                       A:7F X:33       |       F976  90 05     BCC $F97D                       A:7F X:33
F978  C9 7F     CMP #$7F                        A:7F X:33       |       F978  C9 7F     CMP #$7F                        A:7F X:33
F97A  D0 01     BNE $F97D                       A:7F X:33       |       F97A  D0 01     BNE $F97D                       A:7F X:33
F97C  60        RTS                             A:7F X:33       |       F97C  60        RTS                             A:7F X:33
D736  C8        INY                             A:7F X:33       |       D736  C8        INY                             A:7F X:33
D737  A9 7F     LDA #$7F                        A:7F X:33       |       D737  A9 7F     LDA #$7F                        A:7F X:33
D739  8D 78 06  STA $0678 = 00                  A:7F X:33       |       D739  8D 78 06  STA $0678 = 00                  A:7F X:33
D73C  20 80 F9  JSR $F980                       A:7F X:33       |       D73C  20 80 F9  JSR $F980                       A:7F X:33
F980  38        SEC                             A:7F X:33       |       F980  38        SEC                             A:7F X:33
F981  A9 81     LDA #$81                        A:7F X:33       |       F981  A9 81     LDA #$81                        A:7F X:33
F983  60        RTS                             A:81 X:33       |       F983  60        RTS                             A:81 X:33
D73F  ED 78 06  SBC $0678 = 7F                  A:81 X:33       |       D73F  ED 78 06  SBC $0678 = 7F                  A:81 X:33
D742  20 84 F9  JSR $F984                       A:02 X:33       |       D742  20 84 F9  JSR $F984                       A:02 X:33
F984  50 07     BVC $F98D                       A:02 X:33       |       F984  50 07     BVC $F98D                       A:02 X:33
F986  90 05     BCC $F98D                       A:02 X:33       |       F986  90 05     BCC $F98D                       A:02 X:33
F988  C9 02     CMP #$02                        A:02 X:33       |       F988  C9 02     CMP #$02                        A:02 X:33
F98A  D0 01     BNE $F98D                       A:02 X:33       |       F98A  D0 01     BNE $F98D                       A:02 X:33
F98C  60        RTS                             A:02 X:33       |       F98C  60        RTS                             A:02 X:33
D745  C8        INY                             A:02 X:33       |       D745  C8        INY                             A:02 X:33
D746  A9 40     LDA #$40                        A:02 X:33       |       D746  A9 40     LDA #$40                        A:02 X:33
D748  8D 78 06  STA $0678 = 7F                  A:40 X:33       |       D748  8D 78 06  STA $0678 = 7F                  A:40 X:33
D74B  20 89 F8  JSR $F889                       A:40 X:33       |       D74B  20 89 F8  JSR $F889                       A:40 X:33
F889  24 01     BIT $01 = FF                    A:40 X:33       |       F889  24 01     BIT $01 = FF                    A:40 X:33
F88B  A9 40     LDA #$40                        A:40 X:33       |       F88B  A9 40     LDA #$40                        A:40 X:33
F88D  60        RTS                             A:40 X:33       |       F88D  60        RTS                             A:40 X:33
D74E  AA        TAX                             A:40 X:33       |       D74E  AA        TAX                             A:40 X:33
D74F  EC 78 06  CPX $0678 = 40                  A:40 X:40       |       D74F  EC 78 06  CPX $0678 = 40                  A:40 X:40
D752  20 8E F8  JSR $F88E                       A:40 X:40       |       D752  20 8E F8  JSR $F88E                       A:40 X:40
F88E  30 07     BMI $F897                       A:40 X:40       |       F88E  30 07     BMI $F897                       A:40 X:40
F890  90 05     BCC $F897                       A:40 X:40       |       F890  90 05     BCC $F897                       A:40 X:40
F892  D0 03     BNE $F897                       A:40 X:40       |       F892  D0 03     BNE $F897                       A:40 X:40
F894  50 01     BVC $F897                       A:40 X:40       |       F894  50 01     BVC $F897                       A:40 X:40
F896  60        RTS                             A:40 X:40       |       F896  60        RTS                             A:40 X:40
D755  C8        INY                             A:40 X:40       |       D755  C8        INY                             A:40 X:40
D756  A9 3F     LDA #$3F                        A:40 X:40       |       D756  A9 3F     LDA #$3F                        A:40 X:40
D758  8D 78 06  STA $0678 = 40                  A:3F X:40       |       D758  8D 78 06  STA $0678 = 40                  A:3F X:40
D75B  20 9A F8  JSR $F89A                       A:3F X:40       |       D75B  20 9A F8  JSR $F89A                       A:3F X:40
F89A  B8        CLV                             A:3F X:40       |       F89A  B8        CLV                             A:3F X:40
F89B  60        RTS                             A:3F X:40       |       F89B  60        RTS                             A:3F X:40
D75E  EC 78 06  CPX $0678 = 3F                  A:3F X:40       |       D75E  EC 78 06  CPX $0678 = 3F                  A:3F X:40
D761  20 9C F8  JSR $F89C                       A:3F X:40       |       D761  20 9C F8  JSR $F89C                       A:3F X:40
F89C  F0 07     BEQ $F8A5                       A:3F X:40       |       F89C  F0 07     BEQ $F8A5                       A:3F X:40
F89E  30 05     BMI $F8A5                       A:3F X:40       |       F89E  30 05     BMI $F8A5                       A:3F X:40
F8A0  90 03     BCC $F8A5                       A:3F X:40       |       F8A0  90 03     BCC $F8A5                       A:3F X:40
F8A2  70 01     BVS $F8A5                       A:3F X:40       |       F8A2  70 01     BVS $F8A5                       A:3F X:40
F8A4  60        RTS                             A:3F X:40       |       F8A4  60        RTS                             A:3F X:40
D764  C8        INY                             A:3F X:40       |       D764  C8        INY                             A:3F X:40
D765  A9 41     LDA #$41                        A:3F X:40       |       D765  A9 41     LDA #$41                        A:3F X:40
D767  8D 78 06  STA $0678 = 3F                  A:41 X:40       |       D767  8D 78 06  STA $0678 = 3F                  A:41 X:40
D76A  EC 78 06  CPX $0678 = 41                  A:41 X:40       |       D76A  EC 78 06  CPX $0678 = 41                  A:41 X:40
D76D  20 A8 F8  JSR $F8A8                       A:41 X:40       |       D76D  20 A8 F8  JSR $F8A8                       A:41 X:40
F8A8  F0 05     BEQ $F8AF                       A:41 X:40       |       F8A8  F0 05     BEQ $F8AF                       A:41 X:40
F8AA  10 03     BPL $F8AF                       A:41 X:40       |       F8AA  10 03     BPL $F8AF                       A:41 X:40
F8AC  10 01     BPL $F8AF                       A:41 X:40       |       F8AC  10 01     BPL $F8AF                       A:41 X:40
F8AE  60        RTS                             A:41 X:40       |       F8AE  60        RTS                             A:41 X:40
D770  C8        INY                             A:41 X:40       |       D770  C8        INY                             A:41 X:40
D771  A9 00     LDA #$00                        A:41 X:40       |       D771  A9 00     LDA #$00                        A:41 X:40
D773  8D 78 06  STA $0678 = 41                  A:00 X:40       |       D773  8D 78 06  STA $0678 = 41                  A:00 X:40
D776  20 B2 F8  JSR $F8B2                       A:00 X:40       |       D776  20 B2 F8  JSR $F8B2                       A:00 X:40
F8B2  A9 80     LDA #$80                        A:00 X:40       |       F8B2  A9 80     LDA #$80                        A:00 X:40
F8B4  60        RTS                             A:80 X:40       |       F8B4  60        RTS                             A:80 X:40
D779  AA        TAX                             A:80 X:40       |       D779  AA        TAX                             A:80 X:40
D77A  EC 78 06  CPX $0678 = 00                  A:80 X:80       |       D77A  EC 78 06  CPX $0678 = 00                  A:80 X:80
D77D  20 B5 F8  JSR $F8B5                       A:80 X:80       |       D77D  20 B5 F8  JSR $F8B5                       A:80 X:80
F8B5  F0 05     BEQ $F8BC                       A:80 X:80       |       F8B5  F0 05     BEQ $F8BC                       A:80 X:80
F8B7  10 03     BPL $F8BC                       A:80 X:80       |       F8B7  10 03     BPL $F8BC                       A:80 X:80
F8B9  90 01     BCC $F8BC                       A:80 X:80       |       F8B9  90 01     BCC $F8BC                       A:80 X:80
F8BB  60        RTS                             A:80 X:80       |       F8BB  60        RTS                             A:80 X:80
D780  C8        INY                             A:80 X:80       |       D780  C8        INY                             A:80 X:80
D781  A9 80     LDA #$80                        A:80 X:80       |       D781  A9 80     LDA #$80                        A:80 X:80
D783  8D 78 06  STA $0678 = 00                  A:80 X:80       |       D783  8D 78 06  STA $0678 = 00                  A:80 X:80
D786  EC 78 06  CPX $0678 = 80                  A:80 X:80       |       D786  EC 78 06  CPX $0678 = 80                  A:80 X:80
D789  20 BF F8  JSR $F8BF                       A:80 X:80       |       D789  20 BF F8  JSR $F8BF                       A:80 X:80
F8BF  D0 05     BNE $F8C6                       A:80 X:80       |       F8BF  D0 05     BNE $F8C6                       A:80 X:80
F8C1  30 03     BMI $F8C6                       A:80 X:80       |       F8C1  30 03     BMI $F8C6                       A:80 X:80
F8C3  90 01     BCC $F8C6                       A:80 X:80       |       F8C3  90 01     BCC $F8C6                       A:80 X:80
F8C5  60        RTS                             A:80 X:80       |       F8C5  60        RTS                             A:80 X:80
D78C  C8        INY                             A:80 X:80       |       D78C  C8        INY                             A:80 X:80
D78D  A9 81     LDA #$81                        A:80 X:80       |       D78D  A9 81     LDA #$81                        A:80 X:80
D78F  8D 78 06  STA $0678 = 80                  A:81 X:80       |       D78F  8D 78 06  STA $0678 = 80                  A:81 X:80
D792  EC 78 06  CPX $0678 = 81                  A:81 X:80       |       D792  EC 78 06  CPX $0678 = 81                  A:81 X:80
D795  20 C9 F8  JSR $F8C9                       A:81 X:80       |       D795  20 C9 F8  JSR $F8C9                       A:81 X:80
F8C9  B0 05     BCS $F8D0                       A:81 X:80       |       F8C9  B0 05     BCS $F8D0                       A:81 X:80
F8CB  F0 03     BEQ $F8D0                       A:81 X:80       |       F8CB  F0 03     BEQ $F8D0                       A:81 X:80
F8CD  10 01     BPL $F8D0                       A:81 X:80       |       F8CD  10 01     BPL $F8D0                       A:81 X:80
F8CF  60        RTS                             A:81 X:80       |       F8CF  60        RTS                             A:81 X:80
D798  C8        INY                             A:81 X:80       |       D798  C8        INY                             A:81 X:80
D799  A9 7F     LDA #$7F                        A:81 X:80       |       D799  A9 7F     LDA #$7F                        A:81 X:80
D79B  8D 78 06  STA $0678 = 81                  A:7F X:80       |       D79B  8D 78 06  STA $0678 = 81                  A:7F X:80
D79E  EC 78 06  CPX $0678 = 7F                  A:7F X:80       |       D79E  EC 78 06  CPX $0678 = 7F                  A:7F X:80
D7A1  20 D3 F8  JSR $F8D3                       A:7F X:80       |       D7A1  20 D3 F8  JSR $F8D3                       A:7F X:80
F8D3  90 05     BCC $F8DA                       A:7F X:80       |       F8D3  90 05     BCC $F8DA                       A:7F X:80
F8D5  F0 03     BEQ $F8DA                       A:7F X:80       |       F8D5  F0 03     BEQ $F8DA                       A:7F X:80
F8D7  30 01     BMI $F8DA                       A:7F X:80       |       F8D7  30 01     BMI $F8DA                       A:7F X:80
F8D9  60        RTS                             A:7F X:80       |       F8D9  60        RTS                             A:7F X:80
D7A4  C8        INY                             A:7F X:80       |       D7A4  C8        INY                             A:7F X:80
D7A5  98        TYA                             A:7F X:80       |       D7A5  98        TYA                             A:7F X:80
D7A6  AA        TAX                             A:D6 X:80       |       D7A6  AA        TAX                             A:D6 X:80
D7A7  A9 40     LDA #$40                        A:D6 X:D6       |       D7A7  A9 40     LDA #$40                        A:D6 X:D6
D7A9  8D 78 06  STA $0678 = 7F                  A:40 X:D6       |       D7A9  8D 78 06  STA $0678 = 7F                  A:40 X:D6
D7AC  20 DD F8  JSR $F8DD                       A:40 X:D6       |       D7AC  20 DD F8  JSR $F8DD                       A:40 X:D6
F8DD  24 01     BIT $01 = FF                    A:40 X:D6       |       F8DD  24 01     BIT $01 = FF                    A:40 X:D6
F8DF  A0 40     LDY #$40                        A:40 X:D6       |       F8DF  A0 40     LDY #$40                        A:40 X:D6
F8E1  60        RTS                             A:40 X:D6       |       F8E1  60        RTS                             A:40 X:D6
D7AF  CC 78 06  CPY $0678 = 40                  A:40 X:D6       |       D7AF  CC 78 06  CPY $0678 = 40                  A:40 X:D6
D7B2  20 E2 F8  JSR $F8E2                       A:40 X:D6       |       D7B2  20 E2 F8  JSR $F8E2                       A:40 X:D6
F8E2  30 07     BMI $F8EB                       A:40 X:D6       |       F8E2  30 07     BMI $F8EB                       A:40 X:D6
F8E4  90 05     BCC $F8EB                       A:40 X:D6       |       F8E4  90 05     BCC $F8EB                       A:40 X:D6
F8E6  D0 03     BNE $F8EB                       A:40 X:D6       |       F8E6  D0 03     BNE $F8EB                       A:40 X:D6
F8E8  50 01     BVC $F8EB                       A:40 X:D6       |       F8E8  50 01     BVC $F8EB                       A:40 X:D6
F8EA  60        RTS                             A:40 X:D6       |       F8EA  60        RTS                             A:40 X:D6
D7B5  E8        INX                             A:40 X:D6       |       D7B5  E8        INX                             A:40 X:D6
D7B6  A9 3F     LDA #$3F                        A:40 X:D7       |       D7B6  A9 3F     LDA #$3F                        A:40 X:D7
D7B8  8D 78 06  STA $0678 = 40                  A:3F X:D7       |       D7B8  8D 78 06  STA $0678 = 40                  A:3F X:D7
D7BB  20 EE F8  JSR $F8EE                       A:3F X:D7       |       D7BB  20 EE F8  JSR $F8EE                       A:3F X:D7
F8EE  B8        CLV                             A:3F X:D7       |       F8EE  B8        CLV                             A:3F X:D7
F8EF  60        RTS                             A:3F X:D7       |       F8EF  60        RTS                             A:3F X:D7
D7BE  CC 78 06  CPY $0678 = 3F                  A:3F X:D7       |       D7BE  CC 78 06  CPY $0678 = 3F                  A:3F X:D7
D7C1  20 F0 F8  JSR $F8F0                       A:3F X:D7       |       D7C1  20 F0 F8  JSR $F8F0                       A:3F X:D7
F8F0  F0 07     BEQ $F8F9                       A:3F X:D7       |       F8F0  F0 07     BEQ $F8F9                       A:3F X:D7
F8F2  30 05     BMI $F8F9                       A:3F X:D7       |       F8F2  30 05     BMI $F8F9                       A:3F X:D7
F8F4  90 03     BCC $F8F9                       A:3F X:D7       |       F8F4  90 03     BCC $F8F9                       A:3F X:D7
F8F6  70 01     BVS $F8F9                       A:3F X:D7       |       F8F6  70 01     BVS $F8F9                       A:3F X:D7
F8F8  60        RTS                             A:3F X:D7       |       F8F8  60        RTS                             A:3F X:D7
D7C4  E8        INX                             A:3F X:D7       |       D7C4  E8        INX                             A:3F X:D7
D7C5  A9 41     LDA #$41                        A:3F X:D8       |       D7C5  A9 41     LDA #$41                        A:3F X:D8
D7C7  8D 78 06  STA $0678 = 3F                  A:41 X:D8       |       D7C7  8D 78 06  STA $0678 = 3F                  A:41 X:D8
D7CA  CC 78 06  CPY $0678 = 41                  A:41 X:D8       |       D7CA  CC 78 06  CPY $0678 = 41                  A:41 X:D8
D7CD  20 FC F8  JSR $F8FC                       A:41 X:D8       |       D7CD  20 FC F8  JSR $F8FC                       A:41 X:D8
F8FC  F0 05     BEQ $F903                       A:41 X:D8       |       F8FC  F0 05     BEQ $F903                       A:41 X:D8
F8FE  10 03     BPL $F903                       A:41 X:D8       |       F8FE  10 03     BPL $F903                       A:41 X:D8
F900  10 01     BPL $F903                       A:41 X:D8       |       F900  10 01     BPL $F903                       A:41 X:D8
F902  60        RTS                             A:41 X:D8       |       F902  60        RTS                             A:41 X:D8
D7D0  E8        INX                             A:41 X:D8       |       D7D0  E8        INX                             A:41 X:D8
D7D1  A9 00     LDA #$00                        A:41 X:D9       |       D7D1  A9 00     LDA #$00                        A:41 X:D9
D7D3  8D 78 06  STA $0678 = 41                  A:00 X:D9       |       D7D3  8D 78 06  STA $0678 = 41                  A:00 X:D9
D7D6  20 06 F9  JSR $F906                       A:00 X:D9       |       D7D6  20 06 F9  JSR $F906                       A:00 X:D9
F906  A0 80     LDY #$80                        A:00 X:D9       |       F906  A0 80     LDY #$80                        A:00 X:D9
F908  60        RTS                             A:00 X:D9       |       F908  60        RTS                             A:00 X:D9
D7D9  CC 78 06  CPY $0678 = 00                  A:00 X:D9       |       D7D9  CC 78 06  CPY $0678 = 00                  A:00 X:D9
D7DC  20 09 F9  JSR $F909                       A:00 X:D9       |       D7DC  20 09 F9  JSR $F909                       A:00 X:D9
F909  F0 05     BEQ $F910                       A:00 X:D9       |       F909  F0 05     BEQ $F910                       A:00 X:D9
F90B  10 03     BPL $F910                       A:00 X:D9       |       F90B  10 03     BPL $F910                       A:00 X:D9
F90D  90 01     BCC $F910                       A:00 X:D9       |       F90D  90 01     BCC $F910                       A:00 X:D9
F90F  60        RTS                             A:00 X:D9       |       F90F  60        RTS                             A:00 X:D9
D7DF  E8        INX                             A:00 X:D9       |       D7DF  E8        INX                             A:00 X:D9
D7E0  A9 80     LDA #$80                        A:00 X:DA       |       D7E0  A9 80     LDA #$80                        A:00 X:DA
D7E2  8D 78 06  STA $0678 = 00                  A:80 X:DA       |       D7E2  8D 78 06  STA $0678 = 00                  A:80 X:DA
D7E5  CC 78 06  CPY $0678 = 80                  A:80 X:DA       |       D7E5  CC 78 06  CPY $0678 = 80                  A:80 X:DA
D7E8  20 13 F9  JSR $F913                       A:80 X:DA       |       D7E8  20 13 F9  JSR $F913                       A:80 X:DA
F913  D0 05     BNE $F91A                       A:80 X:DA       |       F913  D0 05     BNE $F91A                       A:80 X:DA
F915  30 03     BMI $F91A                       A:80 X:DA       |       F915  30 03     BMI $F91A                       A:80 X:DA
F917  90 01     BCC $F91A                       A:80 X:DA       |       F917  90 01     BCC $F91A                       A:80 X:DA
F919  60        RTS                             A:80 X:DA       |       F919  60        RTS                             A:80 X:DA
D7EB  E8        INX                             A:80 X:DA       |       D7EB  E8        INX                             A:80 X:DA
D7EC  A9 81     LDA #$81                        A:80 X:DB       |       D7EC  A9 81     LDA #$81                        A:80 X:DB
D7EE  8D 78 06  STA $0678 = 80                  A:81 X:DB       |       D7EE  8D 78 06  STA $0678 = 80                  A:81 X:DB
D7F1  CC 78 06  CPY $0678 = 81                  A:81 X:DB       |       D7F1  CC 78 06  CPY $0678 = 81                  A:81 X:DB
D7F4  20 1D F9  JSR $F91D                       A:81 X:DB       |       D7F4  20 1D F9  JSR $F91D                       A:81 X:DB
F91D  B0 05     BCS $F924                       A:81 X:DB       |       F91D  B0 05     BCS $F924                       A:81 X:DB
F91F  F0 03     BEQ $F924                       A:81 X:DB       |       F91F  F0 03     BEQ $F924                       A:81 X:DB
F921  10 01     BPL $F924                       A:81 X:DB       |       F921  10 01     BPL $F924                       A:81 X:DB
F923  60        RTS                             A:81 X:DB       |       F923  60        RTS                             A:81 X:DB
D7F7  E8        INX                             A:81 X:DB       |       D7F7  E8        INX                             A:81 X:DB
D7F8  A9 7F     LDA #$7F                        A:81 X:DC       |       D7F8  A9 7F     LDA #$7F                        A:81 X:DC
D7FA  8D 78 06  STA $0678 = 81                  A:7F X:DC       |       D7FA  8D 78 06  STA $0678 = 81                  A:7F X:DC
D7FD  CC 78 06  CPY $0678 = 7F                  A:7F X:DC       |       D7FD  CC 78 06  CPY $0678 = 7F                  A:7F X:DC
D800  20 27 F9  JSR $F927                       A:7F X:DC       |       D800  20 27 F9  JSR $F927                       A:7F X:DC
F927  90 05     BCC $F92E                       A:7F X:DC       |       F927  90 05     BCC $F92E                       A:7F X:DC
F929  F0 03     BEQ $F92E                       A:7F X:DC       |       F929  F0 03     BEQ $F92E                       A:7F X:DC
F92B  30 01     BMI $F92E                       A:7F X:DC       |       F92B  30 01     BMI $F92E                       A:7F X:DC
F92D  60        RTS                             A:7F X:DC       |       F92D  60        RTS                             A:7F X:DC
D803  E8        INX                             A:7F X:DC       |       D803  E8        INX                             A:7F X:DC
D804  8A        TXA                             A:7F X:DD       |       D804  8A        TXA                             A:7F X:DD
D805  A8        TAY                             A:DD X:DD       |       D805  A8        TAY                             A:DD X:DD
D806  20 90 F9  JSR $F990                       A:DD X:DD       |       D806  20 90 F9  JSR $F990                       A:DD X:DD
F990  A2 55     LDX #$55                        A:DD X:DD       |       F990  A2 55     LDX #$55                        A:DD X:DD
F992  A9 FF     LDA #$FF                        A:DD X:55       |       F992  A9 FF     LDA #$FF                        A:DD X:55
F994  85 01     STA $01 = FF                    A:FF X:55       |       F994  85 01     STA $01 = FF                    A:FF X:55
F996  EA        NOP                             A:FF X:55       |       F996  EA        NOP                             A:FF X:55
F997  24 01     BIT $01 = FF                    A:FF X:55       |       F997  24 01     BIT $01 = FF                    A:FF X:55
F999  38        SEC                             A:FF X:55       |       F999  38        SEC                             A:FF X:55
F99A  A9 01     LDA #$01                        A:FF X:55       |       F99A  A9 01     LDA #$01                        A:FF X:55
F99C  60        RTS                             A:01 X:55       |       F99C  60        RTS                             A:01 X:55
D809  8D 78 06  STA $0678 = 7F                  A:01 X:55       |       D809  8D 78 06  STA $0678 = 7F                  A:01 X:55
D80C  4E 78 06  LSR $0678 = 01                  A:01 X:55       |       D80C  4E 78 06  LSR $0678 = 01                  A:01 X:55
D80F  AD 78 06  LDA $0678 = 00                  A:01 X:55       |       D80F  AD 78 06  LDA $0678 = 00                  A:01 X:55
D812  20 9D F9  JSR $F99D                       A:00 X:55       |       D812  20 9D F9  JSR $F99D                       A:00 X:55
F99D  90 1B     BCC $F9BA                       A:00 X:55       |       F99D  90 1B     BCC $F9BA                       A:00 X:55
F99F  D0 19     BNE $F9BA                       A:00 X:55       |       F99F  D0 19     BNE $F9BA                       A:00 X:55
F9A1  30 17     BMI $F9BA                       A:00 X:55       |       F9A1  30 17     BMI $F9BA                       A:00 X:55
F9A3  50 15     BVC $F9BA                       A:00 X:55       |       F9A3  50 15     BVC $F9BA                       A:00 X:55
F9A5  C9 00     CMP #$00                        A:00 X:55       |       F9A5  C9 00     CMP #$00                        A:00 X:55
F9A7  D0 11     BNE $F9BA                       A:00 X:55       |       F9A7  D0 11     BNE $F9BA                       A:00 X:55
F9A9  B8        CLV                             A:00 X:55       |       F9A9  B8        CLV                             A:00 X:55
F9AA  A9 AA     LDA #$AA                        A:00 X:55       |       F9AA  A9 AA     LDA #$AA                        A:00 X:55
F9AC  60        RTS                             A:AA X:55       |       F9AC  60        RTS                             A:AA X:55
D815  C8        INY                             A:AA X:55       |       D815  C8        INY                             A:AA X:55
D816  8D 78 06  STA $0678 = 00                  A:AA X:55       |       D816  8D 78 06  STA $0678 = 00                  A:AA X:55
D819  4E 78 06  LSR $0678 = AA                  A:AA X:55       |       D819  4E 78 06  LSR $0678 = AA                  A:AA X:55
D81C  AD 78 06  LDA $0678 = 55                  A:AA X:55       |       D81C  AD 78 06  LDA $0678 = 55                  A:AA X:55
D81F  20 AD F9  JSR $F9AD                       A:55 X:55       |       D81F  20 AD F9  JSR $F9AD                       A:55 X:55
F9AD  B0 0B     BCS $F9BA                       A:55 X:55       |       F9AD  B0 0B     BCS $F9BA                       A:55 X:55
F9AF  F0 09     BEQ $F9BA                       A:55 X:55       |       F9AF  F0 09     BEQ $F9BA                       A:55 X:55
F9B1  30 07     BMI $F9BA                       A:55 X:55       |       F9B1  30 07     BMI $F9BA                       A:55 X:55
F9B3  70 05     BVS $F9BA                       A:55 X:55       |       F9B3  70 05     BVS $F9BA                       A:55 X:55
F9B5  C9 55     CMP #$55                        A:55 X:55       |       F9B5  C9 55     CMP #$55                        A:55 X:55
F9B7  D0 01     BNE $F9BA                       A:55 X:55       |       F9B7  D0 01     BNE $F9BA                       A:55 X:55
F9B9  60        RTS                             A:55 X:55       |       F9B9  60        RTS                             A:55 X:55
D822  C8        INY                             A:55 X:55       |       D822  C8        INY                             A:55 X:55
D823  20 BD F9  JSR $F9BD                       A:55 X:55       |       D823  20 BD F9  JSR $F9BD                       A:55 X:55
F9BD  24 01     BIT $01 = FF                    A:55 X:55       |       F9BD  24 01     BIT $01 = FF                    A:55 X:55
F9BF  38        SEC                             A:55 X:55       |       F9BF  38        SEC                             A:55 X:55
F9C0  A9 80     LDA #$80                        A:55 X:55       |       F9C0  A9 80     LDA #$80                        A:55 X:55
F9C2  60        RTS                             A:80 X:55       |       F9C2  60        RTS                             A:80 X:55
D826  8D 78 06  STA $0678 = 55                  A:80 X:55       |       D826  8D 78 06  STA $0678 = 55                  A:80 X:55
D829  0E 78 06  ASL $0678 = 80                  A:80 X:55       |       D829  0E 78 06  ASL $0678 = 80                  A:80 X:55
D82C  AD 78 06  LDA $0678 = 00                  A:80 X:55       |       D82C  AD 78 06  LDA $0678 = 00                  A:80 X:55
D82F  20 C3 F9  JSR $F9C3                       A:00 X:55       |       D82F  20 C3 F9  JSR $F9C3                       A:00 X:55
F9C3  90 1C     BCC $F9E1                       A:00 X:55       |       F9C3  90 1C     BCC $F9E1                       A:00 X:55
F9C5  D0 1A     BNE $F9E1                       A:00 X:55       |       F9C5  D0 1A     BNE $F9E1                       A:00 X:55
F9C7  30 18     BMI $F9E1                       A:00 X:55       |       F9C7  30 18     BMI $F9E1                       A:00 X:55
F9C9  50 16     BVC $F9E1                       A:00 X:55       |       F9C9  50 16     BVC $F9E1                       A:00 X:55
F9CB  C9 00     CMP #$00                        A:00 X:55       |       F9CB  C9 00     CMP #$00                        A:00 X:55
F9CD  D0 12     BNE $F9E1                       A:00 X:55       |       F9CD  D0 12     BNE $F9E1                       A:00 X:55
F9CF  B8        CLV                             A:00 X:55       |       F9CF  B8        CLV                             A:00 X:55
F9D0  A9 55     LDA #$55                        A:00 X:55       |       F9D0  A9 55     LDA #$55                        A:00 X:55
F9D2  38        SEC                             A:55 X:55       |       F9D2  38        SEC                             A:55 X:55
F9D3  60        RTS                             A:55 X:55       |       F9D3  60        RTS                             A:55 X:55
D832  C8        INY                             A:55 X:55       |       D832  C8        INY                             A:55 X:55
D833  8D 78 06  STA $0678 = 00                  A:55 X:55       |       D833  8D 78 06  STA $0678 = 00                  A:55 X:55
D836  0E 78 06  ASL $0678 = 55                  A:55 X:55       |       D836  0E 78 06  ASL $0678 = 55                  A:55 X:55
D839  AD 78 06  LDA $0678 = AA                  A:55 X:55       |       D839  AD 78 06  LDA $0678 = AA                  A:55 X:55
D83C  20 D4 F9  JSR $F9D4                       A:AA X:55       |       D83C  20 D4 F9  JSR $F9D4                       A:AA X:55
F9D4  B0 0B     BCS $F9E1                       A:AA X:55       |       F9D4  B0 0B     BCS $F9E1                       A:AA X:55
F9D6  F0 09     BEQ $F9E1                       A:AA X:55       |       F9D6  F0 09     BEQ $F9E1                       A:AA X:55
F9D8  10 07     BPL $F9E1                       A:AA X:55       |       F9D8  10 07     BPL $F9E1                       A:AA X:55
F9DA  70 05     BVS $F9E1                       A:AA X:55       |       F9DA  70 05     BVS $F9E1                       A:AA X:55
F9DC  C9 AA     CMP #$AA                        A:AA X:55       |       F9DC  C9 AA     CMP #$AA                        A:AA X:55
F9DE  D0 01     BNE $F9E1                       A:AA X:55       |       F9DE  D0 01     BNE $F9E1                       A:AA X:55
F9E0  60        RTS                             A:AA X:55       |       F9E0  60        RTS                             A:AA X:55
D83F  C8        INY                             A:AA X:55       |       D83F  C8        INY                             A:AA X:55
D840  20 E4 F9  JSR $F9E4                       A:AA X:55       |       D840  20 E4 F9  JSR $F9E4                       A:AA X:55
F9E4  24 01     BIT $01 = FF                    A:AA X:55       |       F9E4  24 01     BIT $01 = FF                    A:AA X:55
F9E6  38        SEC                             A:AA X:55       |       F9E6  38        SEC                             A:AA X:55
F9E7  A9 01     LDA #$01                        A:AA X:55       |       F9E7  A9 01     LDA #$01                        A:AA X:55
F9E9  60        RTS                             A:01 X:55       |       F9E9  60        RTS                             A:01 X:55
D843  8D 78 06  STA $0678 = AA                  A:01 X:55       |       D843  8D 78 06  STA $0678 = AA                  A:01 X:55
D846  6E 78 06  ROR $0678 = 01                  A:01 X:55       |       D846  6E 78 06  ROR $0678 = 01                  A:01 X:55
D849  AD 78 06  LDA $0678 = 80                  A:01 X:55       |       D849  AD 78 06  LDA $0678 = 80                  A:01 X:55
D84C  20 EA F9  JSR $F9EA                       A:80 X:55       |       D84C  20 EA F9  JSR $F9EA                       A:80 X:55
F9EA  90 1C     BCC $FA08                       A:80 X:55       |       F9EA  90 1C     BCC $FA08                       A:80 X:55
F9EC  F0 1A     BEQ $FA08                       A:80 X:55       |       F9EC  F0 1A     BEQ $FA08                       A:80 X:55
F9EE  10 18     BPL $FA08                       A:80 X:55       |       F9EE  10 18     BPL $FA08                       A:80 X:55
F9F0  50 16     BVC $FA08                       A:80 X:55       |       F9F0  50 16     BVC $FA08                       A:80 X:55
F9F2  C9 80     CMP #$80                        A:80 X:55       |       F9F2  C9 80     CMP #$80                        A:80 X:55
F9F4  D0 12     BNE $FA08                       A:80 X:55       |       F9F4  D0 12     BNE $FA08                       A:80 X:55
F9F6  B8        CLV                             A:80 X:55       |       F9F6  B8        CLV                             A:80 X:55
F9F7  18        CLC                             A:80 X:55       |       F9F7  18        CLC                             A:80 X:55
F9F8  A9 55     LDA #$55                        A:80 X:55       |       F9F8  A9 55     LDA #$55                        A:80 X:55
F9FA  60        RTS                             A:55 X:55       |       F9FA  60        RTS                             A:55 X:55
D84F  C8        INY                             A:55 X:55       |       D84F  C8        INY                             A:55 X:55
D850  8D 78 06  STA $0678 = 80                  A:55 X:55       |       D850  8D 78 06  STA $0678 = 80                  A:55 X:55
D853  6E 78 06  ROR $0678 = 55                  A:55 X:55       |       D853  6E 78 06  ROR $0678 = 55                  A:55 X:55
D856  AD 78 06  LDA $0678 = 2A                  A:55 X:55       |       D856  AD 78 06  LDA $0678 = 2A                  A:55 X:55
D859  20 FB F9  JSR $F9FB                       A:2A X:55       |       D859  20 FB F9  JSR $F9FB                       A:2A X:55
F9FB  90 0B     BCC $FA08                       A:2A X:55       |       F9FB  90 0B     BCC $FA08                       A:2A X:55
F9FD  F0 09     BEQ $FA08                       A:2A X:55       |       F9FD  F0 09     BEQ $FA08                       A:2A X:55
F9FF  30 07     BMI $FA08                       A:2A X:55       |       F9FF  30 07     BMI $FA08                       A:2A X:55
FA01  70 05     BVS $FA08                       A:2A X:55       |       FA01  70 05     BVS $FA08                       A:2A X:55
FA03  C9 2A     CMP #$2A                        A:2A X:55       |       FA03  C9 2A     CMP #$2A                        A:2A X:55
FA05  D0 01     BNE $FA08                       A:2A X:55       |       FA05  D0 01     BNE $FA08                       A:2A X:55
FA07  60        RTS                             A:2A X:55       |       FA07  60        RTS                             A:2A X:55
D85C  C8        INY                             A:2A X:55       |       D85C  C8        INY                             A:2A X:55
D85D  20 0A FA  JSR $FA0A                       A:2A X:55       |       D85D  20 0A FA  JSR $FA0A                       A:2A X:55
FA0A  24 01     BIT $01 = FF                    A:2A X:55       |       FA0A  24 01     BIT $01 = FF                    A:2A X:55
FA0C  38        SEC                             A:2A X:55       |       FA0C  38        SEC                             A:2A X:55
FA0D  A9 80     LDA #$80                        A:2A X:55       |       FA0D  A9 80     LDA #$80                        A:2A X:55
FA0F  60        RTS                             A:80 X:55       |       FA0F  60        RTS                             A:80 X:55
D860  8D 78 06  STA $0678 = 2A                  A:80 X:55       |       D860  8D 78 06  STA $0678 = 2A                  A:80 X:55
D863  2E 78 06  ROL $0678 = 80                  A:80 X:55       |       D863  2E 78 06  ROL $0678 = 80                  A:80 X:55
D866  AD 78 06  LDA $0678 = 01                  A:80 X:55       |       D866  AD 78 06  LDA $0678 = 01                  A:80 X:55
D869  20 10 FA  JSR $FA10                       A:01 X:55       |       D869  20 10 FA  JSR $FA10                       A:01 X:55
FA10  90 1C     BCC $FA2E                       A:01 X:55       |       FA10  90 1C     BCC $FA2E                       A:01 X:55
FA12  F0 1A     BEQ $FA2E                       A:01 X:55       |       FA12  F0 1A     BEQ $FA2E                       A:01 X:55
FA14  30 18     BMI $FA2E                       A:01 X:55       |       FA14  30 18     BMI $FA2E                       A:01 X:55
FA16  50 16     BVC $FA2E                       A:01 X:55       |       FA16  50 16     BVC $FA2E                       A:01 X:55
FA18  C9 01     CMP #$01                        A:01 X:55       |       FA18  C9 01     CMP #$01                        A:01 X:55
FA1A  D0 12     BNE $FA2E                       A:01 X:55       |       FA1A  D0 12     BNE $FA2E                       A:01 X:55
FA1C  B8        CLV                             A:01 X:55       |       FA1C  B8        CLV                             A:01 X:55
FA1D  18        CLC                             A:01 X:55       |       FA1D  18        CLC                             A:01 X:55
FA1E  A9 55     LDA #$55                        A:01 X:55       |       FA1E  A9 55     LDA #$55                        A:01 X:55
FA20  60        RTS                             A:55 X:55       |       FA20  60        RTS                             A:55 X:55
D86C  C8        INY                             A:55 X:55       |       D86C  C8        INY                             A:55 X:55
D86D  8D 78 06  STA $0678 = 01                  A:55 X:55       |       D86D  8D 78 06  STA $0678 = 01                  A:55 X:55
D870  2E 78 06  ROL $0678 = 55                  A:55 X:55       |       D870  2E 78 06  ROL $0678 = 55                  A:55 X:55
D873  AD 78 06  LDA $0678 = AA                  A:55 X:55       |       D873  AD 78 06  LDA $0678 = AA                  A:55 X:55
D876  20 21 FA  JSR $FA21                       A:AA X:55       |       D876  20 21 FA  JSR $FA21                       A:AA X:55
FA21  B0 0B     BCS $FA2E                       A:AA X:55       |       FA21  B0 0B     BCS $FA2E                       A:AA X:55
FA23  F0 09     BEQ $FA2E                       A:AA X:55       |       FA23  F0 09     BEQ $FA2E                       A:AA X:55
FA25  10 07     BPL $FA2E                       A:AA X:55       |       FA25  10 07     BPL $FA2E                       A:AA X:55
FA27  70 05     BVS $FA2E                       A:AA X:55       |       FA27  70 05     BVS $FA2E                       A:AA X:55
FA29  C9 AA     CMP #$AA                        A:AA X:55       |       FA29  C9 AA     CMP #$AA                        A:AA X:55
FA2B  D0 01     BNE $FA2E                       A:AA X:55       |       FA2B  D0 01     BNE $FA2E                       A:AA X:55
FA2D  60        RTS                             A:AA X:55       |       FA2D  60        RTS                             A:AA X:55
D879  A9 FF     LDA #$FF                        A:AA X:55       |       D879  A9 FF     LDA #$FF                        A:AA X:55
D87B  8D 78 06  STA $0678 = AA                  A:FF X:55       |       D87B  8D 78 06  STA $0678 = AA                  A:FF X:55
D87E  85 01     STA $01 = FF                    A:FF X:55       |       D87E  85 01     STA $01 = FF                    A:FF X:55
D880  24 01     BIT $01 = FF                    A:FF X:55       |       D880  24 01     BIT $01 = FF                    A:FF X:55
D882  38        SEC                             A:FF X:55       |       D882  38        SEC                             A:FF X:55
D883  EE 78 06  INC $0678 = FF                  A:FF X:55       |       D883  EE 78 06  INC $0678 = FF                  A:FF X:55
D886  D0 0D     BNE $D895                       A:FF X:55       |       D886  D0 0D     BNE $D895                       A:FF X:55
D888  30 0B     BMI $D895                       A:FF X:55       |       D888  30 0B     BMI $D895                       A:FF X:55
D88A  50 09     BVC $D895                       A:FF X:55       |       D88A  50 09     BVC $D895                       A:FF X:55
D88C  90 07     BCC $D895                       A:FF X:55       |       D88C  90 07     BCC $D895                       A:FF X:55
D88E  AD 78 06  LDA $0678 = 00                  A:FF X:55       |       D88E  AD 78 06  LDA $0678 = 00                  A:FF X:55
D891  C9 00     CMP #$00                        A:00 X:55       |       D891  C9 00     CMP #$00                        A:00 X:55
D893  F0 04     BEQ $D899                       A:00 X:55       |       D893  F0 04     BEQ $D899                       A:00 X:55
D899  A9 7F     LDA #$7F                        A:00 X:55       |       D899  A9 7F     LDA #$7F                        A:00 X:55
D89B  8D 78 06  STA $0678 = 00                  A:7F X:55       |       D89B  8D 78 06  STA $0678 = 00                  A:7F X:55
D89E  B8        CLV                             A:7F X:55       |       D89E  B8        CLV                             A:7F X:55
D89F  18        CLC                             A:7F X:55       |       D89F  18        CLC                             A:7F X:55
D8A0  EE 78 06  INC $0678 = 7F                  A:7F X:55       |       D8A0  EE 78 06  INC $0678 = 7F                  A:7F X:55
D8A3  F0 0D     BEQ $D8B2                       A:7F X:55       |       D8A3  F0 0D     BEQ $D8B2                       A:7F X:55
D8A5  10 0B     BPL $D8B2                       A:7F X:55       |       D8A5  10 0B     BPL $D8B2                       A:7F X:55
D8A7  70 09     BVS $D8B2                       A:7F X:55       |       D8A7  70 09     BVS $D8B2                       A:7F X:55
D8A9  B0 07     BCS $D8B2                       A:7F X:55       |       D8A9  B0 07     BCS $D8B2                       A:7F X:55
D8AB  AD 78 06  LDA $0678 = 80                  A:7F X:55       |       D8AB  AD 78 06  LDA $0678 = 80                  A:7F X:55
D8AE  C9 80     CMP #$80                        A:80 X:55       |       D8AE  C9 80     CMP #$80                        A:80 X:55
D8B0  F0 04     BEQ $D8B6                       A:80 X:55       |       D8B0  F0 04     BEQ $D8B6                       A:80 X:55
D8B6  A9 00     LDA #$00                        A:80 X:55       |       D8B6  A9 00     LDA #$00                        A:80 X:55
D8B8  8D 78 06  STA $0678 = 80                  A:00 X:55       |       D8B8  8D 78 06  STA $0678 = 80                  A:00 X:55
D8BB  24 01     BIT $01 = FF                    A:00 X:55       |       D8BB  24 01     BIT $01 = FF                    A:00 X:55
D8BD  38        SEC                             A:00 X:55       |       D8BD  38        SEC                             A:00 X:55
D8BE  CE 78 06  DEC $0678 = 00                  A:00 X:55       |       D8BE  CE 78 06  DEC $0678 = 00                  A:00 X:55
D8C1  F0 0D     BEQ $D8D0                       A:00 X:55       |       D8C1  F0 0D     BEQ $D8D0                       A:00 X:55
D8C3  10 0B     BPL $D8D0                       A:00 X:55       |       D8C3  10 0B     BPL $D8D0                       A:00 X:55
D8C5  50 09     BVC $D8D0                       A:00 X:55       |       D8C5  50 09     BVC $D8D0                       A:00 X:55
D8C7  90 07     BCC $D8D0                       A:00 X:55       |       D8C7  90 07     BCC $D8D0                       A:00 X:55
D8C9  AD 78 06  LDA $0678 = FF                  A:00 X:55       |       D8C9  AD 78 06  LDA $0678 = FF                  A:00 X:55
D8CC  C9 FF     CMP #$FF                        A:FF X:55       |       D8CC  C9 FF     CMP #$FF                        A:FF X:55
D8CE  F0 04     BEQ $D8D4                       A:FF X:55       |       D8CE  F0 04     BEQ $D8D4                       A:FF X:55
D8D4  A9 80     LDA #$80                        A:FF X:55       |       D8D4  A9 80     LDA #$80                        A:FF X:55
D8D6  8D 78 06  STA $0678 = FF                  A:80 X:55       |       D8D6  8D 78 06  STA $0678 = FF                  A:80 X:55
D8D9  B8        CLV                             A:80 X:55       |       D8D9  B8        CLV                             A:80 X:55
D8DA  18        CLC                             A:80 X:55       |       D8DA  18        CLC                             A:80 X:55
D8DB  CE 78 06  DEC $0678 = 80                  A:80 X:55       |       D8DB  CE 78 06  DEC $0678 = 80                  A:80 X:55
D8DE  F0 0D     BEQ $D8ED                       A:80 X:55       |       D8DE  F0 0D     BEQ $D8ED                       A:80 X:55
D8E0  30 0B     BMI $D8ED                       A:80 X:55       |       D8E0  30 0B     BMI $D8ED                       A:80 X:55
D8E2  70 09     BVS $D8ED                       A:80 X:55       |       D8E2  70 09     BVS $D8ED                       A:80 X:55
D8E4  B0 07     BCS $D8ED                       A:80 X:55       |       D8E4  B0 07     BCS $D8ED                       A:80 X:55
D8E6  AD 78 06  LDA $0678 = 7F                  A:80 X:55       |       D8E6  AD 78 06  LDA $0678 = 7F                  A:80 X:55
D8E9  C9 7F     CMP #$7F                        A:7F X:55       |       D8E9  C9 7F     CMP #$7F                        A:7F X:55
D8EB  F0 04     BEQ $D8F1                       A:7F X:55       |       D8EB  F0 04     BEQ $D8F1                       A:7F X:55
D8F1  A9 01     LDA #$01                        A:7F X:55       |       D8F1  A9 01     LDA #$01                        A:7F X:55
D8F3  8D 78 06  STA $0678 = 7F                  A:01 X:55       |       D8F3  8D 78 06  STA $0678 = 7F                  A:01 X:55
D8F6  CE 78 06  DEC $0678 = 01                  A:01 X:55       |       D8F6  CE 78 06  DEC $0678 = 01                  A:01 X:55
D8F9  F0 04     BEQ $D8FF                       A:01 X:55       |       D8F9  F0 04     BEQ $D8FF                       A:01 X:55
D8FF  60        RTS                             A:01 X:55       |       D8FF  60        RTS                             A:01 X:55
C618  20 00 D9  JSR $D900                       A:01 X:55       |       C618  20 00 D9  JSR $D900                       A:01 X:55
D900  A9 A3     LDA #$A3                        A:01 X:55       |       D900  A9 A3     LDA #$A3                        A:01 X:55
D902  85 33     STA $33 = 00                    A:A3 X:55       |       D902  85 33     STA $33 = 00                    A:A3 X:55
D904  A9 89     LDA #$89                        A:A3 X:55       |       D904  A9 89     LDA #$89                        A:A3 X:55
D906  8D 00 03  STA $0300 = 70                  A:89 X:55       |       D906  8D 00 03  STA $0300 = 70                  A:89 X:55
D909  A9 12     LDA #$12                        A:89 X:55       |       D909  A9 12     LDA #$12                        A:89 X:55
D90B  8D 45 02  STA $0245 = 00                  A:12 X:55       |       D90B  8D 45 02  STA $0245 = 00                  A:12 X:55
D90E  A9 FF     LDA #$FF                        A:12 X:55       |       D90E  A9 FF     LDA #$FF                        A:12 X:55
D910  85 01     STA $01 = FF                    A:FF X:55       |       D910  85 01     STA $01 = FF                    A:FF X:55
D912  A2 65     LDX #$65                        A:FF X:55       |       D912  A2 65     LDX #$65                        A:FF X:55
D914  A9 00     LDA #$00                        A:FF X:65       |       D914  A9 00     LDA #$00                        A:FF X:65
D916  85 89     STA $89 = 00                    A:00 X:65       |       D916  85 89     STA $89 = 00                    A:00 X:65
D918  A9 03     LDA #$03                        A:00 X:65       |       D918  A9 03     LDA #$03                        A:00 X:65
D91A  85 8A     STA $8A = 00                    A:03 X:65       |       D91A  85 8A     STA $8A = 00                    A:03 X:65
D91C  A0 00     LDY #$00                        A:03 X:65       |       D91C  A0 00     LDY #$00                        A:03 X:65
D91E  38        SEC                             A:03 X:65       |       D91E  38        SEC                             A:03 X:65
D91F  A9 00     LDA #$00                        A:03 X:65       |       D91F  A9 00     LDA #$00                        A:03 X:65
D921  B8        CLV                             A:00 X:65       |       D921  B8        CLV                             A:00 X:65
D922  B1 89     LDA ($89),Y = 0300 @ 0300 = 89  A:00 X:65       |       D922  B1 89     LDA ($89),Y = 0300 @ 0300 = 89  A:00 X:65
D924  F0 0C     BEQ $D932                       A:89 X:65       |       D924  F0 0C     BEQ $D932                       A:89 X:65
D926  90 0A     BCC $D932                       A:89 X:65       |       D926  90 0A     BCC $D932                       A:89 X:65
D928  70 08     BVS $D932                       A:89 X:65       |       D928  70 08     BVS $D932                       A:89 X:65
D92A  C9 89     CMP #$89                        A:89 X:65       |       D92A  C9 89     CMP #$89                        A:89 X:65
D92C  D0 04     BNE $D932                       A:89 X:65       |       D92C  D0 04     BNE $D932                       A:89 X:65
D92E  E0 65     CPX #$65                        A:89 X:65       |       D92E  E0 65     CPX #$65                        A:89 X:65
D930  F0 04     BEQ $D936                       A:89 X:65       |       D930  F0 04     BEQ $D936                       A:89 X:65
D936  A9 FF     LDA #$FF                        A:89 X:65       |       D936  A9 FF     LDA #$FF                        A:89 X:65
D938  85 97     STA $97 = 00                    A:FF X:65       |       D938  85 97     STA $97 = 00                    A:FF X:65
D93A  85 98     STA $98 = 00                    A:FF X:65       |       D93A  85 98     STA $98 = 00                    A:FF X:65
D93C  24 98     BIT $98 = FF                    A:FF X:65       |       D93C  24 98     BIT $98 = FF                    A:FF X:65
D93E  A0 34     LDY #$34                        A:FF X:65       |       D93E  A0 34     LDY #$34                        A:FF X:65
D940  B1 97     LDA ($97),Y = FFFF @ 0033 = A3  A:FF X:65       |       D940  B1 97     LDA ($97),Y = FFFF @ 0033 = A3  A:FF X:65
D942  C9 A3     CMP #$A3                        A:A3 X:65       |       D942  C9 A3     CMP #$A3                        A:A3 X:65
D944  D0 02     BNE $D948                       A:A3 X:65       |       D944  D0 02     BNE $D948                       A:A3 X:65
D946  B0 04     BCS $D94C                       A:A3 X:65       |       D946  B0 04     BCS $D94C                       A:A3 X:65
D94C  A5 00     LDA $00 = 00                    A:A3 X:65       |       D94C  A5 00     LDA $00 = 00                    A:A3 X:65
D94E  48        PHA                             A:00 X:65       |       D94E  48        PHA                             A:00 X:65
D94F  A9 46     LDA #$46                        A:00 X:65       |       D94F  A9 46     LDA #$46                        A:00 X:65
D951  85 FF     STA $FF = 00                    A:46 X:65       |       D951  85 FF     STA $FF = 00                    A:46 X:65
D953  A9 01     LDA #$01                        A:46 X:65       |       D953  A9 01     LDA #$01                        A:46 X:65
D955  85 00     STA $00 = 00                    A:01 X:65       |       D955  85 00     STA $00 = 00                    A:01 X:65
D957  A0 FF     LDY #$FF                        A:01 X:65       |       D957  A0 FF     LDY #$FF                        A:01 X:65
D959  B1 FF     LDA ($FF),Y = 0146 @ 0245 = 12  A:01 X:65       |       D959  B1 FF     LDA ($FF),Y = 0146 @ 0245 = 12  A:01 X:65
D95B  C9 12     CMP #$12                        A:12 X:65       |       D95B  C9 12     CMP #$12                        A:12 X:65
D95D  F0 04     BEQ $D963                       A:12 X:65       |       D95D  F0 04     BEQ $D963                       A:12 X:65
D963  68        PLA                             A:12 X:65       |       D963  68        PLA                             A:12 X:65
D964  85 00     STA $00 = 01                    A:00 X:65       |       D964  85 00     STA $00 = 01                    A:00 X:65
D966  A2 ED     LDX #$ED                        A:00 X:65       |       D966  A2 ED     LDX #$ED                        A:00 X:65
D968  A9 00     LDA #$00                        A:00 X:ED       |       D968  A9 00     LDA #$00                        A:00 X:ED
D96A  85 33     STA $33 = A3                    A:00 X:ED       |       D96A  85 33     STA $33 = A3                    A:00 X:ED
D96C  A9 04     LDA #$04                        A:00 X:ED       |       D96C  A9 04     LDA #$04                        A:00 X:ED
D96E  85 34     STA $34 = 00                    A:04 X:ED       |       D96E  85 34     STA $34 = 00                    A:04 X:ED
D970  A0 00     LDY #$00                        A:04 X:ED       |       D970  A0 00     LDY #$00                        A:04 X:ED
D972  18        CLC                             A:04 X:ED       |       D972  18        CLC                             A:04 X:ED
D973  A9 FF     LDA #$FF                        A:04 X:ED       |       D973  A9 FF     LDA #$FF                        A:04 X:ED
D975  85 01     STA $01 = FF                    A:FF X:ED       |       D975  85 01     STA $01 = FF                    A:FF X:ED
D977  24 01     BIT $01 = FF                    A:FF X:ED       |       D977  24 01     BIT $01 = FF                    A:FF X:ED
D979  A9 AA     LDA #$AA                        A:FF X:ED       |       D979  A9 AA     LDA #$AA                        A:FF X:ED
D97B  8D 00 04  STA $0400 = AD                  A:AA X:ED       |       D97B  8D 00 04  STA $0400 = AD                  A:AA X:ED
D97E  A9 55     LDA #$55                        A:AA X:ED       |       D97E  A9 55     LDA #$55                        A:AA X:ED
D980  11 33     ORA ($33),Y = 0400 @ 0400 = AA  A:55 X:ED       |       D980  11 33     ORA ($33),Y = 0400 @ 0400 = AA  A:55 X:ED
D982  B0 08     BCS $D98C                       A:FF X:ED       |       D982  B0 08     BCS $D98C                       A:FF X:ED
D984  10 06     BPL $D98C                       A:FF X:ED       |       D984  10 06     BPL $D98C                       A:FF X:ED
D986  C9 FF     CMP #$FF                        A:FF X:ED       |       D986  C9 FF     CMP #$FF                        A:FF X:ED
D988  D0 02     BNE $D98C                       A:FF X:ED       |       D988  D0 02     BNE $D98C                       A:FF X:ED
D98A  70 02     BVS $D98E                       A:FF X:ED       |       D98A  70 02     BVS $D98E                       A:FF X:ED
D98E  E8        INX                             A:FF X:ED       |       D98E  E8        INX                             A:FF X:ED
D98F  38        SEC                             A:FF X:EE       |       D98F  38        SEC                             A:FF X:EE
D990  B8        CLV                             A:FF X:EE       |       D990  B8        CLV                             A:FF X:EE
D991  A9 00     LDA #$00                        A:FF X:EE       |       D991  A9 00     LDA #$00                        A:FF X:EE
D993  11 33     ORA ($33),Y = 0400 @ 0400 = AA  A:00 X:EE       |       D993  11 33     ORA ($33),Y = 0400 @ 0400 = AA  A:00 X:EE
D995  F0 06     BEQ $D99D                       A:AA X:EE       |       D995  F0 06     BEQ $D99D                       A:AA X:EE
D997  70 04     BVS $D99D                       A:AA X:EE       |       D997  70 04     BVS $D99D                       A:AA X:EE
D999  90 02     BCC $D99D                       A:AA X:EE       |       D999  90 02     BCC $D99D                       A:AA X:EE
D99B  30 02     BMI $D99F                       A:AA X:EE       |       D99B  30 02     BMI $D99F                       A:AA X:EE
D99F  E8        INX                             A:AA X:EE       |       D99F  E8        INX                             A:AA X:EE
D9A0  18        CLC                             A:AA X:EF       |       D9A0  18        CLC                             A:AA X:EF
D9A1  24 01     BIT $01 = FF                    A:AA X:EF       |       D9A1  24 01     BIT $01 = FF                    A:AA X:EF
D9A3  A9 55     LDA #$55                        A:AA X:EF       |       D9A3  A9 55     LDA #$55                        A:AA X:EF
D9A5  31 33     AND ($33),Y = 0400 @ 0400 = AA  A:55 X:EF       |       D9A5  31 33     AND ($33),Y = 0400 @ 0400 = AA  A:55 X:EF
D9A7  D0 06     BNE $D9AF                       A:00 X:EF       |       D9A7  D0 06     BNE $D9AF                       A:00 X:EF
D9A9  50 04     BVC $D9AF                       A:00 X:EF       |       D9A9  50 04     BVC $D9AF                       A:00 X:EF
D9AB  B0 02     BCS $D9AF                       A:00 X:EF       |       D9AB  B0 02     BCS $D9AF                       A:00 X:EF
D9AD  10 02     BPL $D9B1                       A:00 X:EF       |       D9AD  10 02     BPL $D9B1                       A:00 X:EF
D9B1  E8        INX                             A:00 X:EF       |       D9B1  E8        INX                             A:00 X:EF
D9B2  38        SEC                             A:00 X:F0       |       D9B2  38        SEC                             A:00 X:F0
D9B3  B8        CLV                             A:00 X:F0       |       D9B3  B8        CLV                             A:00 X:F0
D9B4  A9 EF     LDA #$EF                        A:00 X:F0       |       D9B4  A9 EF     LDA #$EF                        A:00 X:F0
D9B6  8D 00 04  STA $0400 = AA                  A:EF X:F0       |       D9B6  8D 00 04  STA $0400 = AA                  A:EF X:F0
D9B9  A9 F8     LDA #$F8                        A:EF X:F0       |       D9B9  A9 F8     LDA #$F8                        A:EF X:F0
D9BB  31 33     AND ($33),Y = 0400 @ 0400 = EF  A:F8 X:F0       |       D9BB  31 33     AND ($33),Y = 0400 @ 0400 = EF  A:F8 X:F0
D9BD  90 08     BCC $D9C7                       A:E8 X:F0       |       D9BD  90 08     BCC $D9C7                       A:E8 X:F0
D9BF  10 06     BPL $D9C7                       A:E8 X:F0       |       D9BF  10 06     BPL $D9C7                       A:E8 X:F0
D9C1  C9 E8     CMP #$E8                        A:E8 X:F0       |       D9C1  C9 E8     CMP #$E8                        A:E8 X:F0
D9C3  D0 02     BNE $D9C7                       A:E8 X:F0       |       D9C3  D0 02     BNE $D9C7                       A:E8 X:F0
D9C5  50 02     BVC $D9C9                       A:E8 X:F0       |       D9C5  50 02     BVC $D9C9                       A:E8 X:F0
D9C9  E8        INX                             A:E8 X:F0       |       D9C9  E8        INX                             A:E8 X:F0
D9CA  18        CLC                             A:E8 X:F1       |       D9CA  18        CLC                             A:E8 X:F1
D9CB  24 01     BIT $01 = FF                    A:E8 X:F1       |       D9CB  24 01     BIT $01 = FF                    A:E8 X:F1
D9CD  A9 AA     LDA #$AA                        A:E8 X:F1       |       D9CD  A9 AA     LDA #$AA                        A:E8 X:F1
D9CF  8D 00 04  STA $0400 = EF                  A:AA X:F1       |       D9CF  8D 00 04  STA $0400 = EF                  A:AA X:F1
D9D2  A9 5F     LDA #$5F                        A:AA X:F1       |       D9D2  A9 5F     LDA #$5F                        A:AA X:F1
D9D4  51 33     EOR ($33),Y = 0400 @ 0400 = AA  A:5F X:F1       |       D9D4  51 33     EOR ($33),Y = 0400 @ 0400 = AA  A:5F X:F1
D9D6  B0 08     BCS $D9E0                       A:F5 X:F1       |       D9D6  B0 08     BCS $D9E0                       A:F5 X:F1
D9D8  10 06     BPL $D9E0                       A:F5 X:F1       |       D9D8  10 06     BPL $D9E0                       A:F5 X:F1
D9DA  C9 F5     CMP #$F5                        A:F5 X:F1       |       D9DA  C9 F5     CMP #$F5                        A:F5 X:F1
D9DC  D0 02     BNE $D9E0                       A:F5 X:F1       |       D9DC  D0 02     BNE $D9E0                       A:F5 X:F1
D9DE  70 02     BVS $D9E2                       A:F5 X:F1       |       D9DE  70 02     BVS $D9E2                       A:F5 X:F1
D9E2  E8        INX                             A:F5 X:F1       |       D9E2  E8        INX                             A:F5 X:F1
D9E3  38        SEC                             A:F5 X:F2       |       D9E3  38        SEC                             A:F5 X:F2
D9E4  B8        CLV                             A:F5 X:F2       |       D9E4  B8        CLV                             A:F5 X:F2
D9E5  A9 70     LDA #$70                        A:F5 X:F2       |       D9E5  A9 70     LDA #$70                        A:F5 X:F2
D9E7  8D 00 04  STA $0400 = AA                  A:70 X:F2       |       D9E7  8D 00 04  STA $0400 = AA                  A:70 X:F2
D9EA  51 33     EOR ($33),Y = 0400 @ 0400 = 70  A:70 X:F2       |       D9EA  51 33     EOR ($33),Y = 0400 @ 0400 = 70  A:70 X:F2
D9EC  D0 06     BNE $D9F4                       A:00 X:F2       |       D9EC  D0 06     BNE $D9F4                       A:00 X:F2
D9EE  70 04     BVS $D9F4                       A:00 X:F2       |       D9EE  70 04     BVS $D9F4                       A:00 X:F2
D9F0  90 02     BCC $D9F4                       A:00 X:F2       |       D9F0  90 02     BCC $D9F4                       A:00 X:F2
D9F2  10 02     BPL $D9F6                       A:00 X:F2       |       D9F2  10 02     BPL $D9F6                       A:00 X:F2
D9F6  E8        INX                             A:00 X:F2       |       D9F6  E8        INX                             A:00 X:F2
D9F7  18        CLC                             A:00 X:F3       |       D9F7  18        CLC                             A:00 X:F3
D9F8  24 01     BIT $01 = FF                    A:00 X:F3       |       D9F8  24 01     BIT $01 = FF                    A:00 X:F3
D9FA  A9 69     LDA #$69                        A:00 X:F3       |       D9FA  A9 69     LDA #$69                        A:00 X:F3
D9FC  8D 00 04  STA $0400 = 70                  A:69 X:F3       |       D9FC  8D 00 04  STA $0400 = 70                  A:69 X:F3
D9FF  A9 00     LDA #$00                        A:69 X:F3       |       D9FF  A9 00     LDA #$00                        A:69 X:F3
DA01  71 33     ADC ($33),Y = 0400 @ 0400 = 69  A:00 X:F3       |       DA01  71 33     ADC ($33),Y = 0400 @ 0400 = 69  A:00 X:F3
DA03  30 08     BMI $DA0D                       A:69 X:F3       |       DA03  30 08     BMI $DA0D                       A:69 X:F3
DA05  B0 06     BCS $DA0D                       A:69 X:F3       |       DA05  B0 06     BCS $DA0D                       A:69 X:F3
DA07  C9 69     CMP #$69                        A:69 X:F3       |       DA07  C9 69     CMP #$69                        A:69 X:F3
DA09  D0 02     BNE $DA0D                       A:69 X:F3       |       DA09  D0 02     BNE $DA0D                       A:69 X:F3
DA0B  50 02     BVC $DA0F                       A:69 X:F3       |       DA0B  50 02     BVC $DA0F                       A:69 X:F3
DA0F  E8        INX                             A:69 X:F3       |       DA0F  E8        INX                             A:69 X:F3
DA10  38        SEC                             A:69 X:F4       |       DA10  38        SEC                             A:69 X:F4
DA11  24 01     BIT $01 = FF                    A:69 X:F4       |       DA11  24 01     BIT $01 = FF                    A:69 X:F4
DA13  A9 00     LDA #$00                        A:69 X:F4       |       DA13  A9 00     LDA #$00                        A:69 X:F4
DA15  71 33     ADC ($33),Y = 0400 @ 0400 = 69  A:00 X:F4       |       DA15  71 33     ADC ($33),Y = 0400 @ 0400 = 69  A:00 X:F4
DA17  30 08     BMI $DA21                       A:6A X:F4       |       DA17  30 08     BMI $DA21                       A:6A X:F4
DA19  B0 06     BCS $DA21                       A:6A X:F4       |       DA19  B0 06     BCS $DA21                       A:6A X:F4
DA1B  C9 6A     CMP #$6A                        A:6A X:F4       |       DA1B  C9 6A     CMP #$6A                        A:6A X:F4
DA1D  D0 02     BNE $DA21                       A:6A X:F4       |       DA1D  D0 02     BNE $DA21                       A:6A X:F4
DA1F  50 02     BVC $DA23                       A:6A X:F4       |       DA1F  50 02     BVC $DA23                       A:6A X:F4
DA23  E8        INX                             A:6A X:F4       |       DA23  E8        INX                             A:6A X:F4
DA24  38        SEC                             A:6A X:F5       |       DA24  38        SEC                             A:6A X:F5
DA25  B8        CLV                             A:6A X:F5       |       DA25  B8        CLV                             A:6A X:F5
DA26  A9 7F     LDA #$7F                        A:6A X:F5       |       DA26  A9 7F     LDA #$7F                        A:6A X:F5
DA28  8D 00 04  STA $0400 = 69                  A:7F X:F5       |       DA28  8D 00 04  STA $0400 = 69                  A:7F X:F5
DA2B  71 33     ADC ($33),Y = 0400 @ 0400 = 7F  A:7F X:F5       |       DA2B  71 33     ADC ($33),Y = 0400 @ 0400 = 7F  A:7F X:F5
DA2D  10 08     BPL $DA37                       A:FF X:F5       |       DA2D  10 08     BPL $DA37                       A:FF X:F5
DA2F  B0 06     BCS $DA37                       A:FF X:F5       |       DA2F  B0 06     BCS $DA37                       A:FF X:F5
DA31  C9 FF     CMP #$FF                        A:FF X:F5       |       DA31  C9 FF     CMP #$FF                        A:FF X:F5
DA33  D0 02     BNE $DA37                       A:FF X:F5       |       DA33  D0 02     BNE $DA37                       A:FF X:F5
DA35  70 02     BVS $DA39                       A:FF X:F5       |       DA35  70 02     BVS $DA39                       A:FF X:F5
DA39  E8        INX                             A:FF X:F5       |       DA39  E8        INX                             A:FF X:F5
DA3A  18        CLC                             A:FF X:F6       |       DA3A  18        CLC                             A:FF X:F6
DA3B  24 01     BIT $01 = FF                    A:FF X:F6       |       DA3B  24 01     BIT $01 = FF                    A:FF X:F6
DA3D  A9 80     LDA #$80                        A:FF X:F6       |       DA3D  A9 80     LDA #$80                        A:FF X:F6
DA3F  8D 00 04  STA $0400 = 7F                  A:80 X:F6       |       DA3F  8D 00 04  STA $0400 = 7F                  A:80 X:F6
DA42  A9 7F     LDA #$7F                        A:80 X:F6       |       DA42  A9 7F     LDA #$7F                        A:80 X:F6
DA44  71 33     ADC ($33),Y = 0400 @ 0400 = 80  A:7F X:F6       |       DA44  71 33     ADC ($33),Y = 0400 @ 0400 = 80  A:7F X:F6
DA46  10 08     BPL $DA50                       A:FF X:F6       |       DA46  10 08     BPL $DA50                       A:FF X:F6
DA48  B0 06     BCS $DA50                       A:FF X:F6       |       DA48  B0 06     BCS $DA50                       A:FF X:F6
DA4A  C9 FF     CMP #$FF                        A:FF X:F6       |       DA4A  C9 FF     CMP #$FF                        A:FF X:F6
DA4C  D0 02     BNE $DA50                       A:FF X:F6       |       DA4C  D0 02     BNE $DA50                       A:FF X:F6
DA4E  50 02     BVC $DA52                       A:FF X:F6       |       DA4E  50 02     BVC $DA52                       A:FF X:F6
DA52  E8        INX                             A:FF X:F6       |       DA52  E8        INX                             A:FF X:F6
DA53  38        SEC                             A:FF X:F7       |       DA53  38        SEC                             A:FF X:F7
DA54  B8        CLV                             A:FF X:F7       |       DA54  B8        CLV                             A:FF X:F7
DA55  A9 80     LDA #$80                        A:FF X:F7       |       DA55  A9 80     LDA #$80                        A:FF X:F7
DA57  8D 00 04  STA $0400 = 80                  A:80 X:F7       |       DA57  8D 00 04  STA $0400 = 80                  A:80 X:F7
DA5A  A9 7F     LDA #$7F                        A:80 X:F7       |       DA5A  A9 7F     LDA #$7F                        A:80 X:F7
DA5C  71 33     ADC ($33),Y = 0400 @ 0400 = 80  A:7F X:F7       |       DA5C  71 33     ADC ($33),Y = 0400 @ 0400 = 80  A:7F X:F7
DA5E  D0 06     BNE $DA66                       A:00 X:F7       |       DA5E  D0 06     BNE $DA66                       A:00 X:F7
DA60  30 04     BMI $DA66                       A:00 X:F7       |       DA60  30 04     BMI $DA66                       A:00 X:F7
DA62  70 02     BVS $DA66                       A:00 X:F7       |       DA62  70 02     BVS $DA66                       A:00 X:F7
DA64  B0 02     BCS $DA68                       A:00 X:F7       |       DA64  B0 02     BCS $DA68                       A:00 X:F7
DA68  E8        INX                             A:00 X:F7       |       DA68  E8        INX                             A:00 X:F7
DA69  24 01     BIT $01 = FF                    A:00 X:F8       |       DA69  24 01     BIT $01 = FF                    A:00 X:F8
DA6B  A9 40     LDA #$40                        A:00 X:F8       |       DA6B  A9 40     LDA #$40                        A:00 X:F8
DA6D  8D 00 04  STA $0400 = 80                  A:40 X:F8       |       DA6D  8D 00 04  STA $0400 = 80                  A:40 X:F8
DA70  D1 33     CMP ($33),Y = 0400 @ 0400 = 40  A:40 X:F8       |       DA70  D1 33     CMP ($33),Y = 0400 @ 0400 = 40  A:40 X:F8
DA72  30 06     BMI $DA7A                       A:40 X:F8       |       DA72  30 06     BMI $DA7A                       A:40 X:F8
DA74  90 04     BCC $DA7A                       A:40 X:F8       |       DA74  90 04     BCC $DA7A                       A:40 X:F8
DA76  D0 02     BNE $DA7A                       A:40 X:F8       |       DA76  D0 02     BNE $DA7A                       A:40 X:F8
DA78  70 02     BVS $DA7C                       A:40 X:F8       |       DA78  70 02     BVS $DA7C                       A:40 X:F8
DA7C  E8        INX                             A:40 X:F8       |       DA7C  E8        INX                             A:40 X:F8
DA7D  B8        CLV                             A:40 X:F9       |       DA7D  B8        CLV                             A:40 X:F9
DA7E  CE 00 04  DEC $0400 = 40                  A:40 X:F9       |       DA7E  CE 00 04  DEC $0400 = 40                  A:40 X:F9
DA81  D1 33     CMP ($33),Y = 0400 @ 0400 = 3F  A:40 X:F9       |       DA81  D1 33     CMP ($33),Y = 0400 @ 0400 = 3F  A:40 X:F9
DA83  F0 06     BEQ $DA8B                       A:40 X:F9       |       DA83  F0 06     BEQ $DA8B                       A:40 X:F9
DA85  30 04     BMI $DA8B                       A:40 X:F9       |       DA85  30 04     BMI $DA8B                       A:40 X:F9
DA87  90 02     BCC $DA8B                       A:40 X:F9       |       DA87  90 02     BCC $DA8B                       A:40 X:F9
DA89  50 02     BVC $DA8D                       A:40 X:F9       |       DA89  50 02     BVC $DA8D                       A:40 X:F9
DA8D  E8        INX                             A:40 X:F9       |       DA8D  E8        INX                             A:40 X:F9
DA8E  EE 00 04  INC $0400 = 3F                  A:40 X:FA       |       DA8E  EE 00 04  INC $0400 = 3F                  A:40 X:FA
DA91  EE 00 04  INC $0400 = 40                  A:40 X:FA       |       DA91  EE 00 04  INC $0400 = 40                  A:40 X:FA
DA94  D1 33     CMP ($33),Y = 0400 @ 0400 = 41  A:40 X:FA       |       DA94  D1 33     CMP ($33),Y = 0400 @ 0400 = 41  A:40 X:FA
DA96  F0 02     BEQ $DA9A                       A:40 X:FA       |       DA96  F0 02     BEQ $DA9A                       A:40 X:FA
DA98  30 02     BMI $DA9C                       A:40 X:FA       |       DA98  30 02     BMI $DA9C                       A:40 X:FA
DA9C  E8        INX                             A:40 X:FA       |       DA9C  E8        INX                             A:40 X:FA
DA9D  A9 00     LDA #$00                        A:40 X:FB       |       DA9D  A9 00     LDA #$00                        A:40 X:FB
DA9F  8D 00 04  STA $0400 = 41                  A:00 X:FB       |       DA9F  8D 00 04  STA $0400 = 41                  A:00 X:FB
DAA2  A9 80     LDA #$80                        A:00 X:FB       |       DAA2  A9 80     LDA #$80                        A:00 X:FB
DAA4  D1 33     CMP ($33),Y = 0400 @ 0400 = 00  A:80 X:FB       |       DAA4  D1 33     CMP ($33),Y = 0400 @ 0400 = 00  A:80 X:FB
DAA6  F0 04     BEQ $DAAC                       A:80 X:FB       |       DAA6  F0 04     BEQ $DAAC                       A:80 X:FB
DAA8  10 02     BPL $DAAC                       A:80 X:FB       |       DAA8  10 02     BPL $DAAC                       A:80 X:FB
DAAA  B0 02     BCS $DAAE                       A:80 X:FB       |       DAAA  B0 02     BCS $DAAE                       A:80 X:FB
DAAE  E8        INX                             A:80 X:FB       |       DAAE  E8        INX                             A:80 X:FB
DAAF  A0 80     LDY #$80                        A:80 X:FC       |       DAAF  A0 80     LDY #$80                        A:80 X:FC
DAB1  8C 00 04  STY $0400 = 00                  A:80 X:FC       |       DAB1  8C 00 04  STY $0400 = 00                  A:80 X:FC
DAB4  A0 00     LDY #$00                        A:80 X:FC       |       DAB4  A0 00     LDY #$00                        A:80 X:FC
DAB6  D1 33     CMP ($33),Y = 0400 @ 0400 = 80  A:80 X:FC       |       DAB6  D1 33     CMP ($33),Y = 0400 @ 0400 = 80  A:80 X:FC
DAB8  D0 04     BNE $DABE                       A:80 X:FC       |       DAB8  D0 04     BNE $DABE                       A:80 X:FC
DABA  30 02     BMI $DABE                       A:80 X:FC       |       DABA  30 02     BMI $DABE                       A:80 X:FC
DABC  B0 02     BCS $DAC0                       A:80 X:FC       |       DABC  B0 02     BCS $DAC0                       A:80 X:FC
DAC0  E8        INX                             A:80 X:FC       |       DAC0  E8        INX                             A:80 X:FC
DAC1  EE 00 04  INC $0400 = 80                  A:80 X:FD       |       DAC1  EE 00 04  INC $0400 = 80                  A:80 X:FD
DAC4  D1 33     CMP ($33),Y = 0400 @ 0400 = 81  A:80 X:FD       |       DAC4  D1 33     CMP ($33),Y = 0400 @ 0400 = 81  A:80 X:FD
DAC6  B0 04     BCS $DACC                       A:80 X:FD       |       DAC6  B0 04     BCS $DACC                       A:80 X:FD
DAC8  F0 02     BEQ $DACC                       A:80 X:FD       |       DAC8  F0 02     BEQ $DACC                       A:80 X:FD
DACA  30 02     BMI $DACE                       A:80 X:FD       |       DACA  30 02     BMI $DACE                       A:80 X:FD
DACE  E8        INX                             A:80 X:FD       |       DACE  E8        INX                             A:80 X:FD
DACF  CE 00 04  DEC $0400 = 81                  A:80 X:FE       |       DACF  CE 00 04  DEC $0400 = 81                  A:80 X:FE
DAD2  CE 00 04  DEC $0400 = 80                  A:80 X:FE       |       DAD2  CE 00 04  DEC $0400 = 80                  A:80 X:FE
DAD5  D1 33     CMP ($33),Y = 0400 @ 0400 = 7F  A:80 X:FE       |       DAD5  D1 33     CMP ($33),Y = 0400 @ 0400 = 7F  A:80 X:FE
DAD7  90 04     BCC $DADD                       A:80 X:FE       |       DAD7  90 04     BCC $DADD                       A:80 X:FE
DAD9  F0 02     BEQ $DADD                       A:80 X:FE       |       DAD9  F0 02     BEQ $DADD                       A:80 X:FE
DADB  10 02     BPL $DADF                       A:80 X:FE       |       DADB  10 02     BPL $DADF                       A:80 X:FE
DADF  60        RTS                             A:80 X:FE       |       DADF  60        RTS                             A:80 X:FE
C61B  A5 00     LDA $00 = 00                    A:80 X:FE       |       C61B  A5 00     LDA $00 = 00                    A:80 X:FE
C61D  85 10     STA $10 = 00                    A:00 X:FE       |       C61D  85 10     STA $10 = 00                    A:00 X:FE
C61F  A9 00     LDA #$00                        A:00 X:FE       |       C61F  A9 00     LDA #$00                        A:00 X:FE
C621  85 00     STA $00 = 00                    A:00 X:FE       |       C621  85 00     STA $00 = 00                    A:00 X:FE
C623  20 E0 DA  JSR $DAE0                       A:00 X:FE       |       C623  20 E0 DA  JSR $DAE0                       A:00 X:FE
DAE0  A9 00     LDA #$00                        A:00 X:FE       |       DAE0  A9 00     LDA #$00                        A:00 X:FE
DAE2  85 33     STA $33 = 00                    A:00 X:FE       |       DAE2  85 33     STA $33 = 00                    A:00 X:FE
DAE4  A9 04     LDA #$04                        A:00 X:FE       |       DAE4  A9 04     LDA #$04                        A:00 X:FE
DAE6  85 34     STA $34 = 04                    A:04 X:FE       |       DAE6  85 34     STA $34 = 04                    A:04 X:FE
DAE8  A0 00     LDY #$00                        A:04 X:FE       |       DAE8  A0 00     LDY #$00                        A:04 X:FE
DAEA  A2 01     LDX #$01                        A:04 X:FE       |       DAEA  A2 01     LDX #$01                        A:04 X:FE
DAEC  24 01     BIT $01 = FF                    A:04 X:01       |       DAEC  24 01     BIT $01 = FF                    A:04 X:01
DAEE  A9 40     LDA #$40                        A:04 X:01       |       DAEE  A9 40     LDA #$40                        A:04 X:01
DAF0  8D 00 04  STA $0400 = 7F                  A:40 X:01       |       DAF0  8D 00 04  STA $0400 = 7F                  A:40 X:01
DAF3  38        SEC                             A:40 X:01       |       DAF3  38        SEC                             A:40 X:01
DAF4  F1 33     SBC ($33),Y = 0400 @ 0400 = 40  A:40 X:01       |       DAF4  F1 33     SBC ($33),Y = 0400 @ 0400 = 40  A:40 X:01
DAF6  30 0A     BMI $DB02                       A:00 X:01       |       DAF6  30 0A     BMI $DB02                       A:00 X:01
DAF8  90 08     BCC $DB02                       A:00 X:01       |       DAF8  90 08     BCC $DB02                       A:00 X:01
DAFA  D0 06     BNE $DB02                       A:00 X:01       |       DAFA  D0 06     BNE $DB02                       A:00 X:01
DAFC  70 04     BVS $DB02                       A:00 X:01       |       DAFC  70 04     BVS $DB02                       A:00 X:01
DAFE  C9 00     CMP #$00                        A:00 X:01       |       DAFE  C9 00     CMP #$00                        A:00 X:01
DB00  F0 02     BEQ $DB04                       A:00 X:01       |       DB00  F0 02     BEQ $DB04                       A:00 X:01
DB04  E8        INX                             A:00 X:01       |       DB04  E8        INX                             A:00 X:01
DB05  B8        CLV                             A:00 X:02       |       DB05  B8        CLV                             A:00 X:02
DB06  38        SEC                             A:00 X:02       |       DB06  38        SEC                             A:00 X:02
DB07  A9 40     LDA #$40                        A:00 X:02       |       DB07  A9 40     LDA #$40                        A:00 X:02
DB09  CE 00 04  DEC $0400 = 40                  A:40 X:02       |       DB09  CE 00 04  DEC $0400 = 40                  A:40 X:02
DB0C  F1 33     SBC ($33),Y = 0400 @ 0400 = 3F  A:40 X:02       |       DB0C  F1 33     SBC ($33),Y = 0400 @ 0400 = 3F  A:40 X:02
DB0E  F0 0A     BEQ $DB1A                       A:01 X:02       |       DB0E  F0 0A     BEQ $DB1A                       A:01 X:02
DB10  30 08     BMI $DB1A                       A:01 X:02       |       DB10  30 08     BMI $DB1A                       A:01 X:02
DB12  90 06     BCC $DB1A                       A:01 X:02       |       DB12  90 06     BCC $DB1A                       A:01 X:02
DB14  70 04     BVS $DB1A                       A:01 X:02       |       DB14  70 04     BVS $DB1A                       A:01 X:02
DB16  C9 01     CMP #$01                        A:01 X:02       |       DB16  C9 01     CMP #$01                        A:01 X:02
DB18  F0 02     BEQ $DB1C                       A:01 X:02       |       DB18  F0 02     BEQ $DB1C                       A:01 X:02
DB1C  E8        INX                             A:01 X:02       |       DB1C  E8        INX                             A:01 X:02
DB1D  A9 40     LDA #$40                        A:01 X:03       |       DB1D  A9 40     LDA #$40                        A:01 X:03
DB1F  38        SEC                             A:40 X:03       |       DB1F  38        SEC                             A:40 X:03
DB20  24 01     BIT $01 = FF                    A:40 X:03       |       DB20  24 01     BIT $01 = FF                    A:40 X:03
DB22  EE 00 04  INC $0400 = 3F                  A:40 X:03       |       DB22  EE 00 04  INC $0400 = 3F                  A:40 X:03
DB25  EE 00 04  INC $0400 = 40                  A:40 X:03       |       DB25  EE 00 04  INC $0400 = 40                  A:40 X:03
DB28  F1 33     SBC ($33),Y = 0400 @ 0400 = 41  A:40 X:03       |       DB28  F1 33     SBC ($33),Y = 0400 @ 0400 = 41  A:40 X:03
DB2A  B0 0A     BCS $DB36                       A:FF X:03       |       DB2A  B0 0A     BCS $DB36                       A:FF X:03
DB2C  F0 08     BEQ $DB36                       A:FF X:03       |       DB2C  F0 08     BEQ $DB36                       A:FF X:03
DB2E  10 06     BPL $DB36                       A:FF X:03       |       DB2E  10 06     BPL $DB36                       A:FF X:03
DB30  70 04     BVS $DB36                       A:FF X:03       |       DB30  70 04     BVS $DB36                       A:FF X:03
DB32  C9 FF     CMP #$FF                        A:FF X:03       |       DB32  C9 FF     CMP #$FF                        A:FF X:03
DB34  F0 02     BEQ $DB38                       A:FF X:03       |       DB34  F0 02     BEQ $DB38                       A:FF X:03
DB38  E8        INX                             A:FF X:03       |       DB38  E8        INX                             A:FF X:03
DB39  18        CLC                             A:FF X:04       |       DB39  18        CLC                             A:FF X:04
DB3A  A9 00     LDA #$00                        A:FF X:04       |       DB3A  A9 00     LDA #$00                        A:FF X:04
DB3C  8D 00 04  STA $0400 = 41                  A:00 X:04       |       DB3C  8D 00 04  STA $0400 = 41                  A:00 X:04
DB3F  A9 80     LDA #$80                        A:00 X:04       |       DB3F  A9 80     LDA #$80                        A:00 X:04
DB41  F1 33     SBC ($33),Y = 0400 @ 0400 = 00  A:80 X:04       |       DB41  F1 33     SBC ($33),Y = 0400 @ 0400 = 00  A:80 X:04
DB43  90 04     BCC $DB49                       A:7F X:04       |       DB43  90 04     BCC $DB49                       A:7F X:04
DB45  C9 7F     CMP #$7F                        A:7F X:04       |       DB45  C9 7F     CMP #$7F                        A:7F X:04
DB47  F0 02     BEQ $DB4B                       A:7F X:04       |       DB47  F0 02     BEQ $DB4B                       A:7F X:04
DB4B  E8        INX                             A:7F X:04       |       DB4B  E8        INX                             A:7F X:04
DB4C  38        SEC                             A:7F X:05       |       DB4C  38        SEC                             A:7F X:05
DB4D  A9 7F     LDA #$7F                        A:7F X:05       |       DB4D  A9 7F     LDA #$7F                        A:7F X:05
DB4F  8D 00 04  STA $0400 = 00                  A:7F X:05       |       DB4F  8D 00 04  STA $0400 = 00                  A:7F X:05
DB52  A9 81     LDA #$81                        A:7F X:05       |       DB52  A9 81     LDA #$81                        A:7F X:05
DB54  F1 33     SBC ($33),Y = 0400 @ 0400 = 7F  A:81 X:05       |       DB54  F1 33     SBC ($33),Y = 0400 @ 0400 = 7F  A:81 X:05
DB56  50 06     BVC $DB5E                       A:02 X:05       |       DB56  50 06     BVC $DB5E                       A:02 X:05
DB58  90 04     BCC $DB5E                       A:02 X:05       |       DB58  90 04     BCC $DB5E                       A:02 X:05
DB5A  C9 02     CMP #$02                        A:02 X:05       |       DB5A  C9 02     CMP #$02                        A:02 X:05
DB5C  F0 02     BEQ $DB60                       A:02 X:05       |       DB5C  F0 02     BEQ $DB60                       A:02 X:05
DB60  E8        INX                             A:02 X:05       |       DB60  E8        INX                             A:02 X:05
DB61  A9 00     LDA #$00                        A:02 X:06       |       DB61  A9 00     LDA #$00                        A:02 X:06
DB63  A9 87     LDA #$87                        A:00 X:06       |       DB63  A9 87     LDA #$87                        A:00 X:06
DB65  91 33     STA ($33),Y = 0400 @ 0400 = 7F  A:87 X:06       |       DB65  91 33     STA ($33),Y = 0400 @ 0400 = 7F  A:87 X:06
DB67  AD 00 04  LDA $0400 = 87                  A:87 X:06       |       DB67  AD 00 04  LDA $0400 = 87                  A:87 X:06
DB6A  C9 87     CMP #$87                        A:87 X:06       |       DB6A  C9 87     CMP #$87                        A:87 X:06
DB6C  F0 02     BEQ $DB70                       A:87 X:06       |       DB6C  F0 02     BEQ $DB70                       A:87 X:06
DB70  E8        INX                             A:87 X:06       |       DB70  E8        INX                             A:87 X:06
DB71  A9 7E     LDA #$7E                        A:87 X:07       |       DB71  A9 7E     LDA #$7E                        A:87 X:07
DB73  8D 00 02  STA $0200 = 7F                  A:7E X:07       |       DB73  8D 00 02  STA $0200 = 7F                  A:7E X:07
DB76  A9 DB     LDA #$DB                        A:7E X:07       |       DB76  A9 DB     LDA #$DB                        A:7E X:07
DB78  8D 01 02  STA $0201 = 00                  A:DB X:07       |       DB78  8D 01 02  STA $0201 = 00                  A:DB X:07
DB7B  6C 00 02  JMP ($0200) = DB7E              A:DB X:07       |       DB7B  6C 00 02  JMP ($0200) = DB7E              A:DB X:07
DB7E  A9 00     LDA #$00                        A:DB X:07       |       DB7E  A9 00     LDA #$00                        A:DB X:07
DB80  8D FF 02  STA $02FF = 00                  A:00 X:07       |       DB80  8D FF 02  STA $02FF = 00                  A:00 X:07
DB83  A9 01     LDA #$01                        A:00 X:07       |       DB83  A9 01     LDA #$01                        A:00 X:07
DB85  8D 00 03  STA $0300 = 89                  A:01 X:07       |       DB85  8D 00 03  STA $0300 = 89                  A:01 X:07
DB88  A9 03     LDA #$03                        A:01 X:07       |       DB88  A9 03     LDA #$03                        A:01 X:07
DB8A  8D 00 02  STA $0200 = 7E                  A:03 X:07       |       DB8A  8D 00 02  STA $0200 = 7E                  A:03 X:07
DB8D  A9 A9     LDA #$A9                        A:03 X:07       |       DB8D  A9 A9     LDA #$A9                        A:03 X:07
DB8F  8D 00 01  STA $0100 = 00                  A:A9 X:07       |       DB8F  8D 00 01  STA $0100 = 00                  A:A9 X:07
DB92  A9 55     LDA #$55                        A:A9 X:07       |       DB92  A9 55     LDA #$55                        A:A9 X:07
DB94  8D 01 01  STA $0101 = 00                  A:55 X:07       |       DB94  8D 01 01  STA $0101 = 00                  A:55 X:07
DB97  A9 60     LDA #$60                        A:55 X:07       |       DB97  A9 60     LDA #$60                        A:55 X:07
DB99  8D 02 01  STA $0102 = 00                  A:60 X:07       |       DB99  8D 02 01  STA $0102 = 00                  A:60 X:07
DB9C  A9 A9     LDA #$A9                        A:60 X:07       |       DB9C  A9 A9     LDA #$A9                        A:60 X:07
DB9E  8D 00 03  STA $0300 = 01                  A:A9 X:07       |       DB9E  8D 00 03  STA $0300 = 01                  A:A9 X:07
DBA1  A9 AA     LDA #$AA                        A:A9 X:07       |       DBA1  A9 AA     LDA #$AA                        A:A9 X:07
DBA3  8D 01 03  STA $0301 = 00                  A:AA X:07       |       DBA3  8D 01 03  STA $0301 = 00                  A:AA X:07
DBA6  A9 60     LDA #$60                        A:AA X:07       |       DBA6  A9 60     LDA #$60                        A:AA X:07
DBA8  8D 02 03  STA $0302 = 00                  A:60 X:07       |       DBA8  8D 02 03  STA $0302 = 00                  A:60 X:07
DBAB  20 B5 DB  JSR $DBB5                       A:60 X:07       |       DBAB  20 B5 DB  JSR $DBB5                       A:60 X:07
DBB5  6C FF 02  JMP ($02FF) = 0300              A:60 X:07       |       DBB5  6C FF 02  JMP ($02FF) = 0300              A:60 X:07
0300  A9 AA     LDA #$AA                        A:60 X:07       |       0300  A9 AA     LDA #$AA                        A:60 X:07
0302  60        RTS                             A:AA X:07       |       0302  60        RTS                             A:AA X:07
DBAE  C9 AA     CMP #$AA                        A:AA X:07       |       DBAE  C9 AA     CMP #$AA                        A:AA X:07
DBB0  F0 02     BEQ $DBB4                       A:AA X:07       |       DBB0  F0 02     BEQ $DBB4                       A:AA X:07
DBB4  60        RTS                             A:AA X:07       |       DBB4  60        RTS                             A:AA X:07
C626  20 4A DF  JSR $DF4A                       A:AA X:07       |       C626  20 4A DF  JSR $DF4A                       A:AA X:07
DF4A  A9 89     LDA #$89                        A:AA X:07       |       DF4A  A9 89     LDA #$89                        A:AA X:07
DF4C  8D 00 03  STA $0300 = A9                  A:89 X:07       |       DF4C  8D 00 03  STA $0300 = A9                  A:89 X:07
DF4F  A9 A3     LDA #$A3                        A:89 X:07       |       DF4F  A9 A3     LDA #$A3                        A:89 X:07
DF51  85 33     STA $33 = 00                    A:A3 X:07       |       DF51  85 33     STA $33 = 00                    A:A3 X:07
DF53  A9 12     LDA #$12                        A:A3 X:07       |       DF53  A9 12     LDA #$12                        A:A3 X:07
DF55  8D 45 02  STA $0245 = 12                  A:12 X:07       |       DF55  8D 45 02  STA $0245 = 12                  A:12 X:07
DF58  A2 65     LDX #$65                        A:12 X:07       |       DF58  A2 65     LDX #$65                        A:12 X:07
DF5A  A0 00     LDY #$00                        A:12 X:65       |       DF5A  A0 00     LDY #$00                        A:12 X:65
DF5C  38        SEC                             A:12 X:65       |       DF5C  38        SEC                             A:12 X:65
DF5D  A9 00     LDA #$00                        A:12 X:65       |       DF5D  A9 00     LDA #$00                        A:12 X:65
DF5F  B8        CLV                             A:00 X:65       |       DF5F  B8        CLV                             A:00 X:65
DF60  B9 00 03  LDA $0300,Y @ 0300 = 89         A:00 X:65       |       DF60  B9 00 03  LDA $0300,Y @ 0300 = 89         A:00 X:65
DF63  F0 0C     BEQ $DF71                       A:89 X:65       |       DF63  F0 0C     BEQ $DF71                       A:89 X:65
DF65  90 0A     BCC $DF71                       A:89 X:65       |       DF65  90 0A     BCC $DF71                       A:89 X:65
DF67  70 08     BVS $DF71                       A:89 X:65       |       DF67  70 08     BVS $DF71                       A:89 X:65
DF69  C9 89     CMP #$89                        A:89 X:65       |       DF69  C9 89     CMP #$89                        A:89 X:65
DF6B  D0 04     BNE $DF71                       A:89 X:65       |       DF6B  D0 04     BNE $DF71                       A:89 X:65
DF6D  E0 65     CPX #$65                        A:89 X:65       |       DF6D  E0 65     CPX #$65                        A:89 X:65
DF6F  F0 04     BEQ $DF75                       A:89 X:65       |       DF6F  F0 04     BEQ $DF75                       A:89 X:65
DF75  A9 FF     LDA #$FF                        A:89 X:65       |       DF75  A9 FF     LDA #$FF                        A:89 X:65
DF77  85 01     STA $01 = FF                    A:FF X:65       |       DF77  85 01     STA $01 = FF                    A:FF X:65
DF79  24 01     BIT $01 = FF                    A:FF X:65       |       DF79  24 01     BIT $01 = FF                    A:FF X:65
DF7B  A0 34     LDY #$34                        A:FF X:65       |       DF7B  A0 34     LDY #$34                        A:FF X:65
DF7D  B9 FF FF  LDA $FFFF,Y @ 0033 = A3         A:FF X:65       |       DF7D  B9 FF FF  LDA $FFFF,Y @ 0033 = A3         A:FF X:65
DF80  C9 A3     CMP #$A3                        A:A3 X:65       |       DF80  C9 A3     CMP #$A3                        A:A3 X:65
DF82  D0 02     BNE $DF86                       A:A3 X:65       |       DF82  D0 02     BNE $DF86                       A:A3 X:65
DF84  B0 04     BCS $DF8A                       A:A3 X:65       |       DF84  B0 04     BCS $DF8A                       A:A3 X:65
DF8A  A9 46     LDA #$46                        A:A3 X:65       |       DF8A  A9 46     LDA #$46                        A:A3 X:65
DF8C  85 FF     STA $FF = 46                    A:46 X:65       |       DF8C  85 FF     STA $FF = 46                    A:46 X:65
DF8E  A0 FF     LDY #$FF                        A:46 X:65       |       DF8E  A0 FF     LDY #$FF                        A:46 X:65
DF90  B9 46 01  LDA $0146,Y @ 0245 = 12         A:46 X:65       |       DF90  B9 46 01  LDA $0146,Y @ 0245 = 12         A:46 X:65
DF93  C9 12     CMP #$12                        A:12 X:65       |       DF93  C9 12     CMP #$12                        A:12 X:65
DF95  F0 04     BEQ $DF9B                       A:12 X:65       |       DF95  F0 04     BEQ $DF9B                       A:12 X:65
DF9B  A2 39     LDX #$39                        A:12 X:65       |       DF9B  A2 39     LDX #$39                        A:12 X:65
DF9D  18        CLC                             A:12 X:39       |       DF9D  18        CLC                             A:12 X:39
DF9E  A9 FF     LDA #$FF                        A:12 X:39       |       DF9E  A9 FF     LDA #$FF                        A:12 X:39
DFA0  85 01     STA $01 = FF                    A:FF X:39       |       DFA0  85 01     STA $01 = FF                    A:FF X:39
DFA2  24 01     BIT $01 = FF                    A:FF X:39       |       DFA2  24 01     BIT $01 = FF                    A:FF X:39
DFA4  A9 AA     LDA #$AA                        A:FF X:39       |       DFA4  A9 AA     LDA #$AA                        A:FF X:39
DFA6  8D 00 04  STA $0400 = 87                  A:AA X:39       |       DFA6  8D 00 04  STA $0400 = 87                  A:AA X:39
DFA9  A9 55     LDA #$55                        A:AA X:39       |       DFA9  A9 55     LDA #$55                        A:AA X:39
DFAB  A0 00     LDY #$00                        A:55 X:39       |       DFAB  A0 00     LDY #$00                        A:55 X:39
DFAD  19 00 04  ORA $0400,Y @ 0400 = AA         A:55 X:39       |       DFAD  19 00 04  ORA $0400,Y @ 0400 = AA         A:55 X:39
DFB0  B0 08     BCS $DFBA                       A:FF X:39       |       DFB0  B0 08     BCS $DFBA                       A:FF X:39
DFB2  10 06     BPL $DFBA                       A:FF X:39       |       DFB2  10 06     BPL $DFBA                       A:FF X:39
DFB4  C9 FF     CMP #$FF                        A:FF X:39       |       DFB4  C9 FF     CMP #$FF                        A:FF X:39
DFB6  D0 02     BNE $DFBA                       A:FF X:39       |       DFB6  D0 02     BNE $DFBA                       A:FF X:39
DFB8  70 02     BVS $DFBC                       A:FF X:39       |       DFB8  70 02     BVS $DFBC                       A:FF X:39
DFBC  E8        INX                             A:FF X:39       |       DFBC  E8        INX                             A:FF X:39
DFBD  38        SEC                             A:FF X:3A       |       DFBD  38        SEC                             A:FF X:3A
DFBE  B8        CLV                             A:FF X:3A       |       DFBE  B8        CLV                             A:FF X:3A
DFBF  A9 00     LDA #$00                        A:FF X:3A       |       DFBF  A9 00     LDA #$00                        A:FF X:3A
DFC1  19 00 04  ORA $0400,Y @ 0400 = AA         A:00 X:3A       |       DFC1  19 00 04  ORA $0400,Y @ 0400 = AA         A:00 X:3A
DFC4  F0 06     BEQ $DFCC                       A:AA X:3A       |       DFC4  F0 06     BEQ $DFCC                       A:AA X:3A
DFC6  70 04     BVS $DFCC                       A:AA X:3A       |       DFC6  70 04     BVS $DFCC                       A:AA X:3A
DFC8  90 02     BCC $DFCC                       A:AA X:3A       |       DFC8  90 02     BCC $DFCC                       A:AA X:3A
DFCA  30 02     BMI $DFCE                       A:AA X:3A       |       DFCA  30 02     BMI $DFCE                       A:AA X:3A
DFCE  E8        INX                             A:AA X:3A       |       DFCE  E8        INX                             A:AA X:3A
DFCF  18        CLC                             A:AA X:3B       |       DFCF  18        CLC                             A:AA X:3B
DFD0  24 01     BIT $01 = FF                    A:AA X:3B       |       DFD0  24 01     BIT $01 = FF                    A:AA X:3B
DFD2  A9 55     LDA #$55                        A:AA X:3B       |       DFD2  A9 55     LDA #$55                        A:AA X:3B
DFD4  39 00 04  AND $0400,Y @ 0400 = AA         A:55 X:3B       |       DFD4  39 00 04  AND $0400,Y @ 0400 = AA         A:55 X:3B
DFD7  D0 06     BNE $DFDF                       A:00 X:3B       |       DFD7  D0 06     BNE $DFDF                       A:00 X:3B
DFD9  50 04     BVC $DFDF                       A:00 X:3B       |       DFD9  50 04     BVC $DFDF                       A:00 X:3B
DFDB  B0 02     BCS $DFDF                       A:00 X:3B       |       DFDB  B0 02     BCS $DFDF                       A:00 X:3B
DFDD  10 02     BPL $DFE1                       A:00 X:3B       |       DFDD  10 02     BPL $DFE1                       A:00 X:3B
DFE1  E8        INX                             A:00 X:3B       |       DFE1  E8        INX                             A:00 X:3B
DFE2  38        SEC                             A:00 X:3C       |       DFE2  38        SEC                             A:00 X:3C
DFE3  B8        CLV                             A:00 X:3C       |       DFE3  B8        CLV                             A:00 X:3C
DFE4  A9 EF     LDA #$EF                        A:00 X:3C       |       DFE4  A9 EF     LDA #$EF                        A:00 X:3C
DFE6  8D 00 04  STA $0400 = AA                  A:EF X:3C       |       DFE6  8D 00 04  STA $0400 = AA                  A:EF X:3C
DFE9  A9 F8     LDA #$F8                        A:EF X:3C       |       DFE9  A9 F8     LDA #$F8                        A:EF X:3C
DFEB  39 00 04  AND $0400,Y @ 0400 = EF         A:F8 X:3C       |       DFEB  39 00 04  AND $0400,Y @ 0400 = EF         A:F8 X:3C
DFEE  90 08     BCC $DFF8                       A:E8 X:3C       |       DFEE  90 08     BCC $DFF8                       A:E8 X:3C
DFF0  10 06     BPL $DFF8                       A:E8 X:3C       |       DFF0  10 06     BPL $DFF8                       A:E8 X:3C
DFF2  C9 E8     CMP #$E8                        A:E8 X:3C       |       DFF2  C9 E8     CMP #$E8                        A:E8 X:3C
DFF4  D0 02     BNE $DFF8                       A:E8 X:3C       |       DFF4  D0 02     BNE $DFF8                       A:E8 X:3C
DFF6  50 02     BVC $DFFA                       A:E8 X:3C       |       DFF6  50 02     BVC $DFFA                       A:E8 X:3C
DFFA  E8        INX                             A:E8 X:3C       |       DFFA  E8        INX                             A:E8 X:3C
DFFB  18        CLC                             A:E8 X:3D       |       DFFB  18        CLC                             A:E8 X:3D
DFFC  24 01     BIT $01 = FF                    A:E8 X:3D       |       DFFC  24 01     BIT $01 = FF                    A:E8 X:3D
DFFE  A9 AA     LDA #$AA                        A:E8 X:3D       |       DFFE  A9 AA     LDA #$AA                        A:E8 X:3D
E000  8D 00 04  STA $0400 = EF                  A:AA X:3D       |       E000  8D 00 04  STA $0400 = EF                  A:AA X:3D
E003  A9 5F     LDA #$5F                        A:AA X:3D       |       E003  A9 5F     LDA #$5F                        A:AA X:3D
E005  59 00 04  EOR $0400,Y @ 0400 = AA         A:5F X:3D       |       E005  59 00 04  EOR $0400,Y @ 0400 = AA         A:5F X:3D
E008  B0 08     BCS $E012                       A:F5 X:3D       |       E008  B0 08     BCS $E012                       A:F5 X:3D
E00A  10 06     BPL $E012                       A:F5 X:3D       |       E00A  10 06     BPL $E012                       A:F5 X:3D
E00C  C9 F5     CMP #$F5                        A:F5 X:3D       |       E00C  C9 F5     CMP #$F5                        A:F5 X:3D
E00E  D0 02     BNE $E012                       A:F5 X:3D       |       E00E  D0 02     BNE $E012                       A:F5 X:3D
E010  70 02     BVS $E014                       A:F5 X:3D       |       E010  70 02     BVS $E014                       A:F5 X:3D
E014  E8        INX                             A:F5 X:3D       |       E014  E8        INX                             A:F5 X:3D
E015  38        SEC                             A:F5 X:3E       |       E015  38        SEC                             A:F5 X:3E
E016  B8        CLV                             A:F5 X:3E       |       E016  B8        CLV                             A:F5 X:3E
E017  A9 70     LDA #$70                        A:F5 X:3E       |       E017  A9 70     LDA #$70                        A:F5 X:3E
E019  8D 00 04  STA $0400 = AA                  A:70 X:3E       |       E019  8D 00 04  STA $0400 = AA                  A:70 X:3E
E01C  59 00 04  EOR $0400,Y @ 0400 = 70         A:70 X:3E       |       E01C  59 00 04  EOR $0400,Y @ 0400 = 70         A:70 X:3E
E01F  D0 06     BNE $E027                       A:00 X:3E       |       E01F  D0 06     BNE $E027                       A:00 X:3E
E021  70 04     BVS $E027                       A:00 X:3E       |       E021  70 04     BVS $E027                       A:00 X:3E
E023  90 02     BCC $E027                       A:00 X:3E       |       E023  90 02     BCC $E027                       A:00 X:3E
E025  10 02     BPL $E029                       A:00 X:3E       |       E025  10 02     BPL $E029                       A:00 X:3E
E029  E8        INX                             A:00 X:3E       |       E029  E8        INX                             A:00 X:3E
E02A  18        CLC                             A:00 X:3F       |       E02A  18        CLC                             A:00 X:3F
E02B  24 01     BIT $01 = FF                    A:00 X:3F       |       E02B  24 01     BIT $01 = FF                    A:00 X:3F
E02D  A9 69     LDA #$69                        A:00 X:3F       |       E02D  A9 69     LDA #$69                        A:00 X:3F
E02F  8D 00 04  STA $0400 = 70                  A:69 X:3F       |       E02F  8D 00 04  STA $0400 = 70                  A:69 X:3F
E032  A9 00     LDA #$00                        A:69 X:3F       |       E032  A9 00     LDA #$00                        A:69 X:3F
E034  79 00 04  ADC $0400,Y @ 0400 = 69         A:00 X:3F       |       E034  79 00 04  ADC $0400,Y @ 0400 = 69         A:00 X:3F
E037  30 08     BMI $E041                       A:69 X:3F       |       E037  30 08     BMI $E041                       A:69 X:3F
E039  B0 06     BCS $E041                       A:69 X:3F       |       E039  B0 06     BCS $E041                       A:69 X:3F
E03B  C9 69     CMP #$69                        A:69 X:3F       |       E03B  C9 69     CMP #$69                        A:69 X:3F
E03D  D0 02     BNE $E041                       A:69 X:3F       |       E03D  D0 02     BNE $E041                       A:69 X:3F
E03F  50 02     BVC $E043                       A:69 X:3F       |       E03F  50 02     BVC $E043                       A:69 X:3F
E043  E8        INX                             A:69 X:3F       |       E043  E8        INX                             A:69 X:3F
E044  38        SEC                             A:69 X:40       |       E044  38        SEC                             A:69 X:40
E045  24 01     BIT $01 = FF                    A:69 X:40       |       E045  24 01     BIT $01 = FF                    A:69 X:40
E047  A9 00     LDA #$00                        A:69 X:40       |       E047  A9 00     LDA #$00                        A:69 X:40
E049  79 00 04  ADC $0400,Y @ 0400 = 69         A:00 X:40       |       E049  79 00 04  ADC $0400,Y @ 0400 = 69         A:00 X:40
E04C  30 08     BMI $E056                       A:6A X:40       |       E04C  30 08     BMI $E056                       A:6A X:40
E04E  B0 06     BCS $E056                       A:6A X:40       |       E04E  B0 06     BCS $E056                       A:6A X:40
E050  C9 6A     CMP #$6A                        A:6A X:40       |       E050  C9 6A     CMP #$6A                        A:6A X:40
E052  D0 02     BNE $E056                       A:6A X:40       |       E052  D0 02     BNE $E056                       A:6A X:40
E054  50 02     BVC $E058                       A:6A X:40       |       E054  50 02     BVC $E058                       A:6A X:40
E058  E8        INX                             A:6A X:40       |       E058  E8        INX                             A:6A X:40
E059  38        SEC                             A:6A X:41       |       E059  38        SEC                             A:6A X:41
E05A  B8        CLV                             A:6A X:41       |       E05A  B8        CLV                             A:6A X:41
E05B  A9 7F     LDA #$7F                        A:6A X:41       |       E05B  A9 7F     LDA #$7F                        A:6A X:41
E05D  8D 00 04  STA $0400 = 69                  A:7F X:41       |       E05D  8D 00 04  STA $0400 = 69                  A:7F X:41
E060  79 00 04  ADC $0400,Y @ 0400 = 7F         A:7F X:41       |       E060  79 00 04  ADC $0400,Y @ 0400 = 7F         A:7F X:41
E063  10 08     BPL $E06D                       A:FF X:41       |       E063  10 08     BPL $E06D                       A:FF X:41
E065  B0 06     BCS $E06D                       A:FF X:41       |       E065  B0 06     BCS $E06D                       A:FF X:41
E067  C9 FF     CMP #$FF                        A:FF X:41       |       E067  C9 FF     CMP #$FF                        A:FF X:41
E069  D0 02     BNE $E06D                       A:FF X:41       |       E069  D0 02     BNE $E06D                       A:FF X:41
E06B  70 02     BVS $E06F                       A:FF X:41       |       E06B  70 02     BVS $E06F                       A:FF X:41
E06F  E8        INX                             A:FF X:41       |       E06F  E8        INX                             A:FF X:41
E070  18        CLC                             A:FF X:42       |       E070  18        CLC                             A:FF X:42
E071  24 01     BIT $01 = FF                    A:FF X:42       |       E071  24 01     BIT $01 = FF                    A:FF X:42
E073  A9 80     LDA #$80                        A:FF X:42       |       E073  A9 80     LDA #$80                        A:FF X:42
E075  8D 00 04  STA $0400 = 7F                  A:80 X:42       |       E075  8D 00 04  STA $0400 = 7F                  A:80 X:42
E078  A9 7F     LDA #$7F                        A:80 X:42       |       E078  A9 7F     LDA #$7F                        A:80 X:42
E07A  79 00 04  ADC $0400,Y @ 0400 = 80         A:7F X:42       |       E07A  79 00 04  ADC $0400,Y @ 0400 = 80         A:7F X:42
E07D  10 08     BPL $E087                       A:FF X:42       |       E07D  10 08     BPL $E087                       A:FF X:42
E07F  B0 06     BCS $E087                       A:FF X:42       |       E07F  B0 06     BCS $E087                       A:FF X:42
E081  C9 FF     CMP #$FF                        A:FF X:42       |       E081  C9 FF     CMP #$FF                        A:FF X:42
E083  D0 02     BNE $E087                       A:FF X:42       |       E083  D0 02     BNE $E087                       A:FF X:42
E085  50 02     BVC $E089                       A:FF X:42       |       E085  50 02     BVC $E089                       A:FF X:42
E089  E8        INX                             A:FF X:42       |       E089  E8        INX                             A:FF X:42
E08A  38        SEC                             A:FF X:43       |       E08A  38        SEC                             A:FF X:43
E08B  B8        CLV                             A:FF X:43       |       E08B  B8        CLV                             A:FF X:43
E08C  A9 80     LDA #$80                        A:FF X:43       |       E08C  A9 80     LDA #$80                        A:FF X:43
E08E  8D 00 04  STA $0400 = 80                  A:80 X:43       |       E08E  8D 00 04  STA $0400 = 80                  A:80 X:43
E091  A9 7F     LDA #$7F                        A:80 X:43       |       E091  A9 7F     LDA #$7F                        A:80 X:43
E093  79 00 04  ADC $0400,Y @ 0400 = 80         A:7F X:43       |       E093  79 00 04  ADC $0400,Y @ 0400 = 80         A:7F X:43
E096  D0 06     BNE $E09E                       A:00 X:43       |       E096  D0 06     BNE $E09E                       A:00 X:43
E098  30 04     BMI $E09E                       A:00 X:43       |       E098  30 04     BMI $E09E                       A:00 X:43
E09A  70 02     BVS $E09E                       A:00 X:43       |       E09A  70 02     BVS $E09E                       A:00 X:43
E09C  B0 02     BCS $E0A0                       A:00 X:43       |       E09C  B0 02     BCS $E0A0                       A:00 X:43
E0A0  E8        INX                             A:00 X:43       |       E0A0  E8        INX                             A:00 X:43
E0A1  24 01     BIT $01 = FF                    A:00 X:44       |       E0A1  24 01     BIT $01 = FF                    A:00 X:44
E0A3  A9 40     LDA #$40                        A:00 X:44       |       E0A3  A9 40     LDA #$40                        A:00 X:44
E0A5  8D 00 04  STA $0400 = 80                  A:40 X:44       |       E0A5  8D 00 04  STA $0400 = 80                  A:40 X:44
E0A8  D9 00 04  CMP $0400,Y @ 0400 = 40         A:40 X:44       |       E0A8  D9 00 04  CMP $0400,Y @ 0400 = 40         A:40 X:44
E0AB  30 06     BMI $E0B3                       A:40 X:44       |       E0AB  30 06     BMI $E0B3                       A:40 X:44
E0AD  90 04     BCC $E0B3                       A:40 X:44       |       E0AD  90 04     BCC $E0B3                       A:40 X:44
E0AF  D0 02     BNE $E0B3                       A:40 X:44       |       E0AF  D0 02     BNE $E0B3                       A:40 X:44
E0B1  70 02     BVS $E0B5                       A:40 X:44       |       E0B1  70 02     BVS $E0B5                       A:40 X:44
E0B5  E8        INX                             A:40 X:44       |       E0B5  E8        INX                             A:40 X:44
E0B6  B8        CLV                             A:40 X:45       |       E0B6  B8        CLV                             A:40 X:45
E0B7  CE 00 04  DEC $0400 = 40                  A:40 X:45       |       E0B7  CE 00 04  DEC $0400 = 40                  A:40 X:45
E0BA  D9 00 04  CMP $0400,Y @ 0400 = 3F         A:40 X:45       |       E0BA  D9 00 04  CMP $0400,Y @ 0400 = 3F         A:40 X:45
E0BD  F0 06     BEQ $E0C5                       A:40 X:45       |       E0BD  F0 06     BEQ $E0C5                       A:40 X:45
E0BF  30 04     BMI $E0C5                       A:40 X:45       |       E0BF  30 04     BMI $E0C5                       A:40 X:45
E0C1  90 02     BCC $E0C5                       A:40 X:45       |       E0C1  90 02     BCC $E0C5                       A:40 X:45
E0C3  50 02     BVC $E0C7                       A:40 X:45       |       E0C3  50 02     BVC $E0C7                       A:40 X:45
E0C7  E8        INX                             A:40 X:45       |       E0C7  E8        INX                             A:40 X:45
E0C8  EE 00 04  INC $0400 = 3F                  A:40 X:46       |       E0C8  EE 00 04  INC $0400 = 3F                  A:40 X:46
E0CB  EE 00 04  INC $0400 = 40                  A:40 X:46       |       E0CB  EE 00 04  INC $0400 = 40                  A:40 X:46
E0CE  D9 00 04  CMP $0400,Y @ 0400 = 41         A:40 X:46       |       E0CE  D9 00 04  CMP $0400,Y @ 0400 = 41         A:40 X:46
E0D1  F0 02     BEQ $E0D5                       A:40 X:46       |       E0D1  F0 02     BEQ $E0D5                       A:40 X:46
E0D3  30 02     BMI $E0D7                       A:40 X:46       |       E0D3  30 02     BMI $E0D7                       A:40 X:46
E0D7  E8        INX                             A:40 X:46       |       E0D7  E8        INX                             A:40 X:46
E0D8  A9 00     LDA #$00                        A:40 X:47       |       E0D8  A9 00     LDA #$00                        A:40 X:47
E0DA  8D 00 04  STA $0400 = 41                  A:00 X:47       |       E0DA  8D 00 04  STA $0400 = 41                  A:00 X:47
E0DD  A9 80     LDA #$80                        A:00 X:47       |       E0DD  A9 80     LDA #$80                        A:00 X:47
E0DF  D9 00 04  CMP $0400,Y @ 0400 = 00         A:80 X:47       |       E0DF  D9 00 04  CMP $0400,Y @ 0400 = 00         A:80 X:47
E0E2  F0 04     BEQ $E0E8                       A:80 X:47       |       E0E2  F0 04     BEQ $E0E8                       A:80 X:47
E0E4  10 02     BPL $E0E8                       A:80 X:47       |       E0E4  10 02     BPL $E0E8                       A:80 X:47
E0E6  B0 02     BCS $E0EA                       A:80 X:47       |       E0E6  B0 02     BCS $E0EA                       A:80 X:47
E0EA  E8        INX                             A:80 X:47       |       E0EA  E8        INX                             A:80 X:47
E0EB  A0 80     LDY #$80                        A:80 X:48       |       E0EB  A0 80     LDY #$80                        A:80 X:48
E0ED  8C 00 04  STY $0400 = 00                  A:80 X:48       |       E0ED  8C 00 04  STY $0400 = 00                  A:80 X:48
E0F0  A0 00     LDY #$00                        A:80 X:48       |       E0F0  A0 00     LDY #$00                        A:80 X:48
E0F2  D9 00 04  CMP $0400,Y @ 0400 = 80         A:80 X:48       |       E0F2  D9 00 04  CMP $0400,Y @ 0400 = 80         A:80 X:48
E0F5  D0 04     BNE $E0FB                       A:80 X:48       |       E0F5  D0 04     BNE $E0FB                       A:80 X:48
E0F7  30 02     BMI $E0FB                       A:80 X:48       |       E0F7  30 02     BMI $E0FB                       A:80 X:48
E0F9  B0 02     BCS $E0FD                       A:80 X:48       |       E0F9  B0 02     BCS $E0FD                       A:80 X:48
E0FD  E8        INX                             A:80 X:48       |       E0FD  E8        INX                             A:80 X:48
E0FE  EE 00 04  INC $0400 = 80                  A:80 X:49       |       E0FE  EE 00 04  INC $0400 = 80                  A:80 X:49
E101  D9 00 04  CMP $0400,Y @ 0400 = 81         A:80 X:49       |       E101  D9 00 04  CMP $0400,Y @ 0400 = 81         A:80 X:49
E104  B0 04     BCS $E10A                       A:80 X:49       |       E104  B0 04     BCS $E10A                       A:80 X:49
E106  F0 02     BEQ $E10A                       A:80 X:49       |       E106  F0 02     BEQ $E10A                       A:80 X:49
E108  30 02     BMI $E10C                       A:80 X:49       |       E108  30 02     BMI $E10C                       A:80 X:49
E10C  E8        INX                             A:80 X:49       |       E10C  E8        INX                             A:80 X:49
E10D  CE 00 04  DEC $0400 = 81                  A:80 X:4A       |       E10D  CE 00 04  DEC $0400 = 81                  A:80 X:4A
E110  CE 00 04  DEC $0400 = 80                  A:80 X:4A       |       E110  CE 00 04  DEC $0400 = 80                  A:80 X:4A
E113  D9 00 04  CMP $0400,Y @ 0400 = 7F         A:80 X:4A       |       E113  D9 00 04  CMP $0400,Y @ 0400 = 7F         A:80 X:4A
E116  90 04     BCC $E11C                       A:80 X:4A       |       E116  90 04     BCC $E11C                       A:80 X:4A
E118  F0 02     BEQ $E11C                       A:80 X:4A       |       E118  F0 02     BEQ $E11C                       A:80 X:4A
E11A  10 02     BPL $E11E                       A:80 X:4A       |       E11A  10 02     BPL $E11E                       A:80 X:4A
E11E  E8        INX                             A:80 X:4A       |       E11E  E8        INX                             A:80 X:4A
E11F  24 01     BIT $01 = FF                    A:80 X:4B       |       E11F  24 01     BIT $01 = FF                    A:80 X:4B
E121  A9 40     LDA #$40                        A:80 X:4B       |       E121  A9 40     LDA #$40                        A:80 X:4B
E123  8D 00 04  STA $0400 = 7F                  A:40 X:4B       |       E123  8D 00 04  STA $0400 = 7F                  A:40 X:4B
E126  38        SEC                             A:40 X:4B       |       E126  38        SEC                             A:40 X:4B
E127  F9 00 04  SBC $0400,Y @ 0400 = 40         A:40 X:4B       |       E127  F9 00 04  SBC $0400,Y @ 0400 = 40         A:40 X:4B
E12A  30 0A     BMI $E136                       A:00 X:4B       |       E12A  30 0A     BMI $E136                       A:00 X:4B
E12C  90 08     BCC $E136                       A:00 X:4B       |       E12C  90 08     BCC $E136                       A:00 X:4B
E12E  D0 06     BNE $E136                       A:00 X:4B       |       E12E  D0 06     BNE $E136                       A:00 X:4B
E130  70 04     BVS $E136                       A:00 X:4B       |       E130  70 04     BVS $E136                       A:00 X:4B
E132  C9 00     CMP #$00                        A:00 X:4B       |       E132  C9 00     CMP #$00                        A:00 X:4B
E134  F0 02     BEQ $E138                       A:00 X:4B       |       E134  F0 02     BEQ $E138                       A:00 X:4B
E138  E8        INX                             A:00 X:4B       |       E138  E8        INX                             A:00 X:4B
E139  B8        CLV                             A:00 X:4C       |       E139  B8        CLV                             A:00 X:4C
E13A  38        SEC                             A:00 X:4C       |       E13A  38        SEC                             A:00 X:4C
E13B  A9 40     LDA #$40                        A:00 X:4C       |       E13B  A9 40     LDA #$40                        A:00 X:4C
E13D  CE 00 04  DEC $0400 = 40                  A:40 X:4C       |       E13D  CE 00 04  DEC $0400 = 40                  A:40 X:4C
E140  F9 00 04  SBC $0400,Y @ 0400 = 3F         A:40 X:4C       |       E140  F9 00 04  SBC $0400,Y @ 0400 = 3F         A:40 X:4C
E143  F0 0A     BEQ $E14F                       A:01 X:4C       |       E143  F0 0A     BEQ $E14F                       A:01 X:4C
E145  30 08     BMI $E14F                       A:01 X:4C       |       E145  30 08     BMI $E14F                       A:01 X:4C
E147  90 06     BCC $E14F                       A:01 X:4C       |       E147  90 06     BCC $E14F                       A:01 X:4C
E149  70 04     BVS $E14F                       A:01 X:4C       |       E149  70 04     BVS $E14F                       A:01 X:4C
E14B  C9 01     CMP #$01                        A:01 X:4C       |       E14B  C9 01     CMP #$01                        A:01 X:4C
E14D  F0 02     BEQ $E151                       A:01 X:4C       |       E14D  F0 02     BEQ $E151                       A:01 X:4C
E151  E8        INX                             A:01 X:4C       |       E151  E8        INX                             A:01 X:4C
E152  A9 40     LDA #$40                        A:01 X:4D       |       E152  A9 40     LDA #$40                        A:01 X:4D
E154  38        SEC                             A:40 X:4D       |       E154  38        SEC                             A:40 X:4D
E155  24 01     BIT $01 = FF                    A:40 X:4D       |       E155  24 01     BIT $01 = FF                    A:40 X:4D
E157  EE 00 04  INC $0400 = 3F                  A:40 X:4D       |       E157  EE 00 04  INC $0400 = 3F                  A:40 X:4D
E15A  EE 00 04  INC $0400 = 40                  A:40 X:4D       |       E15A  EE 00 04  INC $0400 = 40                  A:40 X:4D
E15D  F9 00 04  SBC $0400,Y @ 0400 = 41         A:40 X:4D       |       E15D  F9 00 04  SBC $0400,Y @ 0400 = 41         A:40 X:4D
E160  B0 0A     BCS $E16C                       A:FF X:4D       |       E160  B0 0A     BCS $E16C                       A:FF X:4D
E162  F0 08     BEQ $E16C                       A:FF X:4D       |       E162  F0 08     BEQ $E16C                       A:FF X:4D
E164  10 06     BPL $E16C                       A:FF X:4D       |       E164  10 06     BPL $E16C                       A:FF X:4D
E166  70 04     BVS $E16C                       A:FF X:4D       |       E166  70 04     BVS $E16C                       A:FF X:4D
E168  C9 FF     CMP #$FF                        A:FF X:4D       |       E168  C9 FF     CMP #$FF                        A:FF X:4D
E16A  F0 02     BEQ $E16E                       A:FF X:4D       |       E16A  F0 02     BEQ $E16E                       A:FF X:4D
E16E  E8        INX                             A:FF X:4D       |       E16E  E8        INX                             A:FF X:4D
E16F  18        CLC                             A:FF X:4E       |       E16F  18        CLC                             A:FF X:4E
E170  A9 00     LDA #$00                        A:FF X:4E       |       E170  A9 00     LDA #$00                        A:FF X:4E
E172  8D 00 04  STA $0400 = 41                  A:00 X:4E       |       E172  8D 00 04  STA $0400 = 41                  A:00 X:4E
E175  A9 80     LDA #$80                        A:00 X:4E       |       E175  A9 80     LDA #$80                        A:00 X:4E
E177  F9 00 04  SBC $0400,Y @ 0400 = 00         A:80 X:4E       |       E177  F9 00 04  SBC $0400,Y @ 0400 = 00         A:80 X:4E
E17A  90 04     BCC $E180                       A:7F X:4E       |       E17A  90 04     BCC $E180                       A:7F X:4E
E17C  C9 7F     CMP #$7F                        A:7F X:4E       |       E17C  C9 7F     CMP #$7F                        A:7F X:4E
E17E  F0 02     BEQ $E182                       A:7F X:4E       |       E17E  F0 02     BEQ $E182                       A:7F X:4E
E182  E8        INX                             A:7F X:4E       |       E182  E8        INX                             A:7F X:4E
E183  38        SEC                             A:7F X:4F       |       E183  38        SEC                             A:7F X:4F
E184  A9 7F     LDA #$7F                        A:7F X:4F       |       E184  A9 7F     LDA #$7F                        A:7F X:4F
E186  8D 00 04  STA $0400 = 00                  A:7F X:4F       |       E186  8D 00 04  STA $0400 = 00                  A:7F X:4F
E189  A9 81     LDA #$81                        A:7F X:4F       |       E189  A9 81     LDA #$81                        A:7F X:4F
E18B  F9 00 04  SBC $0400,Y @ 0400 = 7F         A:81 X:4F       |       E18B  F9 00 04  SBC $0400,Y @ 0400 = 7F         A:81 X:4F
E18E  50 06     BVC $E196                       A:02 X:4F       |       E18E  50 06     BVC $E196                       A:02 X:4F
E190  90 04     BCC $E196                       A:02 X:4F       |       E190  90 04     BCC $E196                       A:02 X:4F
E192  C9 02     CMP #$02                        A:02 X:4F       |       E192  C9 02     CMP #$02                        A:02 X:4F
E194  F0 02     BEQ $E198                       A:02 X:4F       |       E194  F0 02     BEQ $E198                       A:02 X:4F
E198  E8        INX                             A:02 X:4F       |       E198  E8        INX                             A:02 X:4F
E199  A9 00     LDA #$00                        A:02 X:50       |       E199  A9 00     LDA #$00                        A:02 X:50
E19B  A9 87     LDA #$87                        A:00 X:50       |       E19B  A9 87     LDA #$87                        A:00 X:50
E19D  99 00 04  STA $0400,Y @ 0400 = 7F         A:87 X:50       |       E19D  99 00 04  STA $0400,Y @ 0400 = 7F         A:87 X:50
E1A0  AD 00 04  LDA $0400 = 87                  A:87 X:50       |       E1A0  AD 00 04  LDA $0400 = 87                  A:87 X:50
E1A3  C9 87     CMP #$87                        A:87 X:50       |       E1A3  C9 87     CMP #$87                        A:87 X:50
E1A5  F0 02     BEQ $E1A9                       A:87 X:50       |       E1A5  F0 02     BEQ $E1A9                       A:87 X:50
E1A9  60        RTS                             A:87 X:50       |       E1A9  60        RTS                             A:87 X:50
C629  20 B8 DB  JSR $DBB8                       A:87 X:50       |       C629  20 B8 DB  JSR $DBB8                       A:87 X:50
DBB8  A9 FF     LDA #$FF                        A:87 X:50       |       DBB8  A9 FF     LDA #$FF                        A:87 X:50
DBBA  85 01     STA $01 = FF                    A:FF X:50       |       DBBA  85 01     STA $01 = FF                    A:FF X:50
DBBC  A9 AA     LDA #$AA                        A:FF X:50       |       DBBC  A9 AA     LDA #$AA                        A:FF X:50
DBBE  85 33     STA $33 = A3                    A:AA X:50       |       DBBE  85 33     STA $33 = A3                    A:AA X:50
DBC0  A9 BB     LDA #$BB                        A:AA X:50       |       DBC0  A9 BB     LDA #$BB                        A:AA X:50
DBC2  85 89     STA $89 = 00                    A:BB X:50       |       DBC2  85 89     STA $89 = 00                    A:BB X:50
DBC4  A2 00     LDX #$00                        A:BB X:50       |       DBC4  A2 00     LDX #$00                        A:BB X:50
DBC6  A9 66     LDA #$66                        A:BB X:00       |       DBC6  A9 66     LDA #$66                        A:BB X:00
DBC8  24 01     BIT $01 = FF                    A:66 X:00       |       DBC8  24 01     BIT $01 = FF                    A:66 X:00
DBCA  38        SEC                             A:66 X:00       |       DBCA  38        SEC                             A:66 X:00
DBCB  A0 00     LDY #$00                        A:66 X:00       |       DBCB  A0 00     LDY #$00                        A:66 X:00
DBCD  B4 33     LDY $33,X @ 33 = AA             A:66 X:00       |       DBCD  B4 33     LDY $33,X @ 33 = AA             A:66 X:00
DBCF  10 12     BPL $DBE3                       A:66 X:00       |       DBCF  10 12     BPL $DBE3                       A:66 X:00
DBD1  F0 10     BEQ $DBE3                       A:66 X:00       |       DBD1  F0 10     BEQ $DBE3                       A:66 X:00
DBD3  50 0E     BVC $DBE3                       A:66 X:00       |       DBD3  50 0E     BVC $DBE3                       A:66 X:00
DBD5  90 0C     BCC $DBE3                       A:66 X:00       |       DBD5  90 0C     BCC $DBE3                       A:66 X:00
DBD7  C9 66     CMP #$66                        A:66 X:00       |       DBD7  C9 66     CMP #$66                        A:66 X:00
DBD9  D0 08     BNE $DBE3                       A:66 X:00       |       DBD9  D0 08     BNE $DBE3                       A:66 X:00
DBDB  E0 00     CPX #$00                        A:66 X:00       |       DBDB  E0 00     CPX #$00                        A:66 X:00
DBDD  D0 04     BNE $DBE3                       A:66 X:00       |       DBDD  D0 04     BNE $DBE3                       A:66 X:00
DBDF  C0 AA     CPY #$AA                        A:66 X:00       |       DBDF  C0 AA     CPY #$AA                        A:66 X:00
DBE1  F0 04     BEQ $DBE7                       A:66 X:00       |       DBE1  F0 04     BEQ $DBE7                       A:66 X:00
DBE7  A2 8A     LDX #$8A                        A:66 X:00       |       DBE7  A2 8A     LDX #$8A                        A:66 X:00
DBE9  A9 66     LDA #$66                        A:66 X:8A       |       DBE9  A9 66     LDA #$66                        A:66 X:8A
DBEB  B8        CLV                             A:66 X:8A       |       DBEB  B8        CLV                             A:66 X:8A
DBEC  18        CLC                             A:66 X:8A       |       DBEC  18        CLC                             A:66 X:8A
DBED  A0 00     LDY #$00                        A:66 X:8A       |       DBED  A0 00     LDY #$00                        A:66 X:8A
DBEF  B4 FF     LDY $FF,X @ 89 = BB             A:66 X:8A       |       DBEF  B4 FF     LDY $FF,X @ 89 = BB             A:66 X:8A
DBF1  10 12     BPL $DC05                       A:66 X:8A       |       DBF1  10 12     BPL $DC05                       A:66 X:8A
DBF3  F0 10     BEQ $DC05                       A:66 X:8A       |       DBF3  F0 10     BEQ $DC05                       A:66 X:8A
DBF5  70 0E     BVS $DC05                       A:66 X:8A       |       DBF5  70 0E     BVS $DC05                       A:66 X:8A
DBF7  B0 0C     BCS $DC05                       A:66 X:8A       |       DBF7  B0 0C     BCS $DC05                       A:66 X:8A
DBF9  C0 BB     CPY #$BB                        A:66 X:8A       |       DBF9  C0 BB     CPY #$BB                        A:66 X:8A
DBFB  D0 08     BNE $DC05                       A:66 X:8A       |       DBFB  D0 08     BNE $DC05                       A:66 X:8A
DBFD  C9 66     CMP #$66                        A:66 X:8A       |       DBFD  C9 66     CMP #$66                        A:66 X:8A
DBFF  D0 04     BNE $DC05                       A:66 X:8A       |       DBFF  D0 04     BNE $DC05                       A:66 X:8A
DC01  E0 8A     CPX #$8A                        A:66 X:8A       |       DC01  E0 8A     CPX #$8A                        A:66 X:8A
DC03  F0 04     BEQ $DC09                       A:66 X:8A       |       DC03  F0 04     BEQ $DC09                       A:66 X:8A
DC09  24 01     BIT $01 = FF                    A:66 X:8A       |       DC09  24 01     BIT $01 = FF                    A:66 X:8A
DC0B  38        SEC                             A:66 X:8A       |       DC0B  38        SEC                             A:66 X:8A
DC0C  A0 44     LDY #$44                        A:66 X:8A       |       DC0C  A0 44     LDY #$44                        A:66 X:8A
DC0E  A2 00     LDX #$00                        A:66 X:8A       |       DC0E  A2 00     LDX #$00                        A:66 X:8A
DC10  94 33     STY $33,X @ 33 = AA             A:66 X:00       |       DC10  94 33     STY $33,X @ 33 = AA             A:66 X:00
DC12  A5 33     LDA $33 = 44                    A:66 X:00       |       DC12  A5 33     LDA $33 = 44                    A:66 X:00
DC14  90 18     BCC $DC2E                       A:44 X:00       |       DC14  90 18     BCC $DC2E                       A:44 X:00
DC16  C9 44     CMP #$44                        A:44 X:00       |       DC16  C9 44     CMP #$44                        A:44 X:00
DC18  D0 14     BNE $DC2E                       A:44 X:00       |       DC18  D0 14     BNE $DC2E                       A:44 X:00
DC1A  50 12     BVC $DC2E                       A:44 X:00       |       DC1A  50 12     BVC $DC2E                       A:44 X:00
DC1C  18        CLC                             A:44 X:00       |       DC1C  18        CLC                             A:44 X:00
DC1D  B8        CLV                             A:44 X:00       |       DC1D  B8        CLV                             A:44 X:00
DC1E  A0 99     LDY #$99                        A:44 X:00       |       DC1E  A0 99     LDY #$99                        A:44 X:00
DC20  A2 80     LDX #$80                        A:44 X:00       |       DC20  A2 80     LDX #$80                        A:44 X:00
DC22  94 85     STY $85,X @ 05 = 00             A:44 X:80       |       DC22  94 85     STY $85,X @ 05 = 00             A:44 X:80
DC24  A5 05     LDA $05 = 99                    A:44 X:80       |       DC24  A5 05     LDA $05 = 99                    A:44 X:80
DC26  B0 06     BCS $DC2E                       A:99 X:80       |       DC26  B0 06     BCS $DC2E                       A:99 X:80
DC28  C9 99     CMP #$99                        A:99 X:80       |       DC28  C9 99     CMP #$99                        A:99 X:80
DC2A  D0 02     BNE $DC2E                       A:99 X:80       |       DC2A  D0 02     BNE $DC2E                       A:99 X:80
DC2C  50 04     BVC $DC32                       A:99 X:80       |       DC2C  50 04     BVC $DC32                       A:99 X:80
DC32  A0 0B     LDY #$0B                        A:99 X:80       |       DC32  A0 0B     LDY #$0B                        A:99 X:80
DC34  A9 AA     LDA #$AA                        A:99 X:80       |       DC34  A9 AA     LDA #$AA                        A:99 X:80
DC36  A2 78     LDX #$78                        A:AA X:80       |       DC36  A2 78     LDX #$78                        A:AA X:80
DC38  85 78     STA $78 = 00                    A:AA X:78       |       DC38  85 78     STA $78 = 00                    A:AA X:78
DC3A  20 B6 F7  JSR $F7B6                       A:AA X:78       |       DC3A  20 B6 F7  JSR $F7B6                       A:AA X:78
F7B6  18        CLC                             A:AA X:78       |       F7B6  18        CLC                             A:AA X:78
F7B7  A9 FF     LDA #$FF                        A:AA X:78       |       F7B7  A9 FF     LDA #$FF                        A:AA X:78
F7B9  85 01     STA $01 = FF                    A:FF X:78       |       F7B9  85 01     STA $01 = FF                    A:FF X:78
F7BB  24 01     BIT $01 = FF                    A:FF X:78       |       F7BB  24 01     BIT $01 = FF                    A:FF X:78
F7BD  A9 55     LDA #$55                        A:FF X:78       |       F7BD  A9 55     LDA #$55                        A:FF X:78
F7BF  60        RTS                             A:55 X:78       |       F7BF  60        RTS                             A:55 X:78
DC3D  15 00     ORA $00,X @ 78 = AA             A:55 X:78       |       DC3D  15 00     ORA $00,X @ 78 = AA             A:55 X:78
DC3F  20 C0 F7  JSR $F7C0                       A:FF X:78       |       DC3F  20 C0 F7  JSR $F7C0                       A:FF X:78
F7C0  B0 09     BCS $F7CB                       A:FF X:78       |       F7C0  B0 09     BCS $F7CB                       A:FF X:78
F7C2  10 07     BPL $F7CB                       A:FF X:78       |       F7C2  10 07     BPL $F7CB                       A:FF X:78
F7C4  C9 FF     CMP #$FF                        A:FF X:78       |       F7C4  C9 FF     CMP #$FF                        A:FF X:78
F7C6  D0 03     BNE $F7CB                       A:FF X:78       |       F7C6  D0 03     BNE $F7CB                       A:FF X:78
F7C8  50 01     BVC $F7CB                       A:FF X:78       |       F7C8  50 01     BVC $F7CB                       A:FF X:78
F7CA  60        RTS                             A:FF X:78       |       F7CA  60        RTS                             A:FF X:78
DC42  C8        INY                             A:FF X:78       |       DC42  C8        INY                             A:FF X:78
DC43  A9 00     LDA #$00                        A:FF X:78       |       DC43  A9 00     LDA #$00                        A:FF X:78
DC45  85 78     STA $78 = AA                    A:00 X:78       |       DC45  85 78     STA $78 = AA                    A:00 X:78
DC47  20 CE F7  JSR $F7CE                       A:00 X:78       |       DC47  20 CE F7  JSR $F7CE                       A:00 X:78
F7CE  38        SEC                             A:00 X:78       |       F7CE  38        SEC                             A:00 X:78
F7CF  B8        CLV                             A:00 X:78       |       F7CF  B8        CLV                             A:00 X:78
F7D0  A9 00     LDA #$00                        A:00 X:78       |       F7D0  A9 00     LDA #$00                        A:00 X:78
F7D2  60        RTS                             A:00 X:78       |       F7D2  60        RTS                             A:00 X:78
DC4A  15 00     ORA $00,X @ 78 = 00             A:00 X:78       |       DC4A  15 00     ORA $00,X @ 78 = 00             A:00 X:78
DC4C  20 D3 F7  JSR $F7D3                       A:00 X:78       |       DC4C  20 D3 F7  JSR $F7D3                       A:00 X:78
F7D3  D0 07     BNE $F7DC                       A:00 X:78       |       F7D3  D0 07     BNE $F7DC                       A:00 X:78
F7D5  70 05     BVS $F7DC                       A:00 X:78       |       F7D5  70 05     BVS $F7DC                       A:00 X:78
F7D7  90 03     BCC $F7DC                       A:00 X:78       |       F7D7  90 03     BCC $F7DC                       A:00 X:78
F7D9  30 01     BMI $F7DC                       A:00 X:78       |       F7D9  30 01     BMI $F7DC                       A:00 X:78
F7DB  60        RTS                             A:00 X:78       |       F7DB  60        RTS                             A:00 X:78
DC4F  C8        INY                             A:00 X:78       |       DC4F  C8        INY                             A:00 X:78
DC50  A9 AA     LDA #$AA                        A:00 X:78       |       DC50  A9 AA     LDA #$AA                        A:00 X:78
DC52  85 78     STA $78 = 00                    A:AA X:78       |       DC52  85 78     STA $78 = 00                    A:AA X:78
DC54  20 DF F7  JSR $F7DF                       A:AA X:78       |       DC54  20 DF F7  JSR $F7DF                       A:AA X:78
F7DF  18        CLC                             A:AA X:78       |       F7DF  18        CLC                             A:AA X:78
F7E0  24 01     BIT $01 = FF                    A:AA X:78       |       F7E0  24 01     BIT $01 = FF                    A:AA X:78
F7E2  A9 55     LDA #$55                        A:AA X:78       |       F7E2  A9 55     LDA #$55                        A:AA X:78
F7E4  60        RTS                             A:55 X:78       |       F7E4  60        RTS                             A:55 X:78
DC57  35 00     AND $00,X @ 78 = AA             A:55 X:78       |       DC57  35 00     AND $00,X @ 78 = AA             A:55 X:78
DC59  20 E5 F7  JSR $F7E5                       A:00 X:78       |       DC59  20 E5 F7  JSR $F7E5                       A:00 X:78
F7E5  D0 07     BNE $F7EE                       A:00 X:78       |       F7E5  D0 07     BNE $F7EE                       A:00 X:78
F7E7  50 05     BVC $F7EE                       A:00 X:78       |       F7E7  50 05     BVC $F7EE                       A:00 X:78
F7E9  B0 03     BCS $F7EE                       A:00 X:78       |       F7E9  B0 03     BCS $F7EE                       A:00 X:78
F7EB  30 01     BMI $F7EE                       A:00 X:78       |       F7EB  30 01     BMI $F7EE                       A:00 X:78
F7ED  60        RTS                             A:00 X:78       |       F7ED  60        RTS                             A:00 X:78
DC5C  C8        INY                             A:00 X:78       |       DC5C  C8        INY                             A:00 X:78
DC5D  A9 EF     LDA #$EF                        A:00 X:78       |       DC5D  A9 EF     LDA #$EF                        A:00 X:78
DC5F  85 78     STA $78 = AA                    A:EF X:78       |       DC5F  85 78     STA $78 = AA                    A:EF X:78
DC61  20 F1 F7  JSR $F7F1                       A:EF X:78       |       DC61  20 F1 F7  JSR $F7F1                       A:EF X:78
F7F1  38        SEC                             A:EF X:78       |       F7F1  38        SEC                             A:EF X:78
F7F2  B8        CLV                             A:EF X:78       |       F7F2  B8        CLV                             A:EF X:78
F7F3  A9 F8     LDA #$F8                        A:EF X:78       |       F7F3  A9 F8     LDA #$F8                        A:EF X:78
F7F5  60        RTS                             A:F8 X:78       |       F7F5  60        RTS                             A:F8 X:78
DC64  35 00     AND $00,X @ 78 = EF             A:F8 X:78       |       DC64  35 00     AND $00,X @ 78 = EF             A:F8 X:78
DC66  20 F6 F7  JSR $F7F6                       A:E8 X:78       |       DC66  20 F6 F7  JSR $F7F6                       A:E8 X:78
F7F6  90 09     BCC $F801                       A:E8 X:78       |       F7F6  90 09     BCC $F801                       A:E8 X:78
F7F8  10 07     BPL $F801                       A:E8 X:78       |       F7F8  10 07     BPL $F801                       A:E8 X:78
F7FA  C9 E8     CMP #$E8                        A:E8 X:78       |       F7FA  C9 E8     CMP #$E8                        A:E8 X:78
F7FC  D0 03     BNE $F801                       A:E8 X:78       |       F7FC  D0 03     BNE $F801                       A:E8 X:78
F7FE  70 01     BVS $F801                       A:E8 X:78       |       F7FE  70 01     BVS $F801                       A:E8 X:78
F800  60        RTS                             A:E8 X:78       |       F800  60        RTS                             A:E8 X:78
DC69  C8        INY                             A:E8 X:78       |       DC69  C8        INY                             A:E8 X:78
DC6A  A9 AA     LDA #$AA                        A:E8 X:78       |       DC6A  A9 AA     LDA #$AA                        A:E8 X:78
DC6C  85 78     STA $78 = EF                    A:AA X:78       |       DC6C  85 78     STA $78 = EF                    A:AA X:78
DC6E  20 04 F8  JSR $F804                       A:AA X:78       |       DC6E  20 04 F8  JSR $F804                       A:AA X:78
F804  18        CLC                             A:AA X:78       |       F804  18        CLC                             A:AA X:78
F805  24 01     BIT $01 = FF                    A:AA X:78       |       F805  24 01     BIT $01 = FF                    A:AA X:78
F807  A9 5F     LDA #$5F                        A:AA X:78       |       F807  A9 5F     LDA #$5F                        A:AA X:78
F809  60        RTS                             A:5F X:78       |       F809  60        RTS                             A:5F X:78
DC71  55 00     EOR $00,X @ 78 = AA             A:5F X:78       |       DC71  55 00     EOR $00,X @ 78 = AA             A:5F X:78
DC73  20 0A F8  JSR $F80A                       A:F5 X:78       |       DC73  20 0A F8  JSR $F80A                       A:F5 X:78
F80A  B0 09     BCS $F815                       A:F5 X:78       |       F80A  B0 09     BCS $F815                       A:F5 X:78
F80C  10 07     BPL $F815                       A:F5 X:78       |       F80C  10 07     BPL $F815                       A:F5 X:78
F80E  C9 F5     CMP #$F5                        A:F5 X:78       |       F80E  C9 F5     CMP #$F5                        A:F5 X:78
F810  D0 03     BNE $F815                       A:F5 X:78       |       F810  D0 03     BNE $F815                       A:F5 X:78
F812  50 01     BVC $F815                       A:F5 X:78       |       F812  50 01     BVC $F815                       A:F5 X:78
F814  60        RTS                             A:F5 X:78       |       F814  60        RTS                             A:F5 X:78
DC76  C8        INY                             A:F5 X:78       |       DC76  C8        INY                             A:F5 X:78
DC77  A9 70     LDA #$70                        A:F5 X:78       |       DC77  A9 70     LDA #$70                        A:F5 X:78
DC79  85 78     STA $78 = AA                    A:70 X:78       |       DC79  85 78     STA $78 = AA                    A:70 X:78
DC7B  20 18 F8  JSR $F818                       A:70 X:78       |       DC7B  20 18 F8  JSR $F818                       A:70 X:78
F818  38        SEC                             A:70 X:78       |       F818  38        SEC                             A:70 X:78
F819  B8        CLV                             A:70 X:78       |       F819  B8        CLV                             A:70 X:78
F81A  A9 70     LDA #$70                        A:70 X:78       |       F81A  A9 70     LDA #$70                        A:70 X:78
F81C  60        RTS                             A:70 X:78       |       F81C  60        RTS                             A:70 X:78
DC7E  55 00     EOR $00,X @ 78 = 70             A:70 X:78       |       DC7E  55 00     EOR $00,X @ 78 = 70             A:70 X:78
DC80  20 1D F8  JSR $F81D                       A:00 X:78       |       DC80  20 1D F8  JSR $F81D                       A:00 X:78
F81D  D0 07     BNE $F826                       A:00 X:78       |       F81D  D0 07     BNE $F826                       A:00 X:78
F81F  70 05     BVS $F826                       A:00 X:78       |       F81F  70 05     BVS $F826                       A:00 X:78
F821  90 03     BCC $F826                       A:00 X:78       |       F821  90 03     BCC $F826                       A:00 X:78
F823  30 01     BMI $F826                       A:00 X:78       |       F823  30 01     BMI $F826                       A:00 X:78
F825  60        RTS                             A:00 X:78       |       F825  60        RTS                             A:00 X:78
DC83  C8        INY                             A:00 X:78       |       DC83  C8        INY                             A:00 X:78
DC84  A9 69     LDA #$69                        A:00 X:78       |       DC84  A9 69     LDA #$69                        A:00 X:78
DC86  85 78     STA $78 = 70                    A:69 X:78       |       DC86  85 78     STA $78 = 70                    A:69 X:78
DC88  20 29 F8  JSR $F829                       A:69 X:78       |       DC88  20 29 F8  JSR $F829                       A:69 X:78
F829  18        CLC                             A:69 X:78       |       F829  18        CLC                             A:69 X:78
F82A  24 01     BIT $01 = FF                    A:69 X:78       |       F82A  24 01     BIT $01 = FF                    A:69 X:78
F82C  A9 00     LDA #$00                        A:69 X:78       |       F82C  A9 00     LDA #$00                        A:69 X:78
F82E  60        RTS                             A:00 X:78       |       F82E  60        RTS                             A:00 X:78
DC8B  75 00     ADC $00,X @ 78 = 69             A:00 X:78       |       DC8B  75 00     ADC $00,X @ 78 = 69             A:00 X:78
DC8D  20 2F F8  JSR $F82F                       A:69 X:78       |       DC8D  20 2F F8  JSR $F82F                       A:69 X:78
F82F  30 09     BMI $F83A                       A:69 X:78       |       F82F  30 09     BMI $F83A                       A:69 X:78
F831  B0 07     BCS $F83A                       A:69 X:78       |       F831  B0 07     BCS $F83A                       A:69 X:78
F833  C9 69     CMP #$69                        A:69 X:78       |       F833  C9 69     CMP #$69                        A:69 X:78
F835  D0 03     BNE $F83A                       A:69 X:78       |       F835  D0 03     BNE $F83A                       A:69 X:78
F837  70 01     BVS $F83A                       A:69 X:78       |       F837  70 01     BVS $F83A                       A:69 X:78
F839  60        RTS                             A:69 X:78       |       F839  60        RTS                             A:69 X:78
DC90  C8        INY                             A:69 X:78       |       DC90  C8        INY                             A:69 X:78
DC91  20 3D F8  JSR $F83D                       A:69 X:78       |       DC91  20 3D F8  JSR $F83D                       A:69 X:78
F83D  38        SEC                             A:69 X:78       |       F83D  38        SEC                             A:69 X:78
F83E  24 01     BIT $01 = FF                    A:69 X:78       |       F83E  24 01     BIT $01 = FF                    A:69 X:78
F840  A9 00     LDA #$00                        A:69 X:78       |       F840  A9 00     LDA #$00                        A:69 X:78
F842  60        RTS                             A:00 X:78       |       F842  60        RTS                             A:00 X:78
DC94  75 00     ADC $00,X @ 78 = 69             A:00 X:78       |       DC94  75 00     ADC $00,X @ 78 = 69             A:00 X:78
DC96  20 43 F8  JSR $F843                       A:6A X:78       |       DC96  20 43 F8  JSR $F843                       A:6A X:78
F843  30 09     BMI $F84E                       A:6A X:78       |       F843  30 09     BMI $F84E                       A:6A X:78
F845  B0 07     BCS $F84E                       A:6A X:78       |       F845  B0 07     BCS $F84E                       A:6A X:78
F847  C9 6A     CMP #$6A                        A:6A X:78       |       F847  C9 6A     CMP #$6A                        A:6A X:78
F849  D0 03     BNE $F84E                       A:6A X:78       |       F849  D0 03     BNE $F84E                       A:6A X:78
F84B  70 01     BVS $F84E                       A:6A X:78       |       F84B  70 01     BVS $F84E                       A:6A X:78
F84D  60        RTS                             A:6A X:78       |       F84D  60        RTS                             A:6A X:78
DC99  C8        INY                             A:6A X:78       |       DC99  C8        INY                             A:6A X:78
DC9A  A9 7F     LDA #$7F                        A:6A X:78       |       DC9A  A9 7F     LDA #$7F                        A:6A X:78
DC9C  85 78     STA $78 = 69                    A:7F X:78       |       DC9C  85 78     STA $78 = 69                    A:7F X:78
DC9E  20 51 F8  JSR $F851                       A:7F X:78       |       DC9E  20 51 F8  JSR $F851                       A:7F X:78
F851  38        SEC                             A:7F X:78       |       F851  38        SEC                             A:7F X:78
F852  B8        CLV                             A:7F X:78       |       F852  B8        CLV                             A:7F X:78
F853  A9 7F     LDA #$7F                        A:7F X:78       |       F853  A9 7F     LDA #$7F                        A:7F X:78
F855  60        RTS                             A:7F X:78       |       F855  60        RTS                             A:7F X:78
DCA1  75 00     ADC $00,X @ 78 = 7F             A:7F X:78       |       DCA1  75 00     ADC $00,X @ 78 = 7F             A:7F X:78
DCA3  20 56 F8  JSR $F856                       A:FF X:78       |       DCA3  20 56 F8  JSR $F856                       A:FF X:78
F856  10 09     BPL $F861                       A:FF X:78       |       F856  10 09     BPL $F861                       A:FF X:78
F858  B0 07     BCS $F861                       A:FF X:78       |       F858  B0 07     BCS $F861                       A:FF X:78
F85A  C9 FF     CMP #$FF                        A:FF X:78       |       F85A  C9 FF     CMP #$FF                        A:FF X:78
F85C  D0 03     BNE $F861                       A:FF X:78       |       F85C  D0 03     BNE $F861                       A:FF X:78
F85E  50 01     BVC $F861                       A:FF X:78       |       F85E  50 01     BVC $F861                       A:FF X:78
F860  60        RTS                             A:FF X:78       |       F860  60        RTS                             A:FF X:78
DCA6  C8        INY                             A:FF X:78       |       DCA6  C8        INY                             A:FF X:78
DCA7  A9 80     LDA #$80                        A:FF X:78       |       DCA7  A9 80     LDA #$80                        A:FF X:78
DCA9  85 78     STA $78 = 7F                    A:80 X:78       |       DCA9  85 78     STA $78 = 7F                    A:80 X:78
DCAB  20 64 F8  JSR $F864                       A:80 X:78       |       DCAB  20 64 F8  JSR $F864                       A:80 X:78
F864  18        CLC                             A:80 X:78       |       F864  18        CLC                             A:80 X:78
F865  24 01     BIT $01 = FF                    A:80 X:78       |       F865  24 01     BIT $01 = FF                    A:80 X:78
F867  A9 7F     LDA #$7F                        A:80 X:78       |       F867  A9 7F     LDA #$7F                        A:80 X:78
F869  60        RTS                             A:7F X:78       |       F869  60        RTS                             A:7F X:78
DCAE  75 00     ADC $00,X @ 78 = 80             A:7F X:78       |       DCAE  75 00     ADC $00,X @ 78 = 80             A:7F X:78
DCB0  20 6A F8  JSR $F86A                       A:FF X:78       |       DCB0  20 6A F8  JSR $F86A                       A:FF X:78
F86A  10 09     BPL $F875                       A:FF X:78       |       F86A  10 09     BPL $F875                       A:FF X:78
F86C  B0 07     BCS $F875                       A:FF X:78       |       F86C  B0 07     BCS $F875                       A:FF X:78
F86E  C9 FF     CMP #$FF                        A:FF X:78       |       F86E  C9 FF     CMP #$FF                        A:FF X:78
F870  D0 03     BNE $F875                       A:FF X:78       |       F870  D0 03     BNE $F875                       A:FF X:78
F872  70 01     BVS $F875                       A:FF X:78       |       F872  70 01     BVS $F875                       A:FF X:78
F874  60        RTS                             A:FF X:78       |       F874  60        RTS                             A:FF X:78
DCB3  C8        INY                             A:FF X:78       |       DCB3  C8        INY                             A:FF X:78
DCB4  20 78 F8  JSR $F878                       A:FF X:78       |       DCB4  20 78 F8  JSR $F878                       A:FF X:78
F878  38        SEC                             A:FF X:78       |       F878  38        SEC                             A:FF X:78
F879  B8        CLV                             A:FF X:78       |       F879  B8        CLV                             A:FF X:78
F87A  A9 7F     LDA #$7F                        A:FF X:78       |       F87A  A9 7F     LDA #$7F                        A:FF X:78
F87C  60        RTS                             A:7F X:78       |       F87C  60        RTS                             A:7F X:78
DCB7  75 00     ADC $00,X @ 78 = 80             A:7F X:78       |       DCB7  75 00     ADC $00,X @ 78 = 80             A:7F X:78
DCB9  20 7D F8  JSR $F87D                       A:00 X:78       |       DCB9  20 7D F8  JSR $F87D                       A:00 X:78
F87D  D0 07     BNE $F886                       A:00 X:78       |       F87D  D0 07     BNE $F886                       A:00 X:78
F87F  30 05     BMI $F886                       A:00 X:78       |       F87F  30 05     BMI $F886                       A:00 X:78
F881  70 03     BVS $F886                       A:00 X:78       |       F881  70 03     BVS $F886                       A:00 X:78
F883  90 01     BCC $F886                       A:00 X:78       |       F883  90 01     BCC $F886                       A:00 X:78
F885  60        RTS                             A:00 X:78       |       F885  60        RTS                             A:00 X:78
DCBC  C8        INY                             A:00 X:78       |       DCBC  C8        INY                             A:00 X:78
DCBD  A9 40     LDA #$40                        A:00 X:78       |       DCBD  A9 40     LDA #$40                        A:00 X:78
DCBF  85 78     STA $78 = 80                    A:40 X:78       |       DCBF  85 78     STA $78 = 80                    A:40 X:78
DCC1  20 89 F8  JSR $F889                       A:40 X:78       |       DCC1  20 89 F8  JSR $F889                       A:40 X:78
F889  24 01     BIT $01 = FF                    A:40 X:78       |       F889  24 01     BIT $01 = FF                    A:40 X:78
F88B  A9 40     LDA #$40                        A:40 X:78       |       F88B  A9 40     LDA #$40                        A:40 X:78
F88D  60        RTS                             A:40 X:78       |       F88D  60        RTS                             A:40 X:78
DCC4  D5 00     CMP $00,X @ 78 = 40             A:40 X:78       |       DCC4  D5 00     CMP $00,X @ 78 = 40             A:40 X:78
DCC6  20 8E F8  JSR $F88E                       A:40 X:78       |       DCC6  20 8E F8  JSR $F88E                       A:40 X:78
F88E  30 07     BMI $F897                       A:40 X:78       |       F88E  30 07     BMI $F897                       A:40 X:78
F890  90 05     BCC $F897                       A:40 X:78       |       F890  90 05     BCC $F897                       A:40 X:78
F892  D0 03     BNE $F897                       A:40 X:78       |       F892  D0 03     BNE $F897                       A:40 X:78
F894  50 01     BVC $F897                       A:40 X:78       |       F894  50 01     BVC $F897                       A:40 X:78
F896  60        RTS                             A:40 X:78       |       F896  60        RTS                             A:40 X:78
DCC9  C8        INY                             A:40 X:78       |       DCC9  C8        INY                             A:40 X:78
DCCA  48        PHA                             A:40 X:78       |       DCCA  48        PHA                             A:40 X:78
DCCB  A9 3F     LDA #$3F                        A:40 X:78       |       DCCB  A9 3F     LDA #$3F                        A:40 X:78
DCCD  85 78     STA $78 = 40                    A:3F X:78       |       DCCD  85 78     STA $78 = 40                    A:3F X:78
DCCF  68        PLA                             A:3F X:78       |       DCCF  68        PLA                             A:3F X:78
DCD0  20 9A F8  JSR $F89A                       A:40 X:78       |       DCD0  20 9A F8  JSR $F89A                       A:40 X:78
F89A  B8        CLV                             A:40 X:78       |       F89A  B8        CLV                             A:40 X:78
F89B  60        RTS                             A:40 X:78       |       F89B  60        RTS                             A:40 X:78
DCD3  D5 00     CMP $00,X @ 78 = 3F             A:40 X:78       |       DCD3  D5 00     CMP $00,X @ 78 = 3F             A:40 X:78
DCD5  20 9C F8  JSR $F89C                       A:40 X:78       |       DCD5  20 9C F8  JSR $F89C                       A:40 X:78
F89C  F0 07     BEQ $F8A5                       A:40 X:78       |       F89C  F0 07     BEQ $F8A5                       A:40 X:78
F89E  30 05     BMI $F8A5                       A:40 X:78       |       F89E  30 05     BMI $F8A5                       A:40 X:78
F8A0  90 03     BCC $F8A5                       A:40 X:78       |       F8A0  90 03     BCC $F8A5                       A:40 X:78
F8A2  70 01     BVS $F8A5                       A:40 X:78       |       F8A2  70 01     BVS $F8A5                       A:40 X:78
F8A4  60        RTS                             A:40 X:78       |       F8A4  60        RTS                             A:40 X:78
DCD8  C8        INY                             A:40 X:78       |       DCD8  C8        INY                             A:40 X:78
DCD9  48        PHA                             A:40 X:78       |       DCD9  48        PHA                             A:40 X:78
DCDA  A9 41     LDA #$41                        A:40 X:78       |       DCDA  A9 41     LDA #$41                        A:40 X:78
DCDC  85 78     STA $78 = 3F                    A:41 X:78       |       DCDC  85 78     STA $78 = 3F                    A:41 X:78
DCDE  68        PLA                             A:41 X:78       |       DCDE  68        PLA                             A:41 X:78
DCDF  D5 00     CMP $00,X @ 78 = 41             A:40 X:78       |       DCDF  D5 00     CMP $00,X @ 78 = 41             A:40 X:78
DCE1  20 A8 F8  JSR $F8A8                       A:40 X:78       |       DCE1  20 A8 F8  JSR $F8A8                       A:40 X:78
F8A8  F0 05     BEQ $F8AF                       A:40 X:78       |       F8A8  F0 05     BEQ $F8AF                       A:40 X:78
F8AA  10 03     BPL $F8AF                       A:40 X:78       |       F8AA  10 03     BPL $F8AF                       A:40 X:78
F8AC  10 01     BPL $F8AF                       A:40 X:78       |       F8AC  10 01     BPL $F8AF                       A:40 X:78
F8AE  60        RTS                             A:40 X:78       |       F8AE  60        RTS                             A:40 X:78
DCE4  C8        INY                             A:40 X:78       |       DCE4  C8        INY                             A:40 X:78
DCE5  48        PHA                             A:40 X:78       |       DCE5  48        PHA                             A:40 X:78
DCE6  A9 00     LDA #$00                        A:40 X:78       |       DCE6  A9 00     LDA #$00                        A:40 X:78
DCE8  85 78     STA $78 = 41                    A:00 X:78       |       DCE8  85 78     STA $78 = 41                    A:00 X:78
DCEA  68        PLA                             A:00 X:78       |       DCEA  68        PLA                             A:00 X:78
DCEB  20 B2 F8  JSR $F8B2                       A:40 X:78       |       DCEB  20 B2 F8  JSR $F8B2                       A:40 X:78
F8B2  A9 80     LDA #$80                        A:40 X:78       |       F8B2  A9 80     LDA #$80                        A:40 X:78
F8B4  60        RTS                             A:80 X:78       |       F8B4  60        RTS                             A:80 X:78
DCEE  D5 00     CMP $00,X @ 78 = 00             A:80 X:78       |       DCEE  D5 00     CMP $00,X @ 78 = 00             A:80 X:78
DCF0  20 B5 F8  JSR $F8B5                       A:80 X:78       |       DCF0  20 B5 F8  JSR $F8B5                       A:80 X:78
F8B5  F0 05     BEQ $F8BC                       A:80 X:78       |       F8B5  F0 05     BEQ $F8BC                       A:80 X:78
F8B7  10 03     BPL $F8BC                       A:80 X:78       |       F8B7  10 03     BPL $F8BC                       A:80 X:78
F8B9  90 01     BCC $F8BC                       A:80 X:78       |       F8B9  90 01     BCC $F8BC                       A:80 X:78
F8BB  60        RTS                             A:80 X:78       |       F8BB  60        RTS                             A:80 X:78
DCF3  C8        INY                             A:80 X:78       |       DCF3  C8        INY                             A:80 X:78
DCF4  48        PHA                             A:80 X:78       |       DCF4  48        PHA                             A:80 X:78
DCF5  A9 80     LDA #$80                        A:80 X:78       |       DCF5  A9 80     LDA #$80                        A:80 X:78
DCF7  85 78     STA $78 = 00                    A:80 X:78       |       DCF7  85 78     STA $78 = 00                    A:80 X:78
DCF9  68        PLA                             A:80 X:78       |       DCF9  68        PLA                             A:80 X:78
DCFA  D5 00     CMP $00,X @ 78 = 80             A:80 X:78       |       DCFA  D5 00     CMP $00,X @ 78 = 80             A:80 X:78
DCFC  20 BF F8  JSR $F8BF                       A:80 X:78       |       DCFC  20 BF F8  JSR $F8BF                       A:80 X:78
F8BF  D0 05     BNE $F8C6                       A:80 X:78       |       F8BF  D0 05     BNE $F8C6                       A:80 X:78
F8C1  30 03     BMI $F8C6                       A:80 X:78       |       F8C1  30 03     BMI $F8C6                       A:80 X:78
F8C3  90 01     BCC $F8C6                       A:80 X:78       |       F8C3  90 01     BCC $F8C6                       A:80 X:78
F8C5  60        RTS                             A:80 X:78       |       F8C5  60        RTS                             A:80 X:78
DCFF  C8        INY                             A:80 X:78       |       DCFF  C8        INY                             A:80 X:78
DD00  48        PHA                             A:80 X:78       |       DD00  48        PHA                             A:80 X:78
DD01  A9 81     LDA #$81                        A:80 X:78       |       DD01  A9 81     LDA #$81                        A:80 X:78
DD03  85 78     STA $78 = 80                    A:81 X:78       |       DD03  85 78     STA $78 = 80                    A:81 X:78
DD05  68        PLA                             A:81 X:78       |       DD05  68        PLA                             A:81 X:78
DD06  D5 00     CMP $00,X @ 78 = 81             A:80 X:78       |       DD06  D5 00     CMP $00,X @ 78 = 81             A:80 X:78
DD08  20 C9 F8  JSR $F8C9                       A:80 X:78       |       DD08  20 C9 F8  JSR $F8C9                       A:80 X:78
F8C9  B0 05     BCS $F8D0                       A:80 X:78       |       F8C9  B0 05     BCS $F8D0                       A:80 X:78
F8CB  F0 03     BEQ $F8D0                       A:80 X:78       |       F8CB  F0 03     BEQ $F8D0                       A:80 X:78
F8CD  10 01     BPL $F8D0                       A:80 X:78       |       F8CD  10 01     BPL $F8D0                       A:80 X:78
F8CF  60        RTS                             A:80 X:78       |       F8CF  60        RTS                             A:80 X:78
DD0B  C8        INY                             A:80 X:78       |       DD0B  C8        INY                             A:80 X:78
DD0C  48        PHA                             A:80 X:78       |       DD0C  48        PHA                             A:80 X:78
DD0D  A9 7F     LDA #$7F                        A:80 X:78       |       DD0D  A9 7F     LDA #$7F                        A:80 X:78
DD0F  85 78     STA $78 = 81                    A:7F X:78       |       DD0F  85 78     STA $78 = 81                    A:7F X:78
DD11  68        PLA                             A:7F X:78       |       DD11  68        PLA                             A:7F X:78
DD12  D5 00     CMP $00,X @ 78 = 7F             A:80 X:78       |       DD12  D5 00     CMP $00,X @ 78 = 7F             A:80 X:78
DD14  20 D3 F8  JSR $F8D3                       A:80 X:78       |       DD14  20 D3 F8  JSR $F8D3                       A:80 X:78
F8D3  90 05     BCC $F8DA                       A:80 X:78       |       F8D3  90 05     BCC $F8DA                       A:80 X:78
F8D5  F0 03     BEQ $F8DA                       A:80 X:78       |       F8D5  F0 03     BEQ $F8DA                       A:80 X:78
F8D7  30 01     BMI $F8DA                       A:80 X:78       |       F8D7  30 01     BMI $F8DA                       A:80 X:78
F8D9  60        RTS                             A:80 X:78       |       F8D9  60        RTS                             A:80 X:78
DD17  C8        INY                             A:80 X:78       |       DD17  C8        INY                             A:80 X:78
DD18  A9 40     LDA #$40                        A:80 X:78       |       DD18  A9 40     LDA #$40                        A:80 X:78
DD1A  85 78     STA $78 = 7F                    A:40 X:78       |       DD1A  85 78     STA $78 = 7F                    A:40 X:78
DD1C  20 31 F9  JSR $F931                       A:40 X:78       |       DD1C  20 31 F9  JSR $F931                       A:40 X:78
F931  24 01     BIT $01 = FF                    A:40 X:78       |       F931  24 01     BIT $01 = FF                    A:40 X:78
F933  A9 40     LDA #$40                        A:40 X:78       |       F933  A9 40     LDA #$40                        A:40 X:78
F935  38        SEC                             A:40 X:78       |       F935  38        SEC                             A:40 X:78
F936  60        RTS                             A:40 X:78       |       F936  60        RTS                             A:40 X:78
DD1F  F5 00     SBC $00,X @ 78 = 40             A:40 X:78       |       DD1F  F5 00     SBC $00,X @ 78 = 40             A:40 X:78
DD21  20 37 F9  JSR $F937                       A:00 X:78       |       DD21  20 37 F9  JSR $F937                       A:00 X:78
F937  30 0B     BMI $F944                       A:00 X:78       |       F937  30 0B     BMI $F944                       A:00 X:78
F939  90 09     BCC $F944                       A:00 X:78       |       F939  90 09     BCC $F944                       A:00 X:78
F93B  D0 07     BNE $F944                       A:00 X:78       |       F93B  D0 07     BNE $F944                       A:00 X:78
F93D  70 05     BVS $F944                       A:00 X:78       |       F93D  70 05     BVS $F944                       A:00 X:78
F93F  C9 00     CMP #$00                        A:00 X:78       |       F93F  C9 00     CMP #$00                        A:00 X:78
F941  D0 01     BNE $F944                       A:00 X:78       |       F941  D0 01     BNE $F944                       A:00 X:78
F943  60        RTS                             A:00 X:78       |       F943  60        RTS                             A:00 X:78
DD24  C8        INY                             A:00 X:78       |       DD24  C8        INY                             A:00 X:78
DD25  A9 3F     LDA #$3F                        A:00 X:78       |       DD25  A9 3F     LDA #$3F                        A:00 X:78
DD27  85 78     STA $78 = 40                    A:3F X:78       |       DD27  85 78     STA $78 = 40                    A:3F X:78
DD29  20 47 F9  JSR $F947                       A:3F X:78       |       DD29  20 47 F9  JSR $F947                       A:3F X:78
F947  B8        CLV                             A:3F X:78       |       F947  B8        CLV                             A:3F X:78
F948  38        SEC                             A:3F X:78       |       F948  38        SEC                             A:3F X:78
F949  A9 40     LDA #$40                        A:3F X:78       |       F949  A9 40     LDA #$40                        A:3F X:78
F94B  60        RTS                             A:40 X:78       |       F94B  60        RTS                             A:40 X:78
DD2C  F5 00     SBC $00,X @ 78 = 3F             A:40 X:78       |       DD2C  F5 00     SBC $00,X @ 78 = 3F             A:40 X:78
DD2E  20 4C F9  JSR $F94C                       A:01 X:78       |       DD2E  20 4C F9  JSR $F94C                       A:01 X:78
F94C  F0 0B     BEQ $F959                       A:01 X:78       |       F94C  F0 0B     BEQ $F959                       A:01 X:78
F94E  30 09     BMI $F959                       A:01 X:78       |       F94E  30 09     BMI $F959                       A:01 X:78
F950  90 07     BCC $F959                       A:01 X:78       |       F950  90 07     BCC $F959                       A:01 X:78
F952  70 05     BVS $F959                       A:01 X:78       |       F952  70 05     BVS $F959                       A:01 X:78
F954  C9 01     CMP #$01                        A:01 X:78       |       F954  C9 01     CMP #$01                        A:01 X:78
F956  D0 01     BNE $F959                       A:01 X:78       |       F956  D0 01     BNE $F959                       A:01 X:78
F958  60        RTS                             A:01 X:78       |       F958  60        RTS                             A:01 X:78
DD31  C8        INY                             A:01 X:78       |       DD31  C8        INY                             A:01 X:78
DD32  A9 41     LDA #$41                        A:01 X:78       |       DD32  A9 41     LDA #$41                        A:01 X:78
DD34  85 78     STA $78 = 3F                    A:41 X:78       |       DD34  85 78     STA $78 = 3F                    A:41 X:78
DD36  20 5C F9  JSR $F95C                       A:41 X:78       |       DD36  20 5C F9  JSR $F95C                       A:41 X:78
F95C  A9 40     LDA #$40                        A:41 X:78       |       F95C  A9 40     LDA #$40                        A:41 X:78
F95E  38        SEC                             A:40 X:78       |       F95E  38        SEC                             A:40 X:78
F95F  24 01     BIT $01 = FF                    A:40 X:78       |       F95F  24 01     BIT $01 = FF                    A:40 X:78
F961  60        RTS                             A:40 X:78       |       F961  60        RTS                             A:40 X:78
DD39  F5 00     SBC $00,X @ 78 = 41             A:40 X:78       |       DD39  F5 00     SBC $00,X @ 78 = 41             A:40 X:78
DD3B  20 62 F9  JSR $F962                       A:FF X:78       |       DD3B  20 62 F9  JSR $F962                       A:FF X:78
F962  B0 0B     BCS $F96F                       A:FF X:78       |       F962  B0 0B     BCS $F96F                       A:FF X:78
F964  F0 09     BEQ $F96F                       A:FF X:78       |       F964  F0 09     BEQ $F96F                       A:FF X:78
F966  10 07     BPL $F96F                       A:FF X:78       |       F966  10 07     BPL $F96F                       A:FF X:78
F968  70 05     BVS $F96F                       A:FF X:78       |       F968  70 05     BVS $F96F                       A:FF X:78
F96A  C9 FF     CMP #$FF                        A:FF X:78       |       F96A  C9 FF     CMP #$FF                        A:FF X:78
F96C  D0 01     BNE $F96F                       A:FF X:78       |       F96C  D0 01     BNE $F96F                       A:FF X:78
F96E  60        RTS                             A:FF X:78       |       F96E  60        RTS                             A:FF X:78
DD3E  C8        INY                             A:FF X:78       |       DD3E  C8        INY                             A:FF X:78
DD3F  A9 00     LDA #$00                        A:FF X:78       |       DD3F  A9 00     LDA #$00                        A:FF X:78
DD41  85 78     STA $78 = 41                    A:00 X:78       |       DD41  85 78     STA $78 = 41                    A:00 X:78
DD43  20 72 F9  JSR $F972                       A:00 X:78       |       DD43  20 72 F9  JSR $F972                       A:00 X:78
F972  18        CLC                             A:00 X:78       |       F972  18        CLC                             A:00 X:78
F973  A9 80     LDA #$80                        A:00 X:78       |       F973  A9 80     LDA #$80                        A:00 X:78
F975  60        RTS                             A:80 X:78       |       F975  60        RTS                             A:80 X:78
DD46  F5 00     SBC $00,X @ 78 = 00             A:80 X:78       |       DD46  F5 00     SBC $00,X @ 78 = 00             A:80 X:78
DD48  20 76 F9  JSR $F976                       A:7F X:78       |       DD48  20 76 F9  JSR $F976                       A:7F X:78
F976  90 05     BCC $F97D                       A:7F X:78       |       F976  90 05     BCC $F97D                       A:7F X:78
F978  C9 7F     CMP #$7F                        A:7F X:78       |       F978  C9 7F     CMP #$7F                        A:7F X:78
F97A  D0 01     BNE $F97D                       A:7F X:78       |       F97A  D0 01     BNE $F97D                       A:7F X:78
F97C  60        RTS                             A:7F X:78       |       F97C  60        RTS                             A:7F X:78
DD4B  C8        INY                             A:7F X:78       |       DD4B  C8        INY                             A:7F X:78
DD4C  A9 7F     LDA #$7F                        A:7F X:78       |       DD4C  A9 7F     LDA #$7F                        A:7F X:78
DD4E  85 78     STA $78 = 00                    A:7F X:78       |       DD4E  85 78     STA $78 = 00                    A:7F X:78
DD50  20 80 F9  JSR $F980                       A:7F X:78       |       DD50  20 80 F9  JSR $F980                       A:7F X:78
F980  38        SEC                             A:7F X:78       |       F980  38        SEC                             A:7F X:78
F981  A9 81     LDA #$81                        A:7F X:78       |       F981  A9 81     LDA #$81                        A:7F X:78
F983  60        RTS                             A:81 X:78       |       F983  60        RTS                             A:81 X:78
DD53  F5 00     SBC $00,X @ 78 = 7F             A:81 X:78       |       DD53  F5 00     SBC $00,X @ 78 = 7F             A:81 X:78
DD55  20 84 F9  JSR $F984                       A:02 X:78       |       DD55  20 84 F9  JSR $F984                       A:02 X:78
F984  50 07     BVC $F98D                       A:02 X:78       |       F984  50 07     BVC $F98D                       A:02 X:78
F986  90 05     BCC $F98D                       A:02 X:78       |       F986  90 05     BCC $F98D                       A:02 X:78
F988  C9 02     CMP #$02                        A:02 X:78       |       F988  C9 02     CMP #$02                        A:02 X:78
F98A  D0 01     BNE $F98D                       A:02 X:78       |       F98A  D0 01     BNE $F98D                       A:02 X:78
F98C  60        RTS                             A:02 X:78       |       F98C  60        RTS                             A:02 X:78
DD58  A9 AA     LDA #$AA                        A:02 X:78       |       DD58  A9 AA     LDA #$AA                        A:02 X:78
DD5A  85 33     STA $33 = 44                    A:AA X:78       |       DD5A  85 33     STA $33 = 44                    A:AA X:78
DD5C  A9 BB     LDA #$BB                        A:AA X:78       |       DD5C  A9 BB     LDA #$BB                        A:AA X:78
DD5E  85 89     STA $89 = BB                    A:BB X:78       |       DD5E  85 89     STA $89 = BB                    A:BB X:78
DD60  A2 00     LDX #$00                        A:BB X:78       |       DD60  A2 00     LDX #$00                        A:BB X:78
DD62  A0 66     LDY #$66                        A:BB X:00       |       DD62  A0 66     LDY #$66                        A:BB X:00
DD64  24 01     BIT $01 = FF                    A:BB X:00       |       DD64  24 01     BIT $01 = FF                    A:BB X:00
DD66  38        SEC                             A:BB X:00       |       DD66  38        SEC                             A:BB X:00
DD67  A9 00     LDA #$00                        A:BB X:00       |       DD67  A9 00     LDA #$00                        A:BB X:00
DD69  B5 33     LDA $33,X @ 33 = AA             A:00 X:00       |       DD69  B5 33     LDA $33,X @ 33 = AA             A:00 X:00
DD6B  10 12     BPL $DD7F                       A:AA X:00       |       DD6B  10 12     BPL $DD7F                       A:AA X:00
DD6D  F0 10     BEQ $DD7F                       A:AA X:00       |       DD6D  F0 10     BEQ $DD7F                       A:AA X:00
DD6F  50 0E     BVC $DD7F                       A:AA X:00       |       DD6F  50 0E     BVC $DD7F                       A:AA X:00
DD71  90 0C     BCC $DD7F                       A:AA X:00       |       DD71  90 0C     BCC $DD7F                       A:AA X:00
DD73  C0 66     CPY #$66                        A:AA X:00       |       DD73  C0 66     CPY #$66                        A:AA X:00
DD75  D0 08     BNE $DD7F                       A:AA X:00       |       DD75  D0 08     BNE $DD7F                       A:AA X:00
DD77  E0 00     CPX #$00                        A:AA X:00       |       DD77  E0 00     CPX #$00                        A:AA X:00
DD79  D0 04     BNE $DD7F                       A:AA X:00       |       DD79  D0 04     BNE $DD7F                       A:AA X:00
DD7B  C9 AA     CMP #$AA                        A:AA X:00       |       DD7B  C9 AA     CMP #$AA                        A:AA X:00
DD7D  F0 04     BEQ $DD83                       A:AA X:00       |       DD7D  F0 04     BEQ $DD83                       A:AA X:00
DD83  A2 8A     LDX #$8A                        A:AA X:00       |       DD83  A2 8A     LDX #$8A                        A:AA X:00
DD85  A0 66     LDY #$66                        A:AA X:8A       |       DD85  A0 66     LDY #$66                        A:AA X:8A
DD87  B8        CLV                             A:AA X:8A       |       DD87  B8        CLV                             A:AA X:8A
DD88  18        CLC                             A:AA X:8A       |       DD88  18        CLC                             A:AA X:8A
DD89  A9 00     LDA #$00                        A:AA X:8A       |       DD89  A9 00     LDA #$00                        A:AA X:8A
DD8B  B5 FF     LDA $FF,X @ 89 = BB             A:00 X:8A       |       DD8B  B5 FF     LDA $FF,X @ 89 = BB             A:00 X:8A
DD8D  10 12     BPL $DDA1                       A:BB X:8A       |       DD8D  10 12     BPL $DDA1                       A:BB X:8A
DD8F  F0 10     BEQ $DDA1                       A:BB X:8A       |       DD8F  F0 10     BEQ $DDA1                       A:BB X:8A
DD91  70 0E     BVS $DDA1                       A:BB X:8A       |       DD91  70 0E     BVS $DDA1                       A:BB X:8A
DD93  B0 0C     BCS $DDA1                       A:BB X:8A       |       DD93  B0 0C     BCS $DDA1                       A:BB X:8A
DD95  C9 BB     CMP #$BB                        A:BB X:8A       |       DD95  C9 BB     CMP #$BB                        A:BB X:8A
DD97  D0 08     BNE $DDA1                       A:BB X:8A       |       DD97  D0 08     BNE $DDA1                       A:BB X:8A
DD99  C0 66     CPY #$66                        A:BB X:8A       |       DD99  C0 66     CPY #$66                        A:BB X:8A
DD9B  D0 04     BNE $DDA1                       A:BB X:8A       |       DD9B  D0 04     BNE $DDA1                       A:BB X:8A
DD9D  E0 8A     CPX #$8A                        A:BB X:8A       |       DD9D  E0 8A     CPX #$8A                        A:BB X:8A
DD9F  F0 04     BEQ $DDA5                       A:BB X:8A       |       DD9F  F0 04     BEQ $DDA5                       A:BB X:8A
DDA5  24 01     BIT $01 = FF                    A:BB X:8A       |       DDA5  24 01     BIT $01 = FF                    A:BB X:8A
DDA7  38        SEC                             A:BB X:8A       |       DDA7  38        SEC                             A:BB X:8A
DDA8  A9 44     LDA #$44                        A:BB X:8A       |       DDA8  A9 44     LDA #$44                        A:BB X:8A
DDAA  A2 00     LDX #$00                        A:44 X:8A       |       DDAA  A2 00     LDX #$00                        A:44 X:8A
DDAC  95 33     STA $33,X @ 33 = AA             A:44 X:00       |       DDAC  95 33     STA $33,X @ 33 = AA             A:44 X:00
DDAE  A5 33     LDA $33 = 44                    A:44 X:00       |       DDAE  A5 33     LDA $33 = 44                    A:44 X:00
DDB0  90 18     BCC $DDCA                       A:44 X:00       |       DDB0  90 18     BCC $DDCA                       A:44 X:00
DDB2  C9 44     CMP #$44                        A:44 X:00       |       DDB2  C9 44     CMP #$44                        A:44 X:00
DDB4  D0 14     BNE $DDCA                       A:44 X:00       |       DDB4  D0 14     BNE $DDCA                       A:44 X:00
DDB6  50 12     BVC $DDCA                       A:44 X:00       |       DDB6  50 12     BVC $DDCA                       A:44 X:00
DDB8  18        CLC                             A:44 X:00       |       DDB8  18        CLC                             A:44 X:00
DDB9  B8        CLV                             A:44 X:00       |       DDB9  B8        CLV                             A:44 X:00
DDBA  A9 99     LDA #$99                        A:44 X:00       |       DDBA  A9 99     LDA #$99                        A:44 X:00
DDBC  A2 80     LDX #$80                        A:99 X:00       |       DDBC  A2 80     LDX #$80                        A:99 X:00
DDBE  95 85     STA $85,X @ 05 = 99             A:99 X:80       |       DDBE  95 85     STA $85,X @ 05 = 99             A:99 X:80
DDC0  A5 05     LDA $05 = 99                    A:99 X:80       |       DDC0  A5 05     LDA $05 = 99                    A:99 X:80
DDC2  B0 06     BCS $DDCA                       A:99 X:80       |       DDC2  B0 06     BCS $DDCA                       A:99 X:80
DDC4  C9 99     CMP #$99                        A:99 X:80       |       DDC4  C9 99     CMP #$99                        A:99 X:80
DDC6  D0 02     BNE $DDCA                       A:99 X:80       |       DDC6  D0 02     BNE $DDCA                       A:99 X:80
DDC8  50 04     BVC $DDCE                       A:99 X:80       |       DDC8  50 04     BVC $DDCE                       A:99 X:80
DDCE  A0 25     LDY #$25                        A:99 X:80       |       DDCE  A0 25     LDY #$25                        A:99 X:80
DDD0  A2 78     LDX #$78                        A:99 X:80       |       DDD0  A2 78     LDX #$78                        A:99 X:80
DDD2  20 90 F9  JSR $F990                       A:99 X:78       |       DDD2  20 90 F9  JSR $F990                       A:99 X:78
F990  A2 55     LDX #$55                        A:99 X:78       |       F990  A2 55     LDX #$55                        A:99 X:78
F992  A9 FF     LDA #$FF                        A:99 X:55       |       F992  A9 FF     LDA #$FF                        A:99 X:55
F994  85 01     STA $01 = FF                    A:FF X:55       |       F994  85 01     STA $01 = FF                    A:FF X:55
F996  EA        NOP                             A:FF X:55       |       F996  EA        NOP                             A:FF X:55
F997  24 01     BIT $01 = FF                    A:FF X:55       |       F997  24 01     BIT $01 = FF                    A:FF X:55
F999  38        SEC                             A:FF X:55       |       F999  38        SEC                             A:FF X:55
F99A  A9 01     LDA #$01                        A:FF X:55       |       F99A  A9 01     LDA #$01                        A:FF X:55
F99C  60        RTS                             A:01 X:55       |       F99C  60        RTS                             A:01 X:55
DDD5  95 00     STA $00,X @ 55 = 00             A:01 X:55       |       DDD5  95 00     STA $00,X @ 55 = 00             A:01 X:55
DDD7  56 00     LSR $00,X @ 55 = 01             A:01 X:55       |       DDD7  56 00     LSR $00,X @ 55 = 01             A:01 X:55
DDD9  B5 00     LDA $00,X @ 55 = 00             A:01 X:55       |       DDD9  B5 00     LDA $00,X @ 55 = 00             A:01 X:55
DDDB  20 9D F9  JSR $F99D                       A:00 X:55       |       DDDB  20 9D F9  JSR $F99D                       A:00 X:55
F99D  90 1B     BCC $F9BA                       A:00 X:55       |       F99D  90 1B     BCC $F9BA                       A:00 X:55
F99F  D0 19     BNE $F9BA                       A:00 X:55       |       F99F  D0 19     BNE $F9BA                       A:00 X:55
F9A1  30 17     BMI $F9BA                       A:00 X:55       |       F9A1  30 17     BMI $F9BA                       A:00 X:55
F9A3  50 15     BVC $F9BA                       A:00 X:55       |       F9A3  50 15     BVC $F9BA                       A:00 X:55
F9A5  C9 00     CMP #$00                        A:00 X:55       |       F9A5  C9 00     CMP #$00                        A:00 X:55
F9A7  D0 11     BNE $F9BA                       A:00 X:55       |       F9A7  D0 11     BNE $F9BA                       A:00 X:55
F9A9  B8        CLV                             A:00 X:55       |       F9A9  B8        CLV                             A:00 X:55
F9AA  A9 AA     LDA #$AA                        A:00 X:55       |       F9AA  A9 AA     LDA #$AA                        A:00 X:55
F9AC  60        RTS                             A:AA X:55       |       F9AC  60        RTS                             A:AA X:55
DDDE  C8        INY                             A:AA X:55       |       DDDE  C8        INY                             A:AA X:55
DDDF  95 00     STA $00,X @ 55 = 00             A:AA X:55       |       DDDF  95 00     STA $00,X @ 55 = 00             A:AA X:55
DDE1  56 00     LSR $00,X @ 55 = AA             A:AA X:55       |       DDE1  56 00     LSR $00,X @ 55 = AA             A:AA X:55
DDE3  B5 00     LDA $00,X @ 55 = 55             A:AA X:55       |       DDE3  B5 00     LDA $00,X @ 55 = 55             A:AA X:55
DDE5  20 AD F9  JSR $F9AD                       A:55 X:55       |       DDE5  20 AD F9  JSR $F9AD                       A:55 X:55
F9AD  B0 0B     BCS $F9BA                       A:55 X:55       |       F9AD  B0 0B     BCS $F9BA                       A:55 X:55
F9AF  F0 09     BEQ $F9BA                       A:55 X:55       |       F9AF  F0 09     BEQ $F9BA                       A:55 X:55
F9B1  30 07     BMI $F9BA                       A:55 X:55       |       F9B1  30 07     BMI $F9BA                       A:55 X:55
F9B3  70 05     BVS $F9BA                       A:55 X:55       |       F9B3  70 05     BVS $F9BA                       A:55 X:55
F9B5  C9 55     CMP #$55                        A:55 X:55       |       F9B5  C9 55     CMP #$55                        A:55 X:55
F9B7  D0 01     BNE $F9BA                       A:55 X:55       |       F9B7  D0 01     BNE $F9BA                       A:55 X:55
F9B9  60        RTS                             A:55 X:55       |       F9B9  60        RTS                             A:55 X:55
DDE8  C8        INY                             A:55 X:55       |       DDE8  C8        INY                             A:55 X:55
DDE9  20 BD F9  JSR $F9BD                       A:55 X:55       |       DDE9  20 BD F9  JSR $F9BD                       A:55 X:55
F9BD  24 01     BIT $01 = FF                    A:55 X:55       |       F9BD  24 01     BIT $01 = FF                    A:55 X:55
F9BF  38        SEC                             A:55 X:55       |       F9BF  38        SEC                             A:55 X:55
F9C0  A9 80     LDA #$80                        A:55 X:55       |       F9C0  A9 80     LDA #$80                        A:55 X:55
F9C2  60        RTS                             A:80 X:55       |       F9C2  60        RTS                             A:80 X:55
DDEC  95 00     STA $00,X @ 55 = 55             A:80 X:55       |       DDEC  95 00     STA $00,X @ 55 = 55             A:80 X:55
DDEE  16 00     ASL $00,X @ 55 = 80             A:80 X:55       |       DDEE  16 00     ASL $00,X @ 55 = 80             A:80 X:55
DDF0  B5 00     LDA $00,X @ 55 = 00             A:80 X:55       |       DDF0  B5 00     LDA $00,X @ 55 = 00             A:80 X:55
DDF2  20 C3 F9  JSR $F9C3                       A:00 X:55       |       DDF2  20 C3 F9  JSR $F9C3                       A:00 X:55
F9C3  90 1C     BCC $F9E1                       A:00 X:55       |       F9C3  90 1C     BCC $F9E1                       A:00 X:55
F9C5  D0 1A     BNE $F9E1                       A:00 X:55       |       F9C5  D0 1A     BNE $F9E1                       A:00 X:55
F9C7  30 18     BMI $F9E1                       A:00 X:55       |       F9C7  30 18     BMI $F9E1                       A:00 X:55
F9C9  50 16     BVC $F9E1                       A:00 X:55       |       F9C9  50 16     BVC $F9E1                       A:00 X:55
F9CB  C9 00     CMP #$00                        A:00 X:55       |       F9CB  C9 00     CMP #$00                        A:00 X:55
F9CD  D0 12     BNE $F9E1                       A:00 X:55       |       F9CD  D0 12     BNE $F9E1                       A:00 X:55
F9CF  B8        CLV                             A:00 X:55       |       F9CF  B8        CLV                             A:00 X:55
F9D0  A9 55     LDA #$55                        A:00 X:55       |       F9D0  A9 55     LDA #$55                        A:00 X:55
F9D2  38        SEC                             A:55 X:55       |       F9D2  38        SEC                             A:55 X:55
F9D3  60        RTS                             A:55 X:55       |       F9D3  60        RTS                             A:55 X:55
DDF5  C8        INY                             A:55 X:55       |       DDF5  C8        INY                             A:55 X:55
DDF6  95 00     STA $00,X @ 55 = 00             A:55 X:55       |       DDF6  95 00     STA $00,X @ 55 = 00             A:55 X:55
DDF8  16 00     ASL $00,X @ 55 = 55             A:55 X:55       |       DDF8  16 00     ASL $00,X @ 55 = 55             A:55 X:55
DDFA  B5 00     LDA $00,X @ 55 = AA             A:55 X:55       |       DDFA  B5 00     LDA $00,X @ 55 = AA             A:55 X:55
DDFC  20 D4 F9  JSR $F9D4                       A:AA X:55       |       DDFC  20 D4 F9  JSR $F9D4                       A:AA X:55
F9D4  B0 0B     BCS $F9E1                       A:AA X:55       |       F9D4  B0 0B     BCS $F9E1                       A:AA X:55
F9D6  F0 09     BEQ $F9E1                       A:AA X:55       |       F9D6  F0 09     BEQ $F9E1                       A:AA X:55
F9D8  10 07     BPL $F9E1                       A:AA X:55       |       F9D8  10 07     BPL $F9E1                       A:AA X:55
F9DA  70 05     BVS $F9E1                       A:AA X:55       |       F9DA  70 05     BVS $F9E1                       A:AA X:55
F9DC  C9 AA     CMP #$AA                        A:AA X:55       |       F9DC  C9 AA     CMP #$AA                        A:AA X:55
F9DE  D0 01     BNE $F9E1                       A:AA X:55       |       F9DE  D0 01     BNE $F9E1                       A:AA X:55
F9E0  60        RTS                             A:AA X:55       |       F9E0  60        RTS                             A:AA X:55
DDFF  C8        INY                             A:AA X:55       |       DDFF  C8        INY                             A:AA X:55
DE00  20 E4 F9  JSR $F9E4                       A:AA X:55       |       DE00  20 E4 F9  JSR $F9E4                       A:AA X:55
F9E4  24 01     BIT $01 = FF                    A:AA X:55       |       F9E4  24 01     BIT $01 = FF                    A:AA X:55
F9E6  38        SEC                             A:AA X:55       |       F9E6  38        SEC                             A:AA X:55
F9E7  A9 01     LDA #$01                        A:AA X:55       |       F9E7  A9 01     LDA #$01                        A:AA X:55
F9E9  60        RTS                             A:01 X:55       |       F9E9  60        RTS                             A:01 X:55
DE03  95 00     STA $00,X @ 55 = AA             A:01 X:55       |       DE03  95 00     STA $00,X @ 55 = AA             A:01 X:55
DE05  76 00     ROR $00,X @ 55 = 01             A:01 X:55       |       DE05  76 00     ROR $00,X @ 55 = 01             A:01 X:55
DE07  B5 00     LDA $00,X @ 55 = 80             A:01 X:55       |       DE07  B5 00     LDA $00,X @ 55 = 80             A:01 X:55
DE09  20 EA F9  JSR $F9EA                       A:80 X:55       |       DE09  20 EA F9  JSR $F9EA                       A:80 X:55
F9EA  90 1C     BCC $FA08                       A:80 X:55       |       F9EA  90 1C     BCC $FA08                       A:80 X:55
F9EC  F0 1A     BEQ $FA08                       A:80 X:55       |       F9EC  F0 1A     BEQ $FA08                       A:80 X:55
F9EE  10 18     BPL $FA08                       A:80 X:55       |       F9EE  10 18     BPL $FA08                       A:80 X:55
F9F0  50 16     BVC $FA08                       A:80 X:55       |       F9F0  50 16     BVC $FA08                       A:80 X:55
F9F2  C9 80     CMP #$80                        A:80 X:55       |       F9F2  C9 80     CMP #$80                        A:80 X:55
F9F4  D0 12     BNE $FA08                       A:80 X:55       |       F9F4  D0 12     BNE $FA08                       A:80 X:55
F9F6  B8        CLV                             A:80 X:55       |       F9F6  B8        CLV                             A:80 X:55
F9F7  18        CLC                             A:80 X:55       |       F9F7  18        CLC                             A:80 X:55
F9F8  A9 55     LDA #$55                        A:80 X:55       |       F9F8  A9 55     LDA #$55                        A:80 X:55
F9FA  60        RTS                             A:55 X:55       |       F9FA  60        RTS                             A:55 X:55
DE0C  C8        INY                             A:55 X:55       |       DE0C  C8        INY                             A:55 X:55
DE0D  95 00     STA $00,X @ 55 = 80             A:55 X:55       |       DE0D  95 00     STA $00,X @ 55 = 80             A:55 X:55
DE0F  76 00     ROR $00,X @ 55 = 55             A:55 X:55       |       DE0F  76 00     ROR $00,X @ 55 = 55             A:55 X:55
DE11  B5 00     LDA $00,X @ 55 = 2A             A:55 X:55       |       DE11  B5 00     LDA $00,X @ 55 = 2A             A:55 X:55
DE13  20 FB F9  JSR $F9FB                       A:2A X:55       |       DE13  20 FB F9  JSR $F9FB                       A:2A X:55
F9FB  90 0B     BCC $FA08                       A:2A X:55       |       F9FB  90 0B     BCC $FA08                       A:2A X:55
F9FD  F0 09     BEQ $FA08                       A:2A X:55       |       F9FD  F0 09     BEQ $FA08                       A:2A X:55
F9FF  30 07     BMI $FA08                       A:2A X:55       |       F9FF  30 07     BMI $FA08                       A:2A X:55
FA01  70 05     BVS $FA08                       A:2A X:55       |       FA01  70 05     BVS $FA08                       A:2A X:55
FA03  C9 2A     CMP #$2A                        A:2A X:55       |       FA03  C9 2A     CMP #$2A                        A:2A X:55
FA05  D0 01     BNE $FA08                       A:2A X:55       |       FA05  D0 01     BNE $FA08                       A:2A X:55
FA07  60        RTS                             A:2A X:55       |       FA07  60        RTS                             A:2A X:55
DE16  C8        INY                             A:2A X:55       |       DE16  C8        INY                             A:2A X:55
DE17  20 0A FA  JSR $FA0A                       A:2A X:55       |       DE17  20 0A FA  JSR $FA0A                       A:2A X:55
FA0A  24 01     BIT $01 = FF                    A:2A X:55       |       FA0A  24 01     BIT $01 = FF                    A:2A X:55
FA0C  38        SEC                             A:2A X:55       |       FA0C  38        SEC                             A:2A X:55
FA0D  A9 80     LDA #$80                        A:2A X:55       |       FA0D  A9 80     LDA #$80                        A:2A X:55
FA0F  60        RTS                             A:80 X:55       |       FA0F  60        RTS                             A:80 X:55
DE1A  95 00     STA $00,X @ 55 = 2A             A:80 X:55       |       DE1A  95 00     STA $00,X @ 55 = 2A             A:80 X:55
DE1C  36 00     ROL $00,X @ 55 = 80             A:80 X:55       |       DE1C  36 00     ROL $00,X @ 55 = 80             A:80 X:55
DE1E  B5 00     LDA $00,X @ 55 = 01             A:80 X:55       |       DE1E  B5 00     LDA $00,X @ 55 = 01             A:80 X:55
DE20  20 10 FA  JSR $FA10                       A:01 X:55       |       DE20  20 10 FA  JSR $FA10                       A:01 X:55
FA10  90 1C     BCC $FA2E                       A:01 X:55       |       FA10  90 1C     BCC $FA2E                       A:01 X:55
FA12  F0 1A     BEQ $FA2E                       A:01 X:55       |       FA12  F0 1A     BEQ $FA2E                       A:01 X:55
FA14  30 18     BMI $FA2E                       A:01 X:55       |       FA14  30 18     BMI $FA2E                       A:01 X:55
FA16  50 16     BVC $FA2E                       A:01 X:55       |       FA16  50 16     BVC $FA2E                       A:01 X:55
FA18  C9 01     CMP #$01                        A:01 X:55       |       FA18  C9 01     CMP #$01                        A:01 X:55
FA1A  D0 12     BNE $FA2E                       A:01 X:55       |       FA1A  D0 12     BNE $FA2E                       A:01 X:55
FA1C  B8        CLV                             A:01 X:55       |       FA1C  B8        CLV                             A:01 X:55
FA1D  18        CLC                             A:01 X:55       |       FA1D  18        CLC                             A:01 X:55
FA1E  A9 55     LDA #$55                        A:01 X:55       |       FA1E  A9 55     LDA #$55                        A:01 X:55
FA20  60        RTS                             A:55 X:55       |       FA20  60        RTS                             A:55 X:55
DE23  C8        INY                             A:55 X:55       |       DE23  C8        INY                             A:55 X:55
DE24  95 00     STA $00,X @ 55 = 01             A:55 X:55       |       DE24  95 00     STA $00,X @ 55 = 01             A:55 X:55
DE26  36 00     ROL $00,X @ 55 = 55             A:55 X:55       |       DE26  36 00     ROL $00,X @ 55 = 55             A:55 X:55
DE28  B5 00     LDA $00,X @ 55 = AA             A:55 X:55       |       DE28  B5 00     LDA $00,X @ 55 = AA             A:55 X:55
DE2A  20 21 FA  JSR $FA21                       A:AA X:55       |       DE2A  20 21 FA  JSR $FA21                       A:AA X:55
FA21  B0 0B     BCS $FA2E                       A:AA X:55       |       FA21  B0 0B     BCS $FA2E                       A:AA X:55
FA23  F0 09     BEQ $FA2E                       A:AA X:55       |       FA23  F0 09     BEQ $FA2E                       A:AA X:55
FA25  10 07     BPL $FA2E                       A:AA X:55       |       FA25  10 07     BPL $FA2E                       A:AA X:55
FA27  70 05     BVS $FA2E                       A:AA X:55       |       FA27  70 05     BVS $FA2E                       A:AA X:55
FA29  C9 AA     CMP #$AA                        A:AA X:55       |       FA29  C9 AA     CMP #$AA                        A:AA X:55
FA2B  D0 01     BNE $FA2E                       A:AA X:55       |       FA2B  D0 01     BNE $FA2E                       A:AA X:55
FA2D  60        RTS                             A:AA X:55       |       FA2D  60        RTS                             A:AA X:55
DE2D  A9 FF     LDA #$FF                        A:AA X:55       |       DE2D  A9 FF     LDA #$FF                        A:AA X:55
DE2F  95 00     STA $00,X @ 55 = AA             A:FF X:55       |       DE2F  95 00     STA $00,X @ 55 = AA             A:FF X:55
DE31  85 01     STA $01 = FF                    A:FF X:55       |       DE31  85 01     STA $01 = FF                    A:FF X:55
DE33  24 01     BIT $01 = FF                    A:FF X:55       |       DE33  24 01     BIT $01 = FF                    A:FF X:55
DE35  38        SEC                             A:FF X:55       |       DE35  38        SEC                             A:FF X:55
DE36  F6 00     INC $00,X @ 55 = FF             A:FF X:55       |       DE36  F6 00     INC $00,X @ 55 = FF             A:FF X:55
DE38  D0 0C     BNE $DE46                       A:FF X:55       |       DE38  D0 0C     BNE $DE46                       A:FF X:55
DE3A  30 0A     BMI $DE46                       A:FF X:55       |       DE3A  30 0A     BMI $DE46                       A:FF X:55
DE3C  50 08     BVC $DE46                       A:FF X:55       |       DE3C  50 08     BVC $DE46                       A:FF X:55
DE3E  90 06     BCC $DE46                       A:FF X:55       |       DE3E  90 06     BCC $DE46                       A:FF X:55
DE40  B5 00     LDA $00,X @ 55 = 00             A:FF X:55       |       DE40  B5 00     LDA $00,X @ 55 = 00             A:FF X:55
DE42  C9 00     CMP #$00                        A:00 X:55       |       DE42  C9 00     CMP #$00                        A:00 X:55
DE44  F0 04     BEQ $DE4A                       A:00 X:55       |       DE44  F0 04     BEQ $DE4A                       A:00 X:55
DE4A  A9 7F     LDA #$7F                        A:00 X:55       |       DE4A  A9 7F     LDA #$7F                        A:00 X:55
DE4C  95 00     STA $00,X @ 55 = 00             A:7F X:55       |       DE4C  95 00     STA $00,X @ 55 = 00             A:7F X:55
DE4E  B8        CLV                             A:7F X:55       |       DE4E  B8        CLV                             A:7F X:55
DE4F  18        CLC                             A:7F X:55       |       DE4F  18        CLC                             A:7F X:55
DE50  F6 00     INC $00,X @ 55 = 7F             A:7F X:55       |       DE50  F6 00     INC $00,X @ 55 = 7F             A:7F X:55
DE52  F0 0C     BEQ $DE60                       A:7F X:55       |       DE52  F0 0C     BEQ $DE60                       A:7F X:55
DE54  10 0A     BPL $DE60                       A:7F X:55       |       DE54  10 0A     BPL $DE60                       A:7F X:55
DE56  70 08     BVS $DE60                       A:7F X:55       |       DE56  70 08     BVS $DE60                       A:7F X:55
DE58  B0 06     BCS $DE60                       A:7F X:55       |       DE58  B0 06     BCS $DE60                       A:7F X:55
DE5A  B5 00     LDA $00,X @ 55 = 80             A:7F X:55       |       DE5A  B5 00     LDA $00,X @ 55 = 80             A:7F X:55
DE5C  C9 80     CMP #$80                        A:80 X:55       |       DE5C  C9 80     CMP #$80                        A:80 X:55
DE5E  F0 04     BEQ $DE64                       A:80 X:55       |       DE5E  F0 04     BEQ $DE64                       A:80 X:55
DE64  A9 00     LDA #$00                        A:80 X:55       |       DE64  A9 00     LDA #$00                        A:80 X:55
DE66  95 00     STA $00,X @ 55 = 80             A:00 X:55       |       DE66  95 00     STA $00,X @ 55 = 80             A:00 X:55
DE68  24 01     BIT $01 = FF                    A:00 X:55       |       DE68  24 01     BIT $01 = FF                    A:00 X:55
DE6A  38        SEC                             A:00 X:55       |       DE6A  38        SEC                             A:00 X:55
DE6B  D6 00     DEC $00,X @ 55 = 00             A:00 X:55       |       DE6B  D6 00     DEC $00,X @ 55 = 00             A:00 X:55
DE6D  F0 0C     BEQ $DE7B                       A:00 X:55       |       DE6D  F0 0C     BEQ $DE7B                       A:00 X:55
DE6F  10 0A     BPL $DE7B                       A:00 X:55       |       DE6F  10 0A     BPL $DE7B                       A:00 X:55
DE71  50 08     BVC $DE7B                       A:00 X:55       |       DE71  50 08     BVC $DE7B                       A:00 X:55
DE73  90 06     BCC $DE7B                       A:00 X:55       |       DE73  90 06     BCC $DE7B                       A:00 X:55
DE75  B5 00     LDA $00,X @ 55 = FF             A:00 X:55       |       DE75  B5 00     LDA $00,X @ 55 = FF             A:00 X:55
DE77  C9 FF     CMP #$FF                        A:FF X:55       |       DE77  C9 FF     CMP #$FF                        A:FF X:55
DE79  F0 04     BEQ $DE7F                       A:FF X:55       |       DE79  F0 04     BEQ $DE7F                       A:FF X:55
DE7F  A9 80     LDA #$80                        A:FF X:55       |       DE7F  A9 80     LDA #$80                        A:FF X:55
DE81  95 00     STA $00,X @ 55 = FF             A:80 X:55       |       DE81  95 00     STA $00,X @ 55 = FF             A:80 X:55
DE83  B8        CLV                             A:80 X:55       |       DE83  B8        CLV                             A:80 X:55
DE84  18        CLC                             A:80 X:55       |       DE84  18        CLC                             A:80 X:55
DE85  D6 00     DEC $00,X @ 55 = 80             A:80 X:55       |       DE85  D6 00     DEC $00,X @ 55 = 80             A:80 X:55
DE87  F0 0C     BEQ $DE95                       A:80 X:55       |       DE87  F0 0C     BEQ $DE95                       A:80 X:55
DE89  30 0A     BMI $DE95                       A:80 X:55       |       DE89  30 0A     BMI $DE95                       A:80 X:55
DE8B  70 08     BVS $DE95                       A:80 X:55       |       DE8B  70 08     BVS $DE95                       A:80 X:55
DE8D  B0 06     BCS $DE95                       A:80 X:55       |       DE8D  B0 06     BCS $DE95                       A:80 X:55
DE8F  B5 00     LDA $00,X @ 55 = 7F             A:80 X:55       |       DE8F  B5 00     LDA $00,X @ 55 = 7F             A:80 X:55
DE91  C9 7F     CMP #$7F                        A:7F X:55       |       DE91  C9 7F     CMP #$7F                        A:7F X:55
DE93  F0 04     BEQ $DE99                       A:7F X:55       |       DE93  F0 04     BEQ $DE99                       A:7F X:55
DE99  A9 01     LDA #$01                        A:7F X:55       |       DE99  A9 01     LDA #$01                        A:7F X:55
DE9B  95 00     STA $00,X @ 55 = 7F             A:01 X:55       |       DE9B  95 00     STA $00,X @ 55 = 7F             A:01 X:55
DE9D  D6 00     DEC $00,X @ 55 = 01             A:01 X:55       |       DE9D  D6 00     DEC $00,X @ 55 = 01             A:01 X:55
DE9F  F0 04     BEQ $DEA5                       A:01 X:55       |       DE9F  F0 04     BEQ $DEA5                       A:01 X:55
DEA5  A9 33     LDA #$33                        A:01 X:55       |       DEA5  A9 33     LDA #$33                        A:01 X:55
DEA7  85 78     STA $78 = 7F                    A:33 X:55       |       DEA7  85 78     STA $78 = 7F                    A:33 X:55
DEA9  A9 44     LDA #$44                        A:33 X:55       |       DEA9  A9 44     LDA #$44                        A:33 X:55
DEAB  A0 78     LDY #$78                        A:44 X:55       |       DEAB  A0 78     LDY #$78                        A:44 X:55
DEAD  A2 00     LDX #$00                        A:44 X:55       |       DEAD  A2 00     LDX #$00                        A:44 X:55
DEAF  38        SEC                             A:44 X:00       |       DEAF  38        SEC                             A:44 X:00
DEB0  24 01     BIT $01 = FF                    A:44 X:00       |       DEB0  24 01     BIT $01 = FF                    A:44 X:00
DEB2  B6 00     LDX $00,Y @ 78 = 33             A:44 X:00       |       DEB2  B6 00     LDX $00,Y @ 78 = 33             A:44 X:00
DEB4  90 12     BCC $DEC8                       A:44 X:33       |       DEB4  90 12     BCC $DEC8                       A:44 X:33
DEB6  50 10     BVC $DEC8                       A:44 X:33       |       DEB6  50 10     BVC $DEC8                       A:44 X:33
DEB8  30 0E     BMI $DEC8                       A:44 X:33       |       DEB8  30 0E     BMI $DEC8                       A:44 X:33
DEBA  F0 0C     BEQ $DEC8                       A:44 X:33       |       DEBA  F0 0C     BEQ $DEC8                       A:44 X:33
DEBC  E0 33     CPX #$33                        A:44 X:33       |       DEBC  E0 33     CPX #$33                        A:44 X:33
DEBE  D0 08     BNE $DEC8                       A:44 X:33       |       DEBE  D0 08     BNE $DEC8                       A:44 X:33
DEC0  C0 78     CPY #$78                        A:44 X:33       |       DEC0  C0 78     CPY #$78                        A:44 X:33
DEC2  D0 04     BNE $DEC8                       A:44 X:33       |       DEC2  D0 04     BNE $DEC8                       A:44 X:33
DEC4  C9 44     CMP #$44                        A:44 X:33       |       DEC4  C9 44     CMP #$44                        A:44 X:33
DEC6  F0 04     BEQ $DECC                       A:44 X:33       |       DEC6  F0 04     BEQ $DECC                       A:44 X:33
DECC  A9 97     LDA #$97                        A:44 X:33       |       DECC  A9 97     LDA #$97                        A:44 X:33
DECE  85 7F     STA $7F = 00                    A:97 X:33       |       DECE  85 7F     STA $7F = 00                    A:97 X:33
DED0  A9 47     LDA #$47                        A:97 X:33       |       DED0  A9 47     LDA #$47                        A:97 X:33
DED2  A0 FF     LDY #$FF                        A:47 X:33       |       DED2  A0 FF     LDY #$FF                        A:47 X:33
DED4  A2 00     LDX #$00                        A:47 X:33       |       DED4  A2 00     LDX #$00                        A:47 X:33
DED6  18        CLC                             A:47 X:00       |       DED6  18        CLC                             A:47 X:00
DED7  B8        CLV                             A:47 X:00       |       DED7  B8        CLV                             A:47 X:00
DED8  B6 80     LDX $80,Y @ 7F = 97             A:47 X:00       |       DED8  B6 80     LDX $80,Y @ 7F = 97             A:47 X:00
DEDA  B0 12     BCS $DEEE                       A:47 X:97       |       DEDA  B0 12     BCS $DEEE                       A:47 X:97
DEDC  70 10     BVS $DEEE                       A:47 X:97       |       DEDC  70 10     BVS $DEEE                       A:47 X:97
DEDE  10 0E     BPL $DEEE                       A:47 X:97       |       DEDE  10 0E     BPL $DEEE                       A:47 X:97
DEE0  F0 0C     BEQ $DEEE                       A:47 X:97       |       DEE0  F0 0C     BEQ $DEEE                       A:47 X:97
DEE2  E0 97     CPX #$97                        A:47 X:97       |       DEE2  E0 97     CPX #$97                        A:47 X:97
DEE4  D0 08     BNE $DEEE                       A:47 X:97       |       DEE4  D0 08     BNE $DEEE                       A:47 X:97
DEE6  C0 FF     CPY #$FF                        A:47 X:97       |       DEE6  C0 FF     CPY #$FF                        A:47 X:97
DEE8  D0 04     BNE $DEEE                       A:47 X:97       |       DEE8  D0 04     BNE $DEEE                       A:47 X:97
DEEA  C9 47     CMP #$47                        A:47 X:97       |       DEEA  C9 47     CMP #$47                        A:47 X:97
DEEC  F0 04     BEQ $DEF2                       A:47 X:97       |       DEEC  F0 04     BEQ $DEF2                       A:47 X:97
DEF2  A9 00     LDA #$00                        A:47 X:97       |       DEF2  A9 00     LDA #$00                        A:47 X:97
DEF4  85 7F     STA $7F = 97                    A:00 X:97       |       DEF4  85 7F     STA $7F = 97                    A:00 X:97
DEF6  A9 47     LDA #$47                        A:00 X:97       |       DEF6  A9 47     LDA #$47                        A:00 X:97
DEF8  A0 FF     LDY #$FF                        A:47 X:97       |       DEF8  A0 FF     LDY #$FF                        A:47 X:97
DEFA  A2 69     LDX #$69                        A:47 X:97       |       DEFA  A2 69     LDX #$69                        A:47 X:97
DEFC  18        CLC                             A:47 X:69       |       DEFC  18        CLC                             A:47 X:69
DEFD  B8        CLV                             A:47 X:69       |       DEFD  B8        CLV                             A:47 X:69
DEFE  96 80     STX $80,Y @ 7F = 00             A:47 X:69       |       DEFE  96 80     STX $80,Y @ 7F = 00             A:47 X:69
DF00  B0 18     BCS $DF1A                       A:47 X:69       |       DF00  B0 18     BCS $DF1A                       A:47 X:69
DF02  70 16     BVS $DF1A                       A:47 X:69       |       DF02  70 16     BVS $DF1A                       A:47 X:69
DF04  30 14     BMI $DF1A                       A:47 X:69       |       DF04  30 14     BMI $DF1A                       A:47 X:69
DF06  F0 12     BEQ $DF1A                       A:47 X:69       |       DF06  F0 12     BEQ $DF1A                       A:47 X:69
DF08  E0 69     CPX #$69                        A:47 X:69       |       DF08  E0 69     CPX #$69                        A:47 X:69
DF0A  D0 0E     BNE $DF1A                       A:47 X:69       |       DF0A  D0 0E     BNE $DF1A                       A:47 X:69
DF0C  C0 FF     CPY #$FF                        A:47 X:69       |       DF0C  C0 FF     CPY #$FF                        A:47 X:69
DF0E  D0 0A     BNE $DF1A                       A:47 X:69       |       DF0E  D0 0A     BNE $DF1A                       A:47 X:69
DF10  C9 47     CMP #$47                        A:47 X:69       |       DF10  C9 47     CMP #$47                        A:47 X:69
DF12  D0 06     BNE $DF1A                       A:47 X:69       |       DF12  D0 06     BNE $DF1A                       A:47 X:69
DF14  A5 7F     LDA $7F = 69                    A:47 X:69       |       DF14  A5 7F     LDA $7F = 69                    A:47 X:69
DF16  C9 69     CMP #$69                        A:69 X:69       |       DF16  C9 69     CMP #$69                        A:69 X:69
DF18  F0 04     BEQ $DF1E                       A:69 X:69       |       DF18  F0 04     BEQ $DF1E                       A:69 X:69
DF1E  A9 F5     LDA #$F5                        A:69 X:69       |       DF1E  A9 F5     LDA #$F5                        A:69 X:69
DF20  85 4F     STA $4F = 00                    A:F5 X:69       |       DF20  85 4F     STA $4F = 00                    A:F5 X:69
DF22  A9 47     LDA #$47                        A:F5 X:69       |       DF22  A9 47     LDA #$47                        A:F5 X:69
DF24  A0 4F     LDY #$4F                        A:47 X:69       |       DF24  A0 4F     LDY #$4F                        A:47 X:69
DF26  24 01     BIT $01 = FF                    A:47 X:69       |       DF26  24 01     BIT $01 = FF                    A:47 X:69
DF28  A2 00     LDX #$00                        A:47 X:69       |       DF28  A2 00     LDX #$00                        A:47 X:69
DF2A  38        SEC                             A:47 X:00       |       DF2A  38        SEC                             A:47 X:00
DF2B  96 00     STX $00,Y @ 4F = F5             A:47 X:00       |       DF2B  96 00     STX $00,Y @ 4F = F5             A:47 X:00
DF2D  90 16     BCC $DF45                       A:47 X:00       |       DF2D  90 16     BCC $DF45                       A:47 X:00
DF2F  50 14     BVC $DF45                       A:47 X:00       |       DF2F  50 14     BVC $DF45                       A:47 X:00
DF31  30 12     BMI $DF45                       A:47 X:00       |       DF31  30 12     BMI $DF45                       A:47 X:00
DF33  D0 10     BNE $DF45                       A:47 X:00       |       DF33  D0 10     BNE $DF45                       A:47 X:00
DF35  E0 00     CPX #$00                        A:47 X:00       |       DF35  E0 00     CPX #$00                        A:47 X:00
DF37  D0 0C     BNE $DF45                       A:47 X:00       |       DF37  D0 0C     BNE $DF45                       A:47 X:00
DF39  C0 4F     CPY #$4F                        A:47 X:00       |       DF39  C0 4F     CPY #$4F                        A:47 X:00
DF3B  D0 08     BNE $DF45                       A:47 X:00       |       DF3B  D0 08     BNE $DF45                       A:47 X:00
DF3D  C9 47     CMP #$47                        A:47 X:00       |       DF3D  C9 47     CMP #$47                        A:47 X:00
DF3F  D0 04     BNE $DF45                       A:47 X:00       |       DF3F  D0 04     BNE $DF45                       A:47 X:00
DF41  A5 4F     LDA $4F = 00                    A:47 X:00       |       DF41  A5 4F     LDA $4F = 00                    A:47 X:00
DF43  F0 04     BEQ $DF49                       A:00 X:00       |       DF43  F0 04     BEQ $DF49                       A:00 X:00
DF49  60        RTS                             A:00 X:00       |       DF49  60        RTS                             A:00 X:00
C62C  20 AA E1  JSR $E1AA                       A:00 X:00       |       C62C  20 AA E1  JSR $E1AA                       A:00 X:00
E1AA  A9 FF     LDA #$FF                        A:00 X:00       |       E1AA  A9 FF     LDA #$FF                        A:00 X:00
E1AC  85 01     STA $01 = FF                    A:FF X:00       |       E1AC  85 01     STA $01 = FF                    A:FF X:00
E1AE  A9 AA     LDA #$AA                        A:FF X:00       |       E1AE  A9 AA     LDA #$AA                        A:FF X:00
E1B0  8D 33 06  STA $0633 = 00                  A:AA X:00       |       E1B0  8D 33 06  STA $0633 = 00                  A:AA X:00
E1B3  A9 BB     LDA #$BB                        A:AA X:00       |       E1B3  A9 BB     LDA #$BB                        A:AA X:00
E1B5  8D 89 06  STA $0689 = 00                  A:BB X:00       |       E1B5  8D 89 06  STA $0689 = 00                  A:BB X:00
E1B8  A2 00     LDX #$00                        A:BB X:00       |       E1B8  A2 00     LDX #$00                        A:BB X:00
E1BA  A9 66     LDA #$66                        A:BB X:00       |       E1BA  A9 66     LDA #$66                        A:BB X:00
E1BC  24 01     BIT $01 = FF                    A:66 X:00       |       E1BC  24 01     BIT $01 = FF                    A:66 X:00
E1BE  38        SEC                             A:66 X:00       |       E1BE  38        SEC                             A:66 X:00
E1BF  A0 00     LDY #$00                        A:66 X:00       |       E1BF  A0 00     LDY #$00                        A:66 X:00
E1C1  BC 33 06  LDY $0633,X @ 0633 = AA         A:66 X:00       |       E1C1  BC 33 06  LDY $0633,X @ 0633 = AA         A:66 X:00
E1C4  10 12     BPL $E1D8                       A:66 X:00       |       E1C4  10 12     BPL $E1D8                       A:66 X:00
E1C6  F0 10     BEQ $E1D8                       A:66 X:00       |       E1C6  F0 10     BEQ $E1D8                       A:66 X:00
E1C8  50 0E     BVC $E1D8                       A:66 X:00       |       E1C8  50 0E     BVC $E1D8                       A:66 X:00
E1CA  90 0C     BCC $E1D8                       A:66 X:00       |       E1CA  90 0C     BCC $E1D8                       A:66 X:00
E1CC  C9 66     CMP #$66                        A:66 X:00       |       E1CC  C9 66     CMP #$66                        A:66 X:00
E1CE  D0 08     BNE $E1D8                       A:66 X:00       |       E1CE  D0 08     BNE $E1D8                       A:66 X:00
E1D0  E0 00     CPX #$00                        A:66 X:00       |       E1D0  E0 00     CPX #$00                        A:66 X:00
E1D2  D0 04     BNE $E1D8                       A:66 X:00       |       E1D2  D0 04     BNE $E1D8                       A:66 X:00
E1D4  C0 AA     CPY #$AA                        A:66 X:00       |       E1D4  C0 AA     CPY #$AA                        A:66 X:00
E1D6  F0 04     BEQ $E1DC                       A:66 X:00       |       E1D6  F0 04     BEQ $E1DC                       A:66 X:00
E1DC  A2 8A     LDX #$8A                        A:66 X:00       |       E1DC  A2 8A     LDX #$8A                        A:66 X:00
E1DE  A9 66     LDA #$66                        A:66 X:8A       |       E1DE  A9 66     LDA #$66                        A:66 X:8A
E1E0  B8        CLV                             A:66 X:8A       |       E1E0  B8        CLV                             A:66 X:8A
E1E1  18        CLC                             A:66 X:8A       |       E1E1  18        CLC                             A:66 X:8A
E1E2  A0 00     LDY #$00                        A:66 X:8A       |       E1E2  A0 00     LDY #$00                        A:66 X:8A
E1E4  BC FF 05  LDY $05FF,X @ 0689 = BB         A:66 X:8A       |       E1E4  BC FF 05  LDY $05FF,X @ 0689 = BB         A:66 X:8A
E1E7  10 12     BPL $E1FB                       A:66 X:8A       |       E1E7  10 12     BPL $E1FB                       A:66 X:8A
E1E9  F0 10     BEQ $E1FB                       A:66 X:8A       |       E1E9  F0 10     BEQ $E1FB                       A:66 X:8A
E1EB  70 0E     BVS $E1FB                       A:66 X:8A       |       E1EB  70 0E     BVS $E1FB                       A:66 X:8A
E1ED  B0 0C     BCS $E1FB                       A:66 X:8A       |       E1ED  B0 0C     BCS $E1FB                       A:66 X:8A
E1EF  C0 BB     CPY #$BB                        A:66 X:8A       |       E1EF  C0 BB     CPY #$BB                        A:66 X:8A
E1F1  D0 08     BNE $E1FB                       A:66 X:8A       |       E1F1  D0 08     BNE $E1FB                       A:66 X:8A
E1F3  C9 66     CMP #$66                        A:66 X:8A       |       E1F3  C9 66     CMP #$66                        A:66 X:8A
E1F5  D0 04     BNE $E1FB                       A:66 X:8A       |       E1F5  D0 04     BNE $E1FB                       A:66 X:8A
E1F7  E0 8A     CPX #$8A                        A:66 X:8A       |       E1F7  E0 8A     CPX #$8A                        A:66 X:8A
E1F9  F0 04     BEQ $E1FF                       A:66 X:8A       |       E1F9  F0 04     BEQ $E1FF                       A:66 X:8A
E1FF  A0 53     LDY #$53                        A:66 X:8A       |       E1FF  A0 53     LDY #$53                        A:66 X:8A
E201  A9 AA     LDA #$AA                        A:66 X:8A       |       E201  A9 AA     LDA #$AA                        A:66 X:8A
E203  A2 78     LDX #$78                        A:AA X:8A       |       E203  A2 78     LDX #$78                        A:AA X:8A
E205  8D 78 06  STA $0678 = 00                  A:AA X:78       |       E205  8D 78 06  STA $0678 = 00                  A:AA X:78
E208  20 B6 F7  JSR $F7B6                       A:AA X:78       |       E208  20 B6 F7  JSR $F7B6                       A:AA X:78
F7B6  18        CLC                             A:AA X:78       |       F7B6  18        CLC                             A:AA X:78
F7B7  A9 FF     LDA #$FF                        A:AA X:78       |       F7B7  A9 FF     LDA #$FF                        A:AA X:78
F7B9  85 01     STA $01 = FF                    A:FF X:78       |       F7B9  85 01     STA $01 = FF                    A:FF X:78
F7BB  24 01     BIT $01 = FF                    A:FF X:78       |       F7BB  24 01     BIT $01 = FF                    A:FF X:78
F7BD  A9 55     LDA #$55                        A:FF X:78       |       F7BD  A9 55     LDA #$55                        A:FF X:78
F7BF  60        RTS                             A:55 X:78       |       F7BF  60        RTS                             A:55 X:78
E20B  1D 00 06  ORA $0600,X @ 0678 = AA         A:55 X:78       |       E20B  1D 00 06  ORA $0600,X @ 0678 = AA         A:55 X:78
E20E  20 C0 F7  JSR $F7C0                       A:FF X:78       |       E20E  20 C0 F7  JSR $F7C0                       A:FF X:78
F7C0  B0 09     BCS $F7CB                       A:FF X:78       |       F7C0  B0 09     BCS $F7CB                       A:FF X:78
F7C2  10 07     BPL $F7CB                       A:FF X:78       |       F7C2  10 07     BPL $F7CB                       A:FF X:78
F7C4  C9 FF     CMP #$FF                        A:FF X:78       |       F7C4  C9 FF     CMP #$FF                        A:FF X:78
F7C6  D0 03     BNE $F7CB                       A:FF X:78       |       F7C6  D0 03     BNE $F7CB                       A:FF X:78
F7C8  50 01     BVC $F7CB                       A:FF X:78       |       F7C8  50 01     BVC $F7CB                       A:FF X:78
F7CA  60        RTS                             A:FF X:78       |       F7CA  60        RTS                             A:FF X:78
E211  C8        INY                             A:FF X:78       |       E211  C8        INY                             A:FF X:78
E212  A9 00     LDA #$00                        A:FF X:78       |       E212  A9 00     LDA #$00                        A:FF X:78
E214  8D 78 06  STA $0678 = AA                  A:00 X:78       |       E214  8D 78 06  STA $0678 = AA                  A:00 X:78
E217  20 CE F7  JSR $F7CE                       A:00 X:78       |       E217  20 CE F7  JSR $F7CE                       A:00 X:78
F7CE  38        SEC                             A:00 X:78       |       F7CE  38        SEC                             A:00 X:78
F7CF  B8        CLV                             A:00 X:78       |       F7CF  B8        CLV                             A:00 X:78
F7D0  A9 00     LDA #$00                        A:00 X:78       |       F7D0  A9 00     LDA #$00                        A:00 X:78
F7D2  60        RTS                             A:00 X:78       |       F7D2  60        RTS                             A:00 X:78
E21A  1D 00 06  ORA $0600,X @ 0678 = 00         A:00 X:78       |       E21A  1D 00 06  ORA $0600,X @ 0678 = 00         A:00 X:78
E21D  20 D3 F7  JSR $F7D3                       A:00 X:78       |       E21D  20 D3 F7  JSR $F7D3                       A:00 X:78
F7D3  D0 07     BNE $F7DC                       A:00 X:78       |       F7D3  D0 07     BNE $F7DC                       A:00 X:78
F7D5  70 05     BVS $F7DC                       A:00 X:78       |       F7D5  70 05     BVS $F7DC                       A:00 X:78
F7D7  90 03     BCC $F7DC                       A:00 X:78       |       F7D7  90 03     BCC $F7DC                       A:00 X:78
F7D9  30 01     BMI $F7DC                       A:00 X:78       |       F7D9  30 01     BMI $F7DC                       A:00 X:78
F7DB  60        RTS                             A:00 X:78       |       F7DB  60        RTS                             A:00 X:78
E220  C8        INY                             A:00 X:78       |       E220  C8        INY                             A:00 X:78
E221  A9 AA     LDA #$AA                        A:00 X:78       |       E221  A9 AA     LDA #$AA                        A:00 X:78
E223  8D 78 06  STA $0678 = 00                  A:AA X:78       |       E223  8D 78 06  STA $0678 = 00                  A:AA X:78
E226  20 DF F7  JSR $F7DF                       A:AA X:78       |       E226  20 DF F7  JSR $F7DF                       A:AA X:78
F7DF  18        CLC                             A:AA X:78       |       F7DF  18        CLC                             A:AA X:78
F7E0  24 01     BIT $01 = FF                    A:AA X:78       |       F7E0  24 01     BIT $01 = FF                    A:AA X:78
F7E2  A9 55     LDA #$55                        A:AA X:78       |       F7E2  A9 55     LDA #$55                        A:AA X:78
F7E4  60        RTS                             A:55 X:78       |       F7E4  60        RTS                             A:55 X:78
E229  3D 00 06  AND $0600,X @ 0678 = AA         A:55 X:78       |       E229  3D 00 06  AND $0600,X @ 0678 = AA         A:55 X:78
E22C  20 E5 F7  JSR $F7E5                       A:00 X:78       |       E22C  20 E5 F7  JSR $F7E5                       A:00 X:78
F7E5  D0 07     BNE $F7EE                       A:00 X:78       |       F7E5  D0 07     BNE $F7EE                       A:00 X:78
F7E7  50 05     BVC $F7EE                       A:00 X:78       |       F7E7  50 05     BVC $F7EE                       A:00 X:78
F7E9  B0 03     BCS $F7EE                       A:00 X:78       |       F7E9  B0 03     BCS $F7EE                       A:00 X:78
F7EB  30 01     BMI $F7EE                       A:00 X:78       |       F7EB  30 01     BMI $F7EE                       A:00 X:78
F7ED  60        RTS                             A:00 X:78       |       F7ED  60        RTS                             A:00 X:78
E22F  C8        INY                             A:00 X:78       |       E22F  C8        INY                             A:00 X:78
E230  A9 EF     LDA #$EF                        A:00 X:78       |       E230  A9 EF     LDA #$EF                        A:00 X:78
E232  8D 78 06  STA $0678 = AA                  A:EF X:78       |       E232  8D 78 06  STA $0678 = AA                  A:EF X:78
E235  20 F1 F7  JSR $F7F1                       A:EF X:78       |       E235  20 F1 F7  JSR $F7F1                       A:EF X:78
F7F1  38        SEC                             A:EF X:78       |       F7F1  38        SEC                             A:EF X:78
F7F2  B8        CLV                             A:EF X:78       |       F7F2  B8        CLV                             A:EF X:78
F7F3  A9 F8     LDA #$F8                        A:EF X:78       |       F7F3  A9 F8     LDA #$F8                        A:EF X:78
F7F5  60        RTS                             A:F8 X:78       |       F7F5  60        RTS                             A:F8 X:78
E238  3D 00 06  AND $0600,X @ 0678 = EF         A:F8 X:78       |       E238  3D 00 06  AND $0600,X @ 0678 = EF         A:F8 X:78
E23B  20 F6 F7  JSR $F7F6                       A:E8 X:78       |       E23B  20 F6 F7  JSR $F7F6                       A:E8 X:78
F7F6  90 09     BCC $F801                       A:E8 X:78       |       F7F6  90 09     BCC $F801                       A:E8 X:78
F7F8  10 07     BPL $F801                       A:E8 X:78       |       F7F8  10 07     BPL $F801                       A:E8 X:78
F7FA  C9 E8     CMP #$E8                        A:E8 X:78       |       F7FA  C9 E8     CMP #$E8                        A:E8 X:78
F7FC  D0 03     BNE $F801                       A:E8 X:78       |       F7FC  D0 03     BNE $F801                       A:E8 X:78
F7FE  70 01     BVS $F801                       A:E8 X:78       |       F7FE  70 01     BVS $F801                       A:E8 X:78
F800  60        RTS                             A:E8 X:78       |       F800  60        RTS                             A:E8 X:78
E23E  C8        INY                             A:E8 X:78       |       E23E  C8        INY                             A:E8 X:78
E23F  A9 AA     LDA #$AA                        A:E8 X:78       |       E23F  A9 AA     LDA #$AA                        A:E8 X:78
E241  8D 78 06  STA $0678 = EF                  A:AA X:78       |       E241  8D 78 06  STA $0678 = EF                  A:AA X:78
E244  20 04 F8  JSR $F804                       A:AA X:78       |       E244  20 04 F8  JSR $F804                       A:AA X:78
F804  18        CLC                             A:AA X:78       |       F804  18        CLC                             A:AA X:78
F805  24 01     BIT $01 = FF                    A:AA X:78       |       F805  24 01     BIT $01 = FF                    A:AA X:78
F807  A9 5F     LDA #$5F                        A:AA X:78       |       F807  A9 5F     LDA #$5F                        A:AA X:78
F809  60        RTS                             A:5F X:78       |       F809  60        RTS                             A:5F X:78
E247  5D 00 06  EOR $0600,X @ 0678 = AA         A:5F X:78       |       E247  5D 00 06  EOR $0600,X @ 0678 = AA         A:5F X:78
E24A  20 0A F8  JSR $F80A                       A:F5 X:78       |       E24A  20 0A F8  JSR $F80A                       A:F5 X:78
F80A  B0 09     BCS $F815                       A:F5 X:78       |       F80A  B0 09     BCS $F815                       A:F5 X:78
F80C  10 07     BPL $F815                       A:F5 X:78       |       F80C  10 07     BPL $F815                       A:F5 X:78
F80E  C9 F5     CMP #$F5                        A:F5 X:78       |       F80E  C9 F5     CMP #$F5                        A:F5 X:78
F810  D0 03     BNE $F815                       A:F5 X:78       |       F810  D0 03     BNE $F815                       A:F5 X:78
F812  50 01     BVC $F815                       A:F5 X:78       |       F812  50 01     BVC $F815                       A:F5 X:78
F814  60        RTS                             A:F5 X:78       |       F814  60        RTS                             A:F5 X:78
E24D  C8        INY                             A:F5 X:78       |       E24D  C8        INY                             A:F5 X:78
E24E  A9 70     LDA #$70                        A:F5 X:78       |       E24E  A9 70     LDA #$70                        A:F5 X:78
E250  8D 78 06  STA $0678 = AA                  A:70 X:78       |       E250  8D 78 06  STA $0678 = AA                  A:70 X:78
E253  20 18 F8  JSR $F818                       A:70 X:78       |       E253  20 18 F8  JSR $F818                       A:70 X:78
F818  38        SEC                             A:70 X:78       |       F818  38        SEC                             A:70 X:78
F819  B8        CLV                             A:70 X:78       |       F819  B8        CLV                             A:70 X:78
F81A  A9 70     LDA #$70                        A:70 X:78       |       F81A  A9 70     LDA #$70                        A:70 X:78
F81C  60        RTS                             A:70 X:78       |       F81C  60        RTS                             A:70 X:78
E256  5D 00 06  EOR $0600,X @ 0678 = 70         A:70 X:78       |       E256  5D 00 06  EOR $0600,X @ 0678 = 70         A:70 X:78
E259  20 1D F8  JSR $F81D                       A:00 X:78       |       E259  20 1D F8  JSR $F81D                       A:00 X:78
F81D  D0 07     BNE $F826                       A:00 X:78       |       F81D  D0 07     BNE $F826                       A:00 X:78
F81F  70 05     BVS $F826                       A:00 X:78       |       F81F  70 05     BVS $F826                       A:00 X:78
F821  90 03     BCC $F826                       A:00 X:78       |       F821  90 03     BCC $F826                       A:00 X:78
F823  30 01     BMI $F826                       A:00 X:78       |       F823  30 01     BMI $F826                       A:00 X:78
F825  60        RTS                             A:00 X:78       |       F825  60        RTS                             A:00 X:78
E25C  C8        INY                             A:00 X:78       |       E25C  C8        INY                             A:00 X:78
E25D  A9 69     LDA #$69                        A:00 X:78       |       E25D  A9 69     LDA #$69                        A:00 X:78
E25F  8D 78 06  STA $0678 = 70                  A:69 X:78       |       E25F  8D 78 06  STA $0678 = 70                  A:69 X:78
E262  20 29 F8  JSR $F829                       A:69 X:78       |       E262  20 29 F8  JSR $F829                       A:69 X:78
F829  18        CLC                             A:69 X:78       |       F829  18        CLC                             A:69 X:78
F82A  24 01     BIT $01 = FF                    A:69 X:78       |       F82A  24 01     BIT $01 = FF                    A:69 X:78
F82C  A9 00     LDA #$00                        A:69 X:78       |       F82C  A9 00     LDA #$00                        A:69 X:78
F82E  60        RTS                             A:00 X:78       |       F82E  60        RTS                             A:00 X:78
E265  7D 00 06  ADC $0600,X @ 0678 = 69         A:00 X:78       |       E265  7D 00 06  ADC $0600,X @ 0678 = 69         A:00 X:78
E268  20 2F F8  JSR $F82F                       A:69 X:78       |       E268  20 2F F8  JSR $F82F                       A:69 X:78
F82F  30 09     BMI $F83A                       A:69 X:78       |       F82F  30 09     BMI $F83A                       A:69 X:78
F831  B0 07     BCS $F83A                       A:69 X:78       |       F831  B0 07     BCS $F83A                       A:69 X:78
F833  C9 69     CMP #$69                        A:69 X:78       |       F833  C9 69     CMP #$69                        A:69 X:78
F835  D0 03     BNE $F83A                       A:69 X:78       |       F835  D0 03     BNE $F83A                       A:69 X:78
F837  70 01     BVS $F83A                       A:69 X:78       |       F837  70 01     BVS $F83A                       A:69 X:78
F839  60        RTS                             A:69 X:78       |       F839  60        RTS                             A:69 X:78
E26B  C8        INY                             A:69 X:78       |       E26B  C8        INY                             A:69 X:78
E26C  20 3D F8  JSR $F83D                       A:69 X:78       |       E26C  20 3D F8  JSR $F83D                       A:69 X:78
F83D  38        SEC                             A:69 X:78       |       F83D  38        SEC                             A:69 X:78
F83E  24 01     BIT $01 = FF                    A:69 X:78       |       F83E  24 01     BIT $01 = FF                    A:69 X:78
F840  A9 00     LDA #$00                        A:69 X:78       |       F840  A9 00     LDA #$00                        A:69 X:78
F842  60        RTS                             A:00 X:78       |       F842  60        RTS                             A:00 X:78
E26F  7D 00 06  ADC $0600,X @ 0678 = 69         A:00 X:78       |       E26F  7D 00 06  ADC $0600,X @ 0678 = 69         A:00 X:78
E272  20 43 F8  JSR $F843                       A:6A X:78       |       E272  20 43 F8  JSR $F843                       A:6A X:78
F843  30 09     BMI $F84E                       A:6A X:78       |       F843  30 09     BMI $F84E                       A:6A X:78
F845  B0 07     BCS $F84E                       A:6A X:78       |       F845  B0 07     BCS $F84E                       A:6A X:78
F847  C9 6A     CMP #$6A                        A:6A X:78       |       F847  C9 6A     CMP #$6A                        A:6A X:78
F849  D0 03     BNE $F84E                       A:6A X:78       |       F849  D0 03     BNE $F84E                       A:6A X:78
F84B  70 01     BVS $F84E                       A:6A X:78       |       F84B  70 01     BVS $F84E                       A:6A X:78
F84D  60        RTS                             A:6A X:78       |       F84D  60        RTS                             A:6A X:78
E275  C8        INY                             A:6A X:78       |       E275  C8        INY                             A:6A X:78
E276  A9 7F     LDA #$7F                        A:6A X:78       |       E276  A9 7F     LDA #$7F                        A:6A X:78
E278  8D 78 06  STA $0678 = 69                  A:7F X:78       |       E278  8D 78 06  STA $0678 = 69                  A:7F X:78
E27B  20 51 F8  JSR $F851                       A:7F X:78       |       E27B  20 51 F8  JSR $F851                       A:7F X:78
F851  38        SEC                             A:7F X:78       |       F851  38        SEC                             A:7F X:78
F852  B8        CLV                             A:7F X:78       |       F852  B8        CLV                             A:7F X:78
F853  A9 7F     LDA #$7F                        A:7F X:78       |       F853  A9 7F     LDA #$7F                        A:7F X:78
F855  60        RTS                             A:7F X:78       |       F855  60        RTS                             A:7F X:78
E27E  7D 00 06  ADC $0600,X @ 0678 = 7F         A:7F X:78       |       E27E  7D 00 06  ADC $0600,X @ 0678 = 7F         A:7F X:78
E281  20 56 F8  JSR $F856                       A:FF X:78       |       E281  20 56 F8  JSR $F856                       A:FF X:78
F856  10 09     BPL $F861                       A:FF X:78       |       F856  10 09     BPL $F861                       A:FF X:78
F858  B0 07     BCS $F861                       A:FF X:78       |       F858  B0 07     BCS $F861                       A:FF X:78
F85A  C9 FF     CMP #$FF                        A:FF X:78       |       F85A  C9 FF     CMP #$FF                        A:FF X:78
F85C  D0 03     BNE $F861                       A:FF X:78       |       F85C  D0 03     BNE $F861                       A:FF X:78
F85E  50 01     BVC $F861                       A:FF X:78       |       F85E  50 01     BVC $F861                       A:FF X:78
F860  60        RTS                             A:FF X:78       |       F860  60        RTS                             A:FF X:78
E284  C8        INY                             A:FF X:78       |       E284  C8        INY                             A:FF X:78
E285  A9 80     LDA #$80                        A:FF X:78       |       E285  A9 80     LDA #$80                        A:FF X:78
E287  8D 78 06  STA $0678 = 7F                  A:80 X:78       |       E287  8D 78 06  STA $0678 = 7F                  A:80 X:78
E28A  20 64 F8  JSR $F864                       A:80 X:78       |       E28A  20 64 F8  JSR $F864                       A:80 X:78
F864  18        CLC                             A:80 X:78       |       F864  18        CLC                             A:80 X:78
F865  24 01     BIT $01 = FF                    A:80 X:78       |       F865  24 01     BIT $01 = FF                    A:80 X:78
F867  A9 7F     LDA #$7F                        A:80 X:78       |       F867  A9 7F     LDA #$7F                        A:80 X:78
F869  60        RTS                             A:7F X:78       |       F869  60        RTS                             A:7F X:78
E28D  7D 00 06  ADC $0600,X @ 0678 = 80         A:7F X:78       |       E28D  7D 00 06  ADC $0600,X @ 0678 = 80         A:7F X:78
E290  20 6A F8  JSR $F86A                       A:FF X:78       |       E290  20 6A F8  JSR $F86A                       A:FF X:78
F86A  10 09     BPL $F875                       A:FF X:78       |       F86A  10 09     BPL $F875                       A:FF X:78
F86C  B0 07     BCS $F875                       A:FF X:78       |       F86C  B0 07     BCS $F875                       A:FF X:78
F86E  C9 FF     CMP #$FF                        A:FF X:78       |       F86E  C9 FF     CMP #$FF                        A:FF X:78
F870  D0 03     BNE $F875                       A:FF X:78       |       F870  D0 03     BNE $F875                       A:FF X:78
F872  70 01     BVS $F875                       A:FF X:78       |       F872  70 01     BVS $F875                       A:FF X:78
F874  60        RTS                             A:FF X:78       |       F874  60        RTS                             A:FF X:78
E293  C8        INY                             A:FF X:78       |       E293  C8        INY                             A:FF X:78
E294  20 78 F8  JSR $F878                       A:FF X:78       |       E294  20 78 F8  JSR $F878                       A:FF X:78
F878  38        SEC                             A:FF X:78       |       F878  38        SEC                             A:FF X:78
F879  B8        CLV                             A:FF X:78       |       F879  B8        CLV                             A:FF X:78
F87A  A9 7F     LDA #$7F                        A:FF X:78       |       F87A  A9 7F     LDA #$7F                        A:FF X:78
F87C  60        RTS                             A:7F X:78       |       F87C  60        RTS                             A:7F X:78
E297  7D 00 06  ADC $0600,X @ 0678 = 80         A:7F X:78       |       E297  7D 00 06  ADC $0600,X @ 0678 = 80         A:7F X:78
E29A  20 7D F8  JSR $F87D                       A:00 X:78       |       E29A  20 7D F8  JSR $F87D                       A:00 X:78
F87D  D0 07     BNE $F886                       A:00 X:78       |       F87D  D0 07     BNE $F886                       A:00 X:78
F87F  30 05     BMI $F886                       A:00 X:78       |       F87F  30 05     BMI $F886                       A:00 X:78
F881  70 03     BVS $F886                       A:00 X:78       |       F881  70 03     BVS $F886                       A:00 X:78
F883  90 01     BCC $F886                       A:00 X:78       |       F883  90 01     BCC $F886                       A:00 X:78
F885  60        RTS                             A:00 X:78       |       F885  60        RTS                             A:00 X:78
E29D  C8        INY                             A:00 X:78       |       E29D  C8        INY                             A:00 X:78
E29E  A9 40     LDA #$40                        A:00 X:78       |       E29E  A9 40     LDA #$40                        A:00 X:78
E2A0  8D 78 06  STA $0678 = 80                  A:40 X:78       |       E2A0  8D 78 06  STA $0678 = 80                  A:40 X:78
E2A3  20 89 F8  JSR $F889                       A:40 X:78       |       E2A3  20 89 F8  JSR $F889                       A:40 X:78
F889  24 01     BIT $01 = FF                    A:40 X:78       |       F889  24 01     BIT $01 = FF                    A:40 X:78
F88B  A9 40     LDA #$40                        A:40 X:78       |       F88B  A9 40     LDA #$40                        A:40 X:78
F88D  60        RTS                             A:40 X:78       |       F88D  60        RTS                             A:40 X:78
E2A6  DD 00 06  CMP $0600,X @ 0678 = 40         A:40 X:78       |       E2A6  DD 00 06  CMP $0600,X @ 0678 = 40         A:40 X:78
E2A9  20 8E F8  JSR $F88E                       A:40 X:78       |       E2A9  20 8E F8  JSR $F88E                       A:40 X:78
F88E  30 07     BMI $F897                       A:40 X:78       |       F88E  30 07     BMI $F897                       A:40 X:78
F890  90 05     BCC $F897                       A:40 X:78       |       F890  90 05     BCC $F897                       A:40 X:78
F892  D0 03     BNE $F897                       A:40 X:78       |       F892  D0 03     BNE $F897                       A:40 X:78
F894  50 01     BVC $F897                       A:40 X:78       |       F894  50 01     BVC $F897                       A:40 X:78
F896  60        RTS                             A:40 X:78       |       F896  60        RTS                             A:40 X:78
E2AC  C8        INY                             A:40 X:78       |       E2AC  C8        INY                             A:40 X:78
E2AD  48        PHA                             A:40 X:78       |       E2AD  48        PHA                             A:40 X:78
E2AE  A9 3F     LDA #$3F                        A:40 X:78       |       E2AE  A9 3F     LDA #$3F                        A:40 X:78
E2B0  8D 78 06  STA $0678 = 40                  A:3F X:78       |       E2B0  8D 78 06  STA $0678 = 40                  A:3F X:78
E2B3  68        PLA                             A:3F X:78       |       E2B3  68        PLA                             A:3F X:78
E2B4  20 9A F8  JSR $F89A                       A:40 X:78       |       E2B4  20 9A F8  JSR $F89A                       A:40 X:78
F89A  B8        CLV                             A:40 X:78       |       F89A  B8        CLV                             A:40 X:78
F89B  60        RTS                             A:40 X:78       |       F89B  60        RTS                             A:40 X:78
E2B7  DD 00 06  CMP $0600,X @ 0678 = 3F         A:40 X:78       |       E2B7  DD 00 06  CMP $0600,X @ 0678 = 3F         A:40 X:78
E2BA  20 9C F8  JSR $F89C                       A:40 X:78       |       E2BA  20 9C F8  JSR $F89C                       A:40 X:78
F89C  F0 07     BEQ $F8A5                       A:40 X:78       |       F89C  F0 07     BEQ $F8A5                       A:40 X:78
F89E  30 05     BMI $F8A5                       A:40 X:78       |       F89E  30 05     BMI $F8A5                       A:40 X:78
F8A0  90 03     BCC $F8A5                       A:40 X:78       |       F8A0  90 03     BCC $F8A5                       A:40 X:78
F8A2  70 01     BVS $F8A5                       A:40 X:78       |       F8A2  70 01     BVS $F8A5                       A:40 X:78
F8A4  60        RTS                             A:40 X:78       |       F8A4  60        RTS                             A:40 X:78
E2BD  C8        INY                             A:40 X:78       |       E2BD  C8        INY                             A:40 X:78
E2BE  48        PHA                             A:40 X:78       |       E2BE  48        PHA                             A:40 X:78
E2BF  A9 41     LDA #$41                        A:40 X:78       |       E2BF  A9 41     LDA #$41                        A:40 X:78
E2C1  8D 78 06  STA $0678 = 3F                  A:41 X:78       |       E2C1  8D 78 06  STA $0678 = 3F                  A:41 X:78
E2C4  68        PLA                             A:41 X:78       |       E2C4  68        PLA                             A:41 X:78
E2C5  DD 00 06  CMP $0600,X @ 0678 = 41         A:40 X:78       |       E2C5  DD 00 06  CMP $0600,X @ 0678 = 41         A:40 X:78
E2C8  20 A8 F8  JSR $F8A8                       A:40 X:78       |       E2C8  20 A8 F8  JSR $F8A8                       A:40 X:78
F8A8  F0 05     BEQ $F8AF                       A:40 X:78       |       F8A8  F0 05     BEQ $F8AF                       A:40 X:78
F8AA  10 03     BPL $F8AF                       A:40 X:78       |       F8AA  10 03     BPL $F8AF                       A:40 X:78
F8AC  10 01     BPL $F8AF                       A:40 X:78       |       F8AC  10 01     BPL $F8AF                       A:40 X:78
F8AE  60        RTS                             A:40 X:78       |       F8AE  60        RTS                             A:40 X:78
E2CB  C8        INY                             A:40 X:78       |       E2CB  C8        INY                             A:40 X:78
E2CC  48        PHA                             A:40 X:78       |       E2CC  48        PHA                             A:40 X:78
E2CD  A9 00     LDA #$00                        A:40 X:78       |       E2CD  A9 00     LDA #$00                        A:40 X:78
E2CF  8D 78 06  STA $0678 = 41                  A:00 X:78       |       E2CF  8D 78 06  STA $0678 = 41                  A:00 X:78
E2D2  68        PLA                             A:00 X:78       |       E2D2  68        PLA                             A:00 X:78
E2D3  20 B2 F8  JSR $F8B2                       A:40 X:78       |       E2D3  20 B2 F8  JSR $F8B2                       A:40 X:78
F8B2  A9 80     LDA #$80                        A:40 X:78       |       F8B2  A9 80     LDA #$80                        A:40 X:78
F8B4  60        RTS                             A:80 X:78       |       F8B4  60        RTS                             A:80 X:78
E2D6  DD 00 06  CMP $0600,X @ 0678 = 00         A:80 X:78       |       E2D6  DD 00 06  CMP $0600,X @ 0678 = 00         A:80 X:78
E2D9  20 B5 F8  JSR $F8B5                       A:80 X:78       |       E2D9  20 B5 F8  JSR $F8B5                       A:80 X:78
F8B5  F0 05     BEQ $F8BC                       A:80 X:78       |       F8B5  F0 05     BEQ $F8BC                       A:80 X:78
F8B7  10 03     BPL $F8BC                       A:80 X:78       |       F8B7  10 03     BPL $F8BC                       A:80 X:78
F8B9  90 01     BCC $F8BC                       A:80 X:78       |       F8B9  90 01     BCC $F8BC                       A:80 X:78
F8BB  60        RTS                             A:80 X:78       |       F8BB  60        RTS                             A:80 X:78
E2DC  C8        INY                             A:80 X:78       |       E2DC  C8        INY                             A:80 X:78
E2DD  48        PHA                             A:80 X:78       |       E2DD  48        PHA                             A:80 X:78
E2DE  A9 80     LDA #$80                        A:80 X:78       |       E2DE  A9 80     LDA #$80                        A:80 X:78
E2E0  8D 78 06  STA $0678 = 00                  A:80 X:78       |       E2E0  8D 78 06  STA $0678 = 00                  A:80 X:78
E2E3  68        PLA                             A:80 X:78       |       E2E3  68        PLA                             A:80 X:78
E2E4  DD 00 06  CMP $0600,X @ 0678 = 80         A:80 X:78       |       E2E4  DD 00 06  CMP $0600,X @ 0678 = 80         A:80 X:78
E2E7  20 BF F8  JSR $F8BF                       A:80 X:78       |       E2E7  20 BF F8  JSR $F8BF                       A:80 X:78
F8BF  D0 05     BNE $F8C6                       A:80 X:78       |       F8BF  D0 05     BNE $F8C6                       A:80 X:78
F8C1  30 03     BMI $F8C6                       A:80 X:78       |       F8C1  30 03     BMI $F8C6                       A:80 X:78
F8C3  90 01     BCC $F8C6                       A:80 X:78       |       F8C3  90 01     BCC $F8C6                       A:80 X:78
F8C5  60        RTS                             A:80 X:78       |       F8C5  60        RTS                             A:80 X:78
E2EA  C8        INY                             A:80 X:78       |       E2EA  C8        INY                             A:80 X:78
E2EB  48        PHA                             A:80 X:78       |       E2EB  48        PHA                             A:80 X:78
E2EC  A9 81     LDA #$81                        A:80 X:78       |       E2EC  A9 81     LDA #$81                        A:80 X:78
E2EE  8D 78 06  STA $0678 = 80                  A:81 X:78       |       E2EE  8D 78 06  STA $0678 = 80                  A:81 X:78
E2F1  68        PLA                             A:81 X:78       |       E2F1  68        PLA                             A:81 X:78
E2F2  DD 00 06  CMP $0600,X @ 0678 = 81         A:80 X:78       |       E2F2  DD 00 06  CMP $0600,X @ 0678 = 81         A:80 X:78
E2F5  20 C9 F8  JSR $F8C9                       A:80 X:78       |       E2F5  20 C9 F8  JSR $F8C9                       A:80 X:78
F8C9  B0 05     BCS $F8D0                       A:80 X:78       |       F8C9  B0 05     BCS $F8D0                       A:80 X:78
F8CB  F0 03     BEQ $F8D0                       A:80 X:78       |       F8CB  F0 03     BEQ $F8D0                       A:80 X:78
F8CD  10 01     BPL $F8D0                       A:80 X:78       |       F8CD  10 01     BPL $F8D0                       A:80 X:78
F8CF  60        RTS                             A:80 X:78       |       F8CF  60        RTS                             A:80 X:78
E2F8  C8        INY                             A:80 X:78       |       E2F8  C8        INY                             A:80 X:78
E2F9  48        PHA                             A:80 X:78       |       E2F9  48        PHA                             A:80 X:78
E2FA  A9 7F     LDA #$7F                        A:80 X:78       |       E2FA  A9 7F     LDA #$7F                        A:80 X:78
E2FC  8D 78 06  STA $0678 = 81                  A:7F X:78       |       E2FC  8D 78 06  STA $0678 = 81                  A:7F X:78
E2FF  68        PLA                             A:7F X:78       |       E2FF  68        PLA                             A:7F X:78
E300  DD 00 06  CMP $0600,X @ 0678 = 7F         A:80 X:78       |       E300  DD 00 06  CMP $0600,X @ 0678 = 7F         A:80 X:78
E303  20 D3 F8  JSR $F8D3                       A:80 X:78       |       E303  20 D3 F8  JSR $F8D3                       A:80 X:78
F8D3  90 05     BCC $F8DA                       A:80 X:78       |       F8D3  90 05     BCC $F8DA                       A:80 X:78
F8D5  F0 03     BEQ $F8DA                       A:80 X:78       |       F8D5  F0 03     BEQ $F8DA                       A:80 X:78
F8D7  30 01     BMI $F8DA                       A:80 X:78       |       F8D7  30 01     BMI $F8DA                       A:80 X:78
F8D9  60        RTS                             A:80 X:78       |       F8D9  60        RTS                             A:80 X:78
E306  C8        INY                             A:80 X:78       |       E306  C8        INY                             A:80 X:78
E307  A9 40     LDA #$40                        A:80 X:78       |       E307  A9 40     LDA #$40                        A:80 X:78
E309  8D 78 06  STA $0678 = 7F                  A:40 X:78       |       E309  8D 78 06  STA $0678 = 7F                  A:40 X:78
E30C  20 31 F9  JSR $F931                       A:40 X:78       |       E30C  20 31 F9  JSR $F931                       A:40 X:78
F931  24 01     BIT $01 = FF                    A:40 X:78       |       F931  24 01     BIT $01 = FF                    A:40 X:78
F933  A9 40     LDA #$40                        A:40 X:78       |       F933  A9 40     LDA #$40                        A:40 X:78
F935  38        SEC                             A:40 X:78       |       F935  38        SEC                             A:40 X:78
F936  60        RTS                             A:40 X:78       |       F936  60        RTS                             A:40 X:78
E30F  FD 00 06  SBC $0600,X @ 0678 = 40         A:40 X:78       |       E30F  FD 00 06  SBC $0600,X @ 0678 = 40         A:40 X:78
E312  20 37 F9  JSR $F937                       A:00 X:78       |       E312  20 37 F9  JSR $F937                       A:00 X:78
F937  30 0B     BMI $F944                       A:00 X:78       |       F937  30 0B     BMI $F944                       A:00 X:78
F939  90 09     BCC $F944                       A:00 X:78       |       F939  90 09     BCC $F944                       A:00 X:78
F93B  D0 07     BNE $F944                       A:00 X:78       |       F93B  D0 07     BNE $F944                       A:00 X:78
F93D  70 05     BVS $F944                       A:00 X:78       |       F93D  70 05     BVS $F944                       A:00 X:78
F93F  C9 00     CMP #$00                        A:00 X:78       |       F93F  C9 00     CMP #$00                        A:00 X:78
F941  D0 01     BNE $F944                       A:00 X:78       |       F941  D0 01     BNE $F944                       A:00 X:78
F943  60        RTS                             A:00 X:78       |       F943  60        RTS                             A:00 X:78
E315  C8        INY                             A:00 X:78       |       E315  C8        INY                             A:00 X:78
E316  A9 3F     LDA #$3F                        A:00 X:78       |       E316  A9 3F     LDA #$3F                        A:00 X:78
E318  8D 78 06  STA $0678 = 40                  A:3F X:78       |       E318  8D 78 06  STA $0678 = 40                  A:3F X:78
E31B  20 47 F9  JSR $F947                       A:3F X:78       |       E31B  20 47 F9  JSR $F947                       A:3F X:78
F947  B8        CLV                             A:3F X:78       |       F947  B8        CLV                             A:3F X:78
F948  38        SEC                             A:3F X:78       |       F948  38        SEC                             A:3F X:78
F949  A9 40     LDA #$40                        A:3F X:78       |       F949  A9 40     LDA #$40                        A:3F X:78
F94B  60        RTS                             A:40 X:78       |       F94B  60        RTS                             A:40 X:78
E31E  FD 00 06  SBC $0600,X @ 0678 = 3F         A:40 X:78       |       E31E  FD 00 06  SBC $0600,X @ 0678 = 3F         A:40 X:78
E321  20 4C F9  JSR $F94C                       A:01 X:78       |       E321  20 4C F9  JSR $F94C                       A:01 X:78
F94C  F0 0B     BEQ $F959                       A:01 X:78       |       F94C  F0 0B     BEQ $F959                       A:01 X:78
F94E  30 09     BMI $F959                       A:01 X:78       |       F94E  30 09     BMI $F959                       A:01 X:78
F950  90 07     BCC $F959                       A:01 X:78       |       F950  90 07     BCC $F959                       A:01 X:78
F952  70 05     BVS $F959                       A:01 X:78       |       F952  70 05     BVS $F959                       A:01 X:78
F954  C9 01     CMP #$01                        A:01 X:78       |       F954  C9 01     CMP #$01                        A:01 X:78
F956  D0 01     BNE $F959                       A:01 X:78       |       F956  D0 01     BNE $F959                       A:01 X:78
F958  60        RTS                             A:01 X:78       |       F958  60        RTS                             A:01 X:78
E324  C8        INY                             A:01 X:78       |       E324  C8        INY                             A:01 X:78
E325  A9 41     LDA #$41                        A:01 X:78       |       E325  A9 41     LDA #$41                        A:01 X:78
E327  8D 78 06  STA $0678 = 3F                  A:41 X:78       |       E327  8D 78 06  STA $0678 = 3F                  A:41 X:78
E32A  20 5C F9  JSR $F95C                       A:41 X:78       |       E32A  20 5C F9  JSR $F95C                       A:41 X:78
F95C  A9 40     LDA #$40                        A:41 X:78       |       F95C  A9 40     LDA #$40                        A:41 X:78
F95E  38        SEC                             A:40 X:78       |       F95E  38        SEC                             A:40 X:78
F95F  24 01     BIT $01 = FF                    A:40 X:78       |       F95F  24 01     BIT $01 = FF                    A:40 X:78
F961  60        RTS                             A:40 X:78       |       F961  60        RTS                             A:40 X:78
E32D  FD 00 06  SBC $0600,X @ 0678 = 41         A:40 X:78       |       E32D  FD 00 06  SBC $0600,X @ 0678 = 41         A:40 X:78
E330  20 62 F9  JSR $F962                       A:FF X:78       |       E330  20 62 F9  JSR $F962                       A:FF X:78
F962  B0 0B     BCS $F96F                       A:FF X:78       |       F962  B0 0B     BCS $F96F                       A:FF X:78
F964  F0 09     BEQ $F96F                       A:FF X:78       |       F964  F0 09     BEQ $F96F                       A:FF X:78
F966  10 07     BPL $F96F                       A:FF X:78       |       F966  10 07     BPL $F96F                       A:FF X:78
F968  70 05     BVS $F96F                       A:FF X:78       |       F968  70 05     BVS $F96F                       A:FF X:78
F96A  C9 FF     CMP #$FF                        A:FF X:78       |       F96A  C9 FF     CMP #$FF                        A:FF X:78
F96C  D0 01     BNE $F96F                       A:FF X:78       |       F96C  D0 01     BNE $F96F                       A:FF X:78
F96E  60        RTS                             A:FF X:78       |       F96E  60        RTS                             A:FF X:78
E333  C8        INY                             A:FF X:78       |       E333  C8        INY                             A:FF X:78
E334  A9 00     LDA #$00                        A:FF X:78       |       E334  A9 00     LDA #$00                        A:FF X:78
E336  8D 78 06  STA $0678 = 41                  A:00 X:78       |       E336  8D 78 06  STA $0678 = 41                  A:00 X:78
E339  20 72 F9  JSR $F972                       A:00 X:78       |       E339  20 72 F9  JSR $F972                       A:00 X:78
F972  18        CLC                             A:00 X:78       |       F972  18        CLC                             A:00 X:78
F973  A9 80     LDA #$80                        A:00 X:78       |       F973  A9 80     LDA #$80                        A:00 X:78
F975  60        RTS                             A:80 X:78       |       F975  60        RTS                             A:80 X:78
E33C  FD 00 06  SBC $0600,X @ 0678 = 00         A:80 X:78       |       E33C  FD 00 06  SBC $0600,X @ 0678 = 00         A:80 X:78
E33F  20 76 F9  JSR $F976                       A:7F X:78       |       E33F  20 76 F9  JSR $F976                       A:7F X:78
F976  90 05     BCC $F97D                       A:7F X:78       |       F976  90 05     BCC $F97D                       A:7F X:78
F978  C9 7F     CMP #$7F                        A:7F X:78       |       F978  C9 7F     CMP #$7F                        A:7F X:78
F97A  D0 01     BNE $F97D                       A:7F X:78       |       F97A  D0 01     BNE $F97D                       A:7F X:78
F97C  60        RTS                             A:7F X:78       |       F97C  60        RTS                             A:7F X:78
E342  C8        INY                             A:7F X:78       |       E342  C8        INY                             A:7F X:78
E343  A9 7F     LDA #$7F                        A:7F X:78       |       E343  A9 7F     LDA #$7F                        A:7F X:78
E345  8D 78 06  STA $0678 = 00                  A:7F X:78       |       E345  8D 78 06  STA $0678 = 00                  A:7F X:78
E348  20 80 F9  JSR $F980                       A:7F X:78       |       E348  20 80 F9  JSR $F980                       A:7F X:78
F980  38        SEC                             A:7F X:78       |       F980  38        SEC                             A:7F X:78
F981  A9 81     LDA #$81                        A:7F X:78       |       F981  A9 81     LDA #$81                        A:7F X:78
F983  60        RTS                             A:81 X:78       |       F983  60        RTS                             A:81 X:78
E34B  FD 00 06  SBC $0600,X @ 0678 = 7F         A:81 X:78       |       E34B  FD 00 06  SBC $0600,X @ 0678 = 7F         A:81 X:78
E34E  20 84 F9  JSR $F984                       A:02 X:78       |       E34E  20 84 F9  JSR $F984                       A:02 X:78
F984  50 07     BVC $F98D                       A:02 X:78       |       F984  50 07     BVC $F98D                       A:02 X:78
F986  90 05     BCC $F98D                       A:02 X:78       |       F986  90 05     BCC $F98D                       A:02 X:78
F988  C9 02     CMP #$02                        A:02 X:78       |       F988  C9 02     CMP #$02                        A:02 X:78
F98A  D0 01     BNE $F98D                       A:02 X:78       |       F98A  D0 01     BNE $F98D                       A:02 X:78
F98C  60        RTS                             A:02 X:78       |       F98C  60        RTS                             A:02 X:78
E351  A9 AA     LDA #$AA                        A:02 X:78       |       E351  A9 AA     LDA #$AA                        A:02 X:78
E353  8D 33 06  STA $0633 = AA                  A:AA X:78       |       E353  8D 33 06  STA $0633 = AA                  A:AA X:78
E356  A9 BB     LDA #$BB                        A:AA X:78       |       E356  A9 BB     LDA #$BB                        A:AA X:78
E358  8D 89 06  STA $0689 = BB                  A:BB X:78       |       E358  8D 89 06  STA $0689 = BB                  A:BB X:78
E35B  A2 00     LDX #$00                        A:BB X:78       |       E35B  A2 00     LDX #$00                        A:BB X:78
E35D  A0 66     LDY #$66                        A:BB X:00       |       E35D  A0 66     LDY #$66                        A:BB X:00
E35F  24 01     BIT $01 = FF                    A:BB X:00       |       E35F  24 01     BIT $01 = FF                    A:BB X:00
E361  38        SEC                             A:BB X:00       |       E361  38        SEC                             A:BB X:00
E362  A9 00     LDA #$00                        A:BB X:00       |       E362  A9 00     LDA #$00                        A:BB X:00
E364  BD 33 06  LDA $0633,X @ 0633 = AA         A:00 X:00       |       E364  BD 33 06  LDA $0633,X @ 0633 = AA         A:00 X:00
E367  10 12     BPL $E37B                       A:AA X:00       |       E367  10 12     BPL $E37B                       A:AA X:00
E369  F0 10     BEQ $E37B                       A:AA X:00       |       E369  F0 10     BEQ $E37B                       A:AA X:00
E36B  50 0E     BVC $E37B                       A:AA X:00       |       E36B  50 0E     BVC $E37B                       A:AA X:00
E36D  90 0C     BCC $E37B                       A:AA X:00       |       E36D  90 0C     BCC $E37B                       A:AA X:00
E36F  C0 66     CPY #$66                        A:AA X:00       |       E36F  C0 66     CPY #$66                        A:AA X:00
E371  D0 08     BNE $E37B                       A:AA X:00       |       E371  D0 08     BNE $E37B                       A:AA X:00
E373  E0 00     CPX #$00                        A:AA X:00       |       E373  E0 00     CPX #$00                        A:AA X:00
E375  D0 04     BNE $E37B                       A:AA X:00       |       E375  D0 04     BNE $E37B                       A:AA X:00
E377  C9 AA     CMP #$AA                        A:AA X:00       |       E377  C9 AA     CMP #$AA                        A:AA X:00
E379  F0 04     BEQ $E37F                       A:AA X:00       |       E379  F0 04     BEQ $E37F                       A:AA X:00
E37F  A2 8A     LDX #$8A                        A:AA X:00       |       E37F  A2 8A     LDX #$8A                        A:AA X:00
E381  A0 66     LDY #$66                        A:AA X:8A       |       E381  A0 66     LDY #$66                        A:AA X:8A
E383  B8        CLV                             A:AA X:8A       |       E383  B8        CLV                             A:AA X:8A
E384  18        CLC                             A:AA X:8A       |       E384  18        CLC                             A:AA X:8A
E385  A9 00     LDA #$00                        A:AA X:8A       |       E385  A9 00     LDA #$00                        A:AA X:8A
E387  BD FF 05  LDA $05FF,X @ 0689 = BB         A:00 X:8A       |       E387  BD FF 05  LDA $05FF,X @ 0689 = BB         A:00 X:8A
E38A  10 12     BPL $E39E                       A:BB X:8A       |       E38A  10 12     BPL $E39E                       A:BB X:8A
E38C  F0 10     BEQ $E39E                       A:BB X:8A       |       E38C  F0 10     BEQ $E39E                       A:BB X:8A
E38E  70 0E     BVS $E39E                       A:BB X:8A       |       E38E  70 0E     BVS $E39E                       A:BB X:8A
E390  B0 0C     BCS $E39E                       A:BB X:8A       |       E390  B0 0C     BCS $E39E                       A:BB X:8A
E392  C9 BB     CMP #$BB                        A:BB X:8A       |       E392  C9 BB     CMP #$BB                        A:BB X:8A
E394  D0 08     BNE $E39E                       A:BB X:8A       |       E394  D0 08     BNE $E39E                       A:BB X:8A
E396  C0 66     CPY #$66                        A:BB X:8A       |       E396  C0 66     CPY #$66                        A:BB X:8A
E398  D0 04     BNE $E39E                       A:BB X:8A       |       E398  D0 04     BNE $E39E                       A:BB X:8A
E39A  E0 8A     CPX #$8A                        A:BB X:8A       |       E39A  E0 8A     CPX #$8A                        A:BB X:8A
E39C  F0 04     BEQ $E3A2                       A:BB X:8A       |       E39C  F0 04     BEQ $E3A2                       A:BB X:8A
E3A2  24 01     BIT $01 = FF                    A:BB X:8A       |       E3A2  24 01     BIT $01 = FF                    A:BB X:8A
E3A4  38        SEC                             A:BB X:8A       |       E3A4  38        SEC                             A:BB X:8A
E3A5  A9 44     LDA #$44                        A:BB X:8A       |       E3A5  A9 44     LDA #$44                        A:BB X:8A
E3A7  A2 00     LDX #$00                        A:44 X:8A       |       E3A7  A2 00     LDX #$00                        A:44 X:8A
E3A9  9D 33 06  STA $0633,X @ 0633 = AA         A:44 X:00       |       E3A9  9D 33 06  STA $0633,X @ 0633 = AA         A:44 X:00
E3AC  AD 33 06  LDA $0633 = 44                  A:44 X:00       |       E3AC  AD 33 06  LDA $0633 = 44                  A:44 X:00
E3AF  90 1A     BCC $E3CB                       A:44 X:00       |       E3AF  90 1A     BCC $E3CB                       A:44 X:00
E3B1  C9 44     CMP #$44                        A:44 X:00       |       E3B1  C9 44     CMP #$44                        A:44 X:00
E3B3  D0 16     BNE $E3CB                       A:44 X:00       |       E3B3  D0 16     BNE $E3CB                       A:44 X:00
E3B5  50 14     BVC $E3CB                       A:44 X:00       |       E3B5  50 14     BVC $E3CB                       A:44 X:00
E3B7  18        CLC                             A:44 X:00       |       E3B7  18        CLC                             A:44 X:00
E3B8  B8        CLV                             A:44 X:00       |       E3B8  B8        CLV                             A:44 X:00
E3B9  A9 99     LDA #$99                        A:44 X:00       |       E3B9  A9 99     LDA #$99                        A:44 X:00
E3BB  A2 80     LDX #$80                        A:99 X:00       |       E3BB  A2 80     LDX #$80                        A:99 X:00
E3BD  9D 85 05  STA $0585,X @ 0605 = 00         A:99 X:80       |       E3BD  9D 85 05  STA $0585,X @ 0605 = 00         A:99 X:80
E3C0  AD 05 06  LDA $0605 = 99                  A:99 X:80       |       E3C0  AD 05 06  LDA $0605 = 99                  A:99 X:80
E3C3  B0 06     BCS $E3CB                       A:99 X:80       |       E3C3  B0 06     BCS $E3CB                       A:99 X:80
E3C5  C9 99     CMP #$99                        A:99 X:80       |       E3C5  C9 99     CMP #$99                        A:99 X:80
E3C7  D0 02     BNE $E3CB                       A:99 X:80       |       E3C7  D0 02     BNE $E3CB                       A:99 X:80
E3C9  50 04     BVC $E3CF                       A:99 X:80       |       E3C9  50 04     BVC $E3CF                       A:99 X:80
E3CF  A0 6D     LDY #$6D                        A:99 X:80       |       E3CF  A0 6D     LDY #$6D                        A:99 X:80
E3D1  A2 6D     LDX #$6D                        A:99 X:80       |       E3D1  A2 6D     LDX #$6D                        A:99 X:80
E3D3  20 90 F9  JSR $F990                       A:99 X:6D       |       E3D3  20 90 F9  JSR $F990                       A:99 X:6D
F990  A2 55     LDX #$55                        A:99 X:6D       |       F990  A2 55     LDX #$55                        A:99 X:6D
F992  A9 FF     LDA #$FF                        A:99 X:55       |       F992  A9 FF     LDA #$FF                        A:99 X:55
F994  85 01     STA $01 = FF                    A:FF X:55       |       F994  85 01     STA $01 = FF                    A:FF X:55
F996  EA        NOP                             A:FF X:55       |       F996  EA        NOP                             A:FF X:55
F997  24 01     BIT $01 = FF                    A:FF X:55       |       F997  24 01     BIT $01 = FF                    A:FF X:55
F999  38        SEC                             A:FF X:55       |       F999  38        SEC                             A:FF X:55
F99A  A9 01     LDA #$01                        A:FF X:55       |       F99A  A9 01     LDA #$01                        A:FF X:55
F99C  60        RTS                             A:01 X:55       |       F99C  60        RTS                             A:01 X:55
E3D6  9D 00 06  STA $0600,X @ 0655 = 00         A:01 X:55       |       E3D6  9D 00 06  STA $0600,X @ 0655 = 00         A:01 X:55
E3D9  5E 00 06  LSR $0600,X @ 0655 = 01         A:01 X:55       |       E3D9  5E 00 06  LSR $0600,X @ 0655 = 01         A:01 X:55
E3DC  BD 00 06  LDA $0600,X @ 0655 = 00         A:01 X:55       |       E3DC  BD 00 06  LDA $0600,X @ 0655 = 00         A:01 X:55
E3DF  20 9D F9  JSR $F99D                       A:00 X:55       |       E3DF  20 9D F9  JSR $F99D                       A:00 X:55
F99D  90 1B     BCC $F9BA                       A:00 X:55       |       F99D  90 1B     BCC $F9BA                       A:00 X:55
F99F  D0 19     BNE $F9BA                       A:00 X:55       |       F99F  D0 19     BNE $F9BA                       A:00 X:55
F9A1  30 17     BMI $F9BA                       A:00 X:55       |       F9A1  30 17     BMI $F9BA                       A:00 X:55
F9A3  50 15     BVC $F9BA                       A:00 X:55       |       F9A3  50 15     BVC $F9BA                       A:00 X:55
F9A5  C9 00     CMP #$00                        A:00 X:55       |       F9A5  C9 00     CMP #$00                        A:00 X:55
F9A7  D0 11     BNE $F9BA                       A:00 X:55       |       F9A7  D0 11     BNE $F9BA                       A:00 X:55
F9A9  B8        CLV                             A:00 X:55       |       F9A9  B8        CLV                             A:00 X:55
F9AA  A9 AA     LDA #$AA                        A:00 X:55       |       F9AA  A9 AA     LDA #$AA                        A:00 X:55
F9AC  60        RTS                             A:AA X:55       |       F9AC  60        RTS                             A:AA X:55
E3E2  C8        INY                             A:AA X:55       |       E3E2  C8        INY                             A:AA X:55
E3E3  9D 00 06  STA $0600,X @ 0655 = 00         A:AA X:55       |       E3E3  9D 00 06  STA $0600,X @ 0655 = 00         A:AA X:55
E3E6  5E 00 06  LSR $0600,X @ 0655 = AA         A:AA X:55       |       E3E6  5E 00 06  LSR $0600,X @ 0655 = AA         A:AA X:55
E3E9  BD 00 06  LDA $0600,X @ 0655 = 55         A:AA X:55       |       E3E9  BD 00 06  LDA $0600,X @ 0655 = 55         A:AA X:55
E3EC  20 AD F9  JSR $F9AD                       A:55 X:55       |       E3EC  20 AD F9  JSR $F9AD                       A:55 X:55
F9AD  B0 0B     BCS $F9BA                       A:55 X:55       |       F9AD  B0 0B     BCS $F9BA                       A:55 X:55
F9AF  F0 09     BEQ $F9BA                       A:55 X:55       |       F9AF  F0 09     BEQ $F9BA                       A:55 X:55
F9B1  30 07     BMI $F9BA                       A:55 X:55       |       F9B1  30 07     BMI $F9BA                       A:55 X:55
F9B3  70 05     BVS $F9BA                       A:55 X:55       |       F9B3  70 05     BVS $F9BA                       A:55 X:55
F9B5  C9 55     CMP #$55                        A:55 X:55       |       F9B5  C9 55     CMP #$55                        A:55 X:55
F9B7  D0 01     BNE $F9BA                       A:55 X:55       |       F9B7  D0 01     BNE $F9BA                       A:55 X:55
F9B9  60        RTS                             A:55 X:55       |       F9B9  60        RTS                             A:55 X:55
E3EF  C8        INY                             A:55 X:55       |       E3EF  C8        INY                             A:55 X:55
E3F0  20 BD F9  JSR $F9BD                       A:55 X:55       |       E3F0  20 BD F9  JSR $F9BD                       A:55 X:55
F9BD  24 01     BIT $01 = FF                    A:55 X:55       |       F9BD  24 01     BIT $01 = FF                    A:55 X:55
F9BF  38        SEC                             A:55 X:55       |       F9BF  38        SEC                             A:55 X:55
F9C0  A9 80     LDA #$80                        A:55 X:55       |       F9C0  A9 80     LDA #$80                        A:55 X:55
F9C2  60        RTS                             A:80 X:55       |       F9C2  60        RTS                             A:80 X:55
E3F3  9D 00 06  STA $0600,X @ 0655 = 55         A:80 X:55       |       E3F3  9D 00 06  STA $0600,X @ 0655 = 55         A:80 X:55
E3F6  1E 00 06  ASL $0600,X @ 0655 = 80         A:80 X:55       |       E3F6  1E 00 06  ASL $0600,X @ 0655 = 80         A:80 X:55
E3F9  BD 00 06  LDA $0600,X @ 0655 = 00         A:80 X:55       |       E3F9  BD 00 06  LDA $0600,X @ 0655 = 00         A:80 X:55
E3FC  20 C3 F9  JSR $F9C3                       A:00 X:55       |       E3FC  20 C3 F9  JSR $F9C3                       A:00 X:55
F9C3  90 1C     BCC $F9E1                       A:00 X:55       |       F9C3  90 1C     BCC $F9E1                       A:00 X:55
F9C5  D0 1A     BNE $F9E1                       A:00 X:55       |       F9C5  D0 1A     BNE $F9E1                       A:00 X:55
F9C7  30 18     BMI $F9E1                       A:00 X:55       |       F9C7  30 18     BMI $F9E1                       A:00 X:55
F9C9  50 16     BVC $F9E1                       A:00 X:55       |       F9C9  50 16     BVC $F9E1                       A:00 X:55
F9CB  C9 00     CMP #$00                        A:00 X:55       |       F9CB  C9 00     CMP #$00                        A:00 X:55
F9CD  D0 12     BNE $F9E1                       A:00 X:55       |       F9CD  D0 12     BNE $F9E1                       A:00 X:55
F9CF  B8        CLV                             A:00 X:55       |       F9CF  B8        CLV                             A:00 X:55
F9D0  A9 55     LDA #$55                        A:00 X:55       |       F9D0  A9 55     LDA #$55                        A:00 X:55
F9D2  38        SEC                             A:55 X:55       |       F9D2  38        SEC                             A:55 X:55
F9D3  60        RTS                             A:55 X:55       |       F9D3  60        RTS                             A:55 X:55
E3FF  C8        INY                             A:55 X:55       |       E3FF  C8        INY                             A:55 X:55
E400  9D 00 06  STA $0600,X @ 0655 = 00         A:55 X:55       |       E400  9D 00 06  STA $0600,X @ 0655 = 00         A:55 X:55
E403  1E 00 06  ASL $0600,X @ 0655 = 55         A:55 X:55       |       E403  1E 00 06  ASL $0600,X @ 0655 = 55         A:55 X:55
E406  BD 00 06  LDA $0600,X @ 0655 = AA         A:55 X:55       |       E406  BD 00 06  LDA $0600,X @ 0655 = AA         A:55 X:55
E409  20 D4 F9  JSR $F9D4                       A:AA X:55       |       E409  20 D4 F9  JSR $F9D4                       A:AA X:55
F9D4  B0 0B     BCS $F9E1                       A:AA X:55       |       F9D4  B0 0B     BCS $F9E1                       A:AA X:55
F9D6  F0 09     BEQ $F9E1                       A:AA X:55       |       F9D6  F0 09     BEQ $F9E1                       A:AA X:55
F9D8  10 07     BPL $F9E1                       A:AA X:55       |       F9D8  10 07     BPL $F9E1                       A:AA X:55
F9DA  70 05     BVS $F9E1                       A:AA X:55       |       F9DA  70 05     BVS $F9E1                       A:AA X:55
F9DC  C9 AA     CMP #$AA                        A:AA X:55       |       F9DC  C9 AA     CMP #$AA                        A:AA X:55
F9DE  D0 01     BNE $F9E1                       A:AA X:55       |       F9DE  D0 01     BNE $F9E1                       A:AA X:55
F9E0  60        RTS                             A:AA X:55       |       F9E0  60        RTS                             A:AA X:55
E40C  C8        INY                             A:AA X:55       |       E40C  C8        INY                             A:AA X:55
E40D  20 E4 F9  JSR $F9E4                       A:AA X:55       |       E40D  20 E4 F9  JSR $F9E4                       A:AA X:55
F9E4  24 01     BIT $01 = FF                    A:AA X:55       |       F9E4  24 01     BIT $01 = FF                    A:AA X:55
F9E6  38        SEC                             A:AA X:55       |       F9E6  38        SEC                             A:AA X:55
F9E7  A9 01     LDA #$01                        A:AA X:55       |       F9E7  A9 01     LDA #$01                        A:AA X:55
F9E9  60        RTS                             A:01 X:55       |       F9E9  60        RTS                             A:01 X:55
E410  9D 00 06  STA $0600,X @ 0655 = AA         A:01 X:55       |       E410  9D 00 06  STA $0600,X @ 0655 = AA         A:01 X:55
E413  7E 00 06  ROR $0600,X @ 0655 = 01         A:01 X:55       |       E413  7E 00 06  ROR $0600,X @ 0655 = 01         A:01 X:55
E416  BD 00 06  LDA $0600,X @ 0655 = 80         A:01 X:55       |       E416  BD 00 06  LDA $0600,X @ 0655 = 80         A:01 X:55
E419  20 EA F9  JSR $F9EA                       A:80 X:55       |       E419  20 EA F9  JSR $F9EA                       A:80 X:55
F9EA  90 1C     BCC $FA08                       A:80 X:55       |       F9EA  90 1C     BCC $FA08                       A:80 X:55
F9EC  F0 1A     BEQ $FA08                       A:80 X:55       |       F9EC  F0 1A     BEQ $FA08                       A:80 X:55
F9EE  10 18     BPL $FA08                       A:80 X:55       |       F9EE  10 18     BPL $FA08                       A:80 X:55
F9F0  50 16     BVC $FA08                       A:80 X:55       |       F9F0  50 16     BVC $FA08                       A:80 X:55
F9F2  C9 80     CMP #$80                        A:80 X:55       |       F9F2  C9 80     CMP #$80                        A:80 X:55
F9F4  D0 12     BNE $FA08                       A:80 X:55       |       F9F4  D0 12     BNE $FA08                       A:80 X:55
F9F6  B8        CLV                             A:80 X:55       |       F9F6  B8        CLV                             A:80 X:55
F9F7  18        CLC                             A:80 X:55       |       F9F7  18        CLC                             A:80 X:55
F9F8  A9 55     LDA #$55                        A:80 X:55       |       F9F8  A9 55     LDA #$55                        A:80 X:55
F9FA  60        RTS                             A:55 X:55       |       F9FA  60        RTS                             A:55 X:55
E41C  C8        INY                             A:55 X:55       |       E41C  C8        INY                             A:55 X:55
E41D  9D 00 06  STA $0600,X @ 0655 = 80         A:55 X:55       |       E41D  9D 00 06  STA $0600,X @ 0655 = 80         A:55 X:55
E420  7E 00 06  ROR $0600,X @ 0655 = 55         A:55 X:55       |       E420  7E 00 06  ROR $0600,X @ 0655 = 55         A:55 X:55
E423  BD 00 06  LDA $0600,X @ 0655 = 2A         A:55 X:55       |       E423  BD 00 06  LDA $0600,X @ 0655 = 2A         A:55 X:55
E426  20 FB F9  JSR $F9FB                       A:2A X:55       |       E426  20 FB F9  JSR $F9FB                       A:2A X:55
F9FB  90 0B     BCC $FA08                       A:2A X:55       |       F9FB  90 0B     BCC $FA08                       A:2A X:55
F9FD  F0 09     BEQ $FA08                       A:2A X:55       |       F9FD  F0 09     BEQ $FA08                       A:2A X:55
F9FF  30 07     BMI $FA08                       A:2A X:55       |       F9FF  30 07     BMI $FA08                       A:2A X:55
FA01  70 05     BVS $FA08                       A:2A X:55       |       FA01  70 05     BVS $FA08                       A:2A X:55
FA03  C9 2A     CMP #$2A                        A:2A X:55       |       FA03  C9 2A     CMP #$2A                        A:2A X:55
FA05  D0 01     BNE $FA08                       A:2A X:55       |       FA05  D0 01     BNE $FA08                       A:2A X:55
FA07  60        RTS                             A:2A X:55       |       FA07  60        RTS                             A:2A X:55
E429  C8        INY                             A:2A X:55       |       E429  C8        INY                             A:2A X:55
E42A  20 0A FA  JSR $FA0A                       A:2A X:55       |       E42A  20 0A FA  JSR $FA0A                       A:2A X:55
FA0A  24 01     BIT $01 = FF                    A:2A X:55       |       FA0A  24 01     BIT $01 = FF                    A:2A X:55
FA0C  38        SEC                             A:2A X:55       |       FA0C  38        SEC                             A:2A X:55
FA0D  A9 80     LDA #$80                        A:2A X:55       |       FA0D  A9 80     LDA #$80                        A:2A X:55
FA0F  60        RTS                             A:80 X:55       |       FA0F  60        RTS                             A:80 X:55
E42D  9D 00 06  STA $0600,X @ 0655 = 2A         A:80 X:55       |       E42D  9D 00 06  STA $0600,X @ 0655 = 2A         A:80 X:55
E430  3E 00 06  ROL $0600,X @ 0655 = 80         A:80 X:55       |       E430  3E 00 06  ROL $0600,X @ 0655 = 80         A:80 X:55
E433  BD 00 06  LDA $0600,X @ 0655 = 01         A:80 X:55       |       E433  BD 00 06  LDA $0600,X @ 0655 = 01         A:80 X:55
E436  20 10 FA  JSR $FA10                       A:01 X:55       |       E436  20 10 FA  JSR $FA10                       A:01 X:55
FA10  90 1C     BCC $FA2E                       A:01 X:55       |       FA10  90 1C     BCC $FA2E                       A:01 X:55
FA12  F0 1A     BEQ $FA2E                       A:01 X:55       |       FA12  F0 1A     BEQ $FA2E                       A:01 X:55
FA14  30 18     BMI $FA2E                       A:01 X:55       |       FA14  30 18     BMI $FA2E                       A:01 X:55
FA16  50 16     BVC $FA2E                       A:01 X:55       |       FA16  50 16     BVC $FA2E                       A:01 X:55
FA18  C9 01     CMP #$01                        A:01 X:55       |       FA18  C9 01     CMP #$01                        A:01 X:55
FA1A  D0 12     BNE $FA2E                       A:01 X:55       |       FA1A  D0 12     BNE $FA2E                       A:01 X:55
FA1C  B8        CLV                             A:01 X:55       |       FA1C  B8        CLV                             A:01 X:55
FA1D  18        CLC                             A:01 X:55       |       FA1D  18        CLC                             A:01 X:55
FA1E  A9 55     LDA #$55                        A:01 X:55       |       FA1E  A9 55     LDA #$55                        A:01 X:55
FA20  60        RTS                             A:55 X:55       |       FA20  60        RTS                             A:55 X:55
E439  C8        INY                             A:55 X:55       |       E439  C8        INY                             A:55 X:55
E43A  9D 00 06  STA $0600,X @ 0655 = 01         A:55 X:55       |       E43A  9D 00 06  STA $0600,X @ 0655 = 01         A:55 X:55
E43D  3E 00 06  ROL $0600,X @ 0655 = 55         A:55 X:55       |       E43D  3E 00 06  ROL $0600,X @ 0655 = 55         A:55 X:55
E440  BD 00 06  LDA $0600,X @ 0655 = AA         A:55 X:55       |       E440  BD 00 06  LDA $0600,X @ 0655 = AA         A:55 X:55
E443  20 21 FA  JSR $FA21                       A:AA X:55       |       E443  20 21 FA  JSR $FA21                       A:AA X:55
FA21  B0 0B     BCS $FA2E                       A:AA X:55       |       FA21  B0 0B     BCS $FA2E                       A:AA X:55
FA23  F0 09     BEQ $FA2E                       A:AA X:55       |       FA23  F0 09     BEQ $FA2E                       A:AA X:55
FA25  10 07     BPL $FA2E                       A:AA X:55       |       FA25  10 07     BPL $FA2E                       A:AA X:55
FA27  70 05     BVS $FA2E                       A:AA X:55       |       FA27  70 05     BVS $FA2E                       A:AA X:55
FA29  C9 AA     CMP #$AA                        A:AA X:55       |       FA29  C9 AA     CMP #$AA                        A:AA X:55
FA2B  D0 01     BNE $FA2E                       A:AA X:55       |       FA2B  D0 01     BNE $FA2E                       A:AA X:55
FA2D  60        RTS                             A:AA X:55       |       FA2D  60        RTS                             A:AA X:55
E446  A9 FF     LDA #$FF                        A:AA X:55       |       E446  A9 FF     LDA #$FF                        A:AA X:55
E448  9D 00 06  STA $0600,X @ 0655 = AA         A:FF X:55       |       E448  9D 00 06  STA $0600,X @ 0655 = AA         A:FF X:55
E44B  85 01     STA $01 = FF                    A:FF X:55       |       E44B  85 01     STA $01 = FF                    A:FF X:55
E44D  24 01     BIT $01 = FF                    A:FF X:55       |       E44D  24 01     BIT $01 = FF                    A:FF X:55
E44F  38        SEC                             A:FF X:55       |       E44F  38        SEC                             A:FF X:55
E450  FE 00 06  INC $0600,X @ 0655 = FF         A:FF X:55       |       E450  FE 00 06  INC $0600,X @ 0655 = FF         A:FF X:55
E453  D0 0D     BNE $E462                       A:FF X:55       |       E453  D0 0D     BNE $E462                       A:FF X:55
E455  30 0B     BMI $E462                       A:FF X:55       |       E455  30 0B     BMI $E462                       A:FF X:55
E457  50 09     BVC $E462                       A:FF X:55       |       E457  50 09     BVC $E462                       A:FF X:55
E459  90 07     BCC $E462                       A:FF X:55       |       E459  90 07     BCC $E462                       A:FF X:55
E45B  BD 00 06  LDA $0600,X @ 0655 = 00         A:FF X:55       |       E45B  BD 00 06  LDA $0600,X @ 0655 = 00         A:FF X:55
E45E  C9 00     CMP #$00                        A:00 X:55       |       E45E  C9 00     CMP #$00                        A:00 X:55
E460  F0 04     BEQ $E466                       A:00 X:55       |       E460  F0 04     BEQ $E466                       A:00 X:55
E466  A9 7F     LDA #$7F                        A:00 X:55       |       E466  A9 7F     LDA #$7F                        A:00 X:55
E468  9D 00 06  STA $0600,X @ 0655 = 00         A:7F X:55       |       E468  9D 00 06  STA $0600,X @ 0655 = 00         A:7F X:55
E46B  B8        CLV                             A:7F X:55       |       E46B  B8        CLV                             A:7F X:55
E46C  18        CLC                             A:7F X:55       |       E46C  18        CLC                             A:7F X:55
E46D  FE 00 06  INC $0600,X @ 0655 = 7F         A:7F X:55       |       E46D  FE 00 06  INC $0600,X @ 0655 = 7F         A:7F X:55
E470  F0 0D     BEQ $E47F                       A:7F X:55       |       E470  F0 0D     BEQ $E47F                       A:7F X:55
E472  10 0B     BPL $E47F                       A:7F X:55       |       E472  10 0B     BPL $E47F                       A:7F X:55
E474  70 09     BVS $E47F                       A:7F X:55       |       E474  70 09     BVS $E47F                       A:7F X:55
E476  B0 07     BCS $E47F                       A:7F X:55       |       E476  B0 07     BCS $E47F                       A:7F X:55
E478  BD 00 06  LDA $0600,X @ 0655 = 80         A:7F X:55       |       E478  BD 00 06  LDA $0600,X @ 0655 = 80         A:7F X:55
E47B  C9 80     CMP #$80                        A:80 X:55       |       E47B  C9 80     CMP #$80                        A:80 X:55
E47D  F0 04     BEQ $E483                       A:80 X:55       |       E47D  F0 04     BEQ $E483                       A:80 X:55
E483  A9 00     LDA #$00                        A:80 X:55       |       E483  A9 00     LDA #$00                        A:80 X:55
E485  9D 00 06  STA $0600,X @ 0655 = 80         A:00 X:55       |       E485  9D 00 06  STA $0600,X @ 0655 = 80         A:00 X:55
E488  24 01     BIT $01 = FF                    A:00 X:55       |       E488  24 01     BIT $01 = FF                    A:00 X:55
E48A  38        SEC                             A:00 X:55       |       E48A  38        SEC                             A:00 X:55
E48B  DE 00 06  DEC $0600,X @ 0655 = 00         A:00 X:55       |       E48B  DE 00 06  DEC $0600,X @ 0655 = 00         A:00 X:55
E48E  F0 0D     BEQ $E49D                       A:00 X:55       |       E48E  F0 0D     BEQ $E49D                       A:00 X:55
E490  10 0B     BPL $E49D                       A:00 X:55       |       E490  10 0B     BPL $E49D                       A:00 X:55
E492  50 09     BVC $E49D                       A:00 X:55       |       E492  50 09     BVC $E49D                       A:00 X:55
E494  90 07     BCC $E49D                       A:00 X:55       |       E494  90 07     BCC $E49D                       A:00 X:55
E496  BD 00 06  LDA $0600,X @ 0655 = FF         A:00 X:55       |       E496  BD 00 06  LDA $0600,X @ 0655 = FF         A:00 X:55
E499  C9 FF     CMP #$FF                        A:FF X:55       |       E499  C9 FF     CMP #$FF                        A:FF X:55
E49B  F0 04     BEQ $E4A1                       A:FF X:55       |       E49B  F0 04     BEQ $E4A1                       A:FF X:55
E4A1  A9 80     LDA #$80                        A:FF X:55       |       E4A1  A9 80     LDA #$80                        A:FF X:55
E4A3  9D 00 06  STA $0600,X @ 0655 = FF         A:80 X:55       |       E4A3  9D 00 06  STA $0600,X @ 0655 = FF         A:80 X:55
E4A6  B8        CLV                             A:80 X:55       |       E4A6  B8        CLV                             A:80 X:55
E4A7  18        CLC                             A:80 X:55       |       E4A7  18        CLC                             A:80 X:55
E4A8  DE 00 06  DEC $0600,X @ 0655 = 80         A:80 X:55       |       E4A8  DE 00 06  DEC $0600,X @ 0655 = 80         A:80 X:55
E4AB  F0 0D     BEQ $E4BA                       A:80 X:55       |       E4AB  F0 0D     BEQ $E4BA                       A:80 X:55
E4AD  30 0B     BMI $E4BA                       A:80 X:55       |       E4AD  30 0B     BMI $E4BA                       A:80 X:55
E4AF  70 09     BVS $E4BA                       A:80 X:55       |       E4AF  70 09     BVS $E4BA                       A:80 X:55
E4B1  B0 07     BCS $E4BA                       A:80 X:55       |       E4B1  B0 07     BCS $E4BA                       A:80 X:55
E4B3  BD 00 06  LDA $0600,X @ 0655 = 7F         A:80 X:55       |       E4B3  BD 00 06  LDA $0600,X @ 0655 = 7F         A:80 X:55
E4B6  C9 7F     CMP #$7F                        A:7F X:55       |       E4B6  C9 7F     CMP #$7F                        A:7F X:55
E4B8  F0 04     BEQ $E4BE                       A:7F X:55       |       E4B8  F0 04     BEQ $E4BE                       A:7F X:55
E4BE  A9 01     LDA #$01                        A:7F X:55       |       E4BE  A9 01     LDA #$01                        A:7F X:55
E4C0  9D 00 06  STA $0600,X @ 0655 = 7F         A:01 X:55       |       E4C0  9D 00 06  STA $0600,X @ 0655 = 7F         A:01 X:55
E4C3  DE 00 06  DEC $0600,X @ 0655 = 01         A:01 X:55       |       E4C3  DE 00 06  DEC $0600,X @ 0655 = 01         A:01 X:55
E4C6  F0 04     BEQ $E4CC                       A:01 X:55       |       E4C6  F0 04     BEQ $E4CC                       A:01 X:55
E4CC  A9 33     LDA #$33                        A:01 X:55       |       E4CC  A9 33     LDA #$33                        A:01 X:55
E4CE  8D 78 06  STA $0678 = 7F                  A:33 X:55       |       E4CE  8D 78 06  STA $0678 = 7F                  A:33 X:55
E4D1  A9 44     LDA #$44                        A:33 X:55       |       E4D1  A9 44     LDA #$44                        A:33 X:55
E4D3  A0 78     LDY #$78                        A:44 X:55       |       E4D3  A0 78     LDY #$78                        A:44 X:55
E4D5  A2 00     LDX #$00                        A:44 X:55       |       E4D5  A2 00     LDX #$00                        A:44 X:55
E4D7  38        SEC                             A:44 X:00       |       E4D7  38        SEC                             A:44 X:00
E4D8  24 01     BIT $01 = FF                    A:44 X:00       |       E4D8  24 01     BIT $01 = FF                    A:44 X:00
E4DA  BE 00 06  LDX $0600,Y @ 0678 = 33         A:44 X:00       |       E4DA  BE 00 06  LDX $0600,Y @ 0678 = 33         A:44 X:00
E4DD  90 12     BCC $E4F1                       A:44 X:33       |       E4DD  90 12     BCC $E4F1                       A:44 X:33
E4DF  50 10     BVC $E4F1                       A:44 X:33       |       E4DF  50 10     BVC $E4F1                       A:44 X:33
E4E1  30 0E     BMI $E4F1                       A:44 X:33       |       E4E1  30 0E     BMI $E4F1                       A:44 X:33
E4E3  F0 0C     BEQ $E4F1                       A:44 X:33       |       E4E3  F0 0C     BEQ $E4F1                       A:44 X:33
E4E5  E0 33     CPX #$33                        A:44 X:33       |       E4E5  E0 33     CPX #$33                        A:44 X:33
E4E7  D0 08     BNE $E4F1                       A:44 X:33       |       E4E7  D0 08     BNE $E4F1                       A:44 X:33
E4E9  C0 78     CPY #$78                        A:44 X:33       |       E4E9  C0 78     CPY #$78                        A:44 X:33
E4EB  D0 04     BNE $E4F1                       A:44 X:33       |       E4EB  D0 04     BNE $E4F1                       A:44 X:33
E4ED  C9 44     CMP #$44                        A:44 X:33       |       E4ED  C9 44     CMP #$44                        A:44 X:33
E4EF  F0 04     BEQ $E4F5                       A:44 X:33       |       E4EF  F0 04     BEQ $E4F5                       A:44 X:33
E4F5  A9 97     LDA #$97                        A:44 X:33       |       E4F5  A9 97     LDA #$97                        A:44 X:33
E4F7  8D 7F 06  STA $067F = 00                  A:97 X:33       |       E4F7  8D 7F 06  STA $067F = 00                  A:97 X:33
E4FA  A9 47     LDA #$47                        A:97 X:33       |       E4FA  A9 47     LDA #$47                        A:97 X:33
E4FC  A0 FF     LDY #$FF                        A:47 X:33       |       E4FC  A0 FF     LDY #$FF                        A:47 X:33
E4FE  A2 00     LDX #$00                        A:47 X:33       |       E4FE  A2 00     LDX #$00                        A:47 X:33
E500  18        CLC                             A:47 X:00       |       E500  18        CLC                             A:47 X:00
E501  B8        CLV                             A:47 X:00       |       E501  B8        CLV                             A:47 X:00
E502  BE 80 05  LDX $0580,Y @ 067F = 97         A:47 X:00       |       E502  BE 80 05  LDX $0580,Y @ 067F = 97         A:47 X:00
E505  B0 12     BCS $E519                       A:47 X:97       |       E505  B0 12     BCS $E519                       A:47 X:97
E507  70 10     BVS $E519                       A:47 X:97       |       E507  70 10     BVS $E519                       A:47 X:97
E509  10 0E     BPL $E519                       A:47 X:97       |       E509  10 0E     BPL $E519                       A:47 X:97
E50B  F0 0C     BEQ $E519                       A:47 X:97       |       E50B  F0 0C     BEQ $E519                       A:47 X:97
E50D  E0 97     CPX #$97                        A:47 X:97       |       E50D  E0 97     CPX #$97                        A:47 X:97
E50F  D0 08     BNE $E519                       A:47 X:97       |       E50F  D0 08     BNE $E519                       A:47 X:97
E511  C0 FF     CPY #$FF                        A:47 X:97       |       E511  C0 FF     CPY #$FF                        A:47 X:97
E513  D0 04     BNE $E519                       A:47 X:97       |       E513  D0 04     BNE $E519                       A:47 X:97
E515  C9 47     CMP #$47                        A:47 X:97       |       E515  C9 47     CMP #$47                        A:47 X:97
E517  F0 04     BEQ $E51D                       A:47 X:97       |       E517  F0 04     BEQ $E51D                       A:47 X:97
E51D  60        RTS                             A:47 X:97       |       E51D  60        RTS                             A:47 X:97
C62F  20 A3 C6  JSR $C6A3                       A:47 X:97       |       C62F  20 A3 C6  JSR $C6A3                       A:47 X:97
C6A3  A0 4E     LDY #$4E                        A:47 X:97       |       C6A3  A0 4E     LDY #$4E                        A:47 X:97
C6A5  A9 FF     LDA #$FF                        A:47 X:97       |       C6A5  A9 FF     LDA #$FF                        A:47 X:97
C6A7  85 01     STA $01 = FF                    A:FF X:97       |       C6A7  85 01     STA $01 = FF                    A:FF X:97
C6A9  20 B0 C6  JSR $C6B0                       A:FF X:97       |       C6A9  20 B0 C6  JSR $C6B0                       A:FF X:97
C6B0  A9 FF     LDA #$FF                        A:FF X:97       |       C6B0  A9 FF     LDA #$FF                        A:FF X:97
C6B2  48        PHA                             A:FF X:97       |       C6B2  48        PHA                             A:FF X:97
C6B3  A9 AA     LDA #$AA                        A:FF X:97       |       C6B3  A9 AA     LDA #$AA                        A:FF X:97
C6B5  D0 05     BNE $C6BC                       A:AA X:97       |       C6B5  D0 05     BNE $C6BC                       A:AA X:97
C6BC  28        PLP                             A:AA X:97       |       C6BC  28        PLP                             A:AA X:97
								>       C6BD  04 A9    *NOP $A9 = 00                    A:AA X:97
								>       C6BF  44 A9    *NOP $A9 = 00                    A:AA X:97
								>       C6C1  64 A9    *NOP $A9 = 00                    A:AA X:97
								>       C6C3  EA        NOP                             A:AA X:97
								>       C6C4  EA        NOP                             A:AA X:97
								>       C6C5  EA        NOP                             A:AA X:97
								>       C6C6  EA        NOP                             A:AA X:97
								>       C6C7  08        PHP                             A:AA X:97
								>       C6C8  48        PHA                             A:AA X:97
								>       C6C9  0C A9 A9 *NOP $A9A9 = A9                  A:AA X:97
								>       C6CC  EA        NOP                             A:AA X:97
								>       C6CD  EA        NOP                             A:AA X:97
								>       C6CE  EA        NOP                             A:AA X:97
								>       C6CF  EA        NOP                             A:AA X:97
								>       C6D0  08        PHP                             A:AA X:97
								>       C6D1  48        PHA                             A:AA X:97
								>       C6D2  14 A9    *NOP $A9,X @ 40 = 00             A:AA X:97
								>       C6D4  34 A9    *NOP $A9,X @ 40 = 00             A:AA X:97
								>       C6D6  54 A9    *NOP $A9,X @ 40 = 00             A:AA X:97
								>       C6D8  74 A9    *NOP $A9,X @ 40 = 00             A:AA X:97
								>       C6DA  D4 A9    *NOP $A9,X @ 40 = 00             A:AA X:97
								>       C6DC  F4 A9    *NOP $A9,X @ 40 = 00             A:AA X:97
								>       C6DE  EA        NOP                             A:AA X:97
								>       C6DF  EA        NOP                             A:AA X:97
								>       C6E0  EA        NOP                             A:AA X:97
								>       C6E1  EA        NOP                             A:AA X:97
								>       C6E2  08        PHP                             A:AA X:97
								>       C6E3  48        PHA                             A:AA X:97
								>       C6E4  1A       *NOP                             A:AA X:97
								>       C6E5  3A       *NOP                             A:AA X:97
								>       C6E6  5A       *NOP                             A:AA X:97
								>       C6E7  7A       *NOP                             A:AA X:97
								>       C6E8  DA       *NOP                             A:AA X:97
								>       C6E9  FA       *NOP                             A:AA X:97
								>       C6EA  80 89    *NOP #$89                        A:AA X:97
								>       C6EC  EA        NOP                             A:AA X:97
								>       C6ED  EA        NOP                             A:AA X:97
								>       C6EE  EA        NOP                             A:AA X:97
								>       C6EF  EA        NOP                             A:AA X:97
								>       C6F0  08        PHP                             A:AA X:97
								>       C6F1  48        PHA                             A:AA X:97
								>       C6F2  1C A9 A9 *NOP $A9A9,X @ AA40 = 00         A:AA X:97
								>       C6F5  3C A9 A9 *NOP $A9A9,X @ AA40 = 00         A:AA X:97
								>       C6F8  5C A9 A9 *NOP $A9A9,X @ AA40 = 00         A:AA X:97
								>       C6FB  7C A9 A9 *NOP $A9A9,X @ AA40 = 00         A:AA X:97
								>       C6FE  DC A9 A9 *NOP $A9A9,X @ AA40 = 00         A:AA X:97
								>       C701  FC A9 A9 *NOP $A9A9,X @ AA40 = 00         A:AA X:97
								>       C704  EA        NOP                             A:AA X:97
								>       C705  EA        NOP                             A:AA X:97
								>       C706  EA        NOP                             A:AA X:97
								>       C707  EA        NOP                             A:AA X:97
								>       C708  08        PHP                             A:AA X:97
								>       C709  48        PHA                             A:AA X:97
								>       C70A  A2 05     LDX #$05                        A:AA X:97
								>       C70C  68        PLA                             A:AA X:05
								>       C70D  C9 55     CMP #$55                        A:AA X:05
								>       C70F  F0 0A     BEQ $C71B                       A:AA X:05
								>       C711  C9 AA     CMP #$AA                        A:AA X:05
								>       C713  F0 06     BEQ $C71B                       A:AA X:05
								>       C71B  68        PLA                             A:AA X:05
								>       C71C  29 CB     AND #$CB                        A:FF X:05
								>       C71E  C9 00     CMP #$00                        A:CB X:05
								>       C720  F0 06     BEQ $C728                       A:CB X:05
								>       C722  C9 CB     CMP #$CB                        A:CB X:05
								>       C724  F0 02     BEQ $C728                       A:CB X:05
								>       C728  C8        INY                             A:CB X:05
								>       C729  CA        DEX                             A:CB X:05
								>       C72A  D0 E0     BNE $C70C                       A:CB X:04
								>       C70C  68        PLA                             A:CB X:04
								>       C70D  C9 55     CMP #$55                        A:AA X:04
								>       C70F  F0 0A     BEQ $C71B                       A:AA X:04
								>       C711  C9 AA     CMP #$AA                        A:AA X:04
								>       C713  F0 06     BEQ $C71B                       A:AA X:04
								>       C71B  68        PLA                             A:AA X:04
								>       C71C  29 CB     AND #$CB                        A:FF X:04
								>       C71E  C9 00     CMP #$00                        A:CB X:04
								>       C720  F0 06     BEQ $C728                       A:CB X:04
								>       C722  C9 CB     CMP #$CB                        A:CB X:04
								>       C724  F0 02     BEQ $C728                       A:CB X:04
								>       C728  C8        INY                             A:CB X:04
								>       C729  CA        DEX                             A:CB X:04
								>       C72A  D0 E0     BNE $C70C                       A:CB X:03
								>       C70C  68        PLA                             A:CB X:03
								>       C70D  C9 55     CMP #$55                        A:AA X:03
								>       C70F  F0 0A     BEQ $C71B                       A:AA X:03
								>       C711  C9 AA     CMP #$AA                        A:AA X:03
								>       C713  F0 06     BEQ $C71B                       A:AA X:03
								>       C71B  68        PLA                             A:AA X:03
								>       C71C  29 CB     AND #$CB                        A:FF X:03
								>       C71E  C9 00     CMP #$00                        A:CB X:03
								>       C720  F0 06     BEQ $C728                       A:CB X:03
								>       C722  C9 CB     CMP #$CB                        A:CB X:03
								>       C724  F0 02     BEQ $C728                       A:CB X:03
								>       C728  C8        INY                             A:CB X:03
								>       C729  CA        DEX                             A:CB X:03
								>       C72A  D0 E0     BNE $C70C                       A:CB X:02
								>       C70C  68        PLA                             A:CB X:02
								>       C70D  C9 55     CMP #$55                        A:AA X:02
								>       C70F  F0 0A     BEQ $C71B                       A:AA X:02
								>       C711  C9 AA     CMP #$AA                        A:AA X:02
								>       C713  F0 06     BEQ $C71B                       A:AA X:02
								>       C71B  68        PLA                             A:AA X:02
								>       C71C  29 CB     AND #$CB                        A:FF X:02
								>       C71E  C9 00     CMP #$00                        A:CB X:02
								>       C720  F0 06     BEQ $C728                       A:CB X:02
								>       C722  C9 CB     CMP #$CB                        A:CB X:02
								>       C724  F0 02     BEQ $C728                       A:CB X:02
								>       C728  C8        INY                             A:CB X:02
								>       C729  CA        DEX                             A:CB X:02
								>       C72A  D0 E0     BNE $C70C                       A:CB X:01
								>       C70C  68        PLA                             A:CB X:01
								>       C70D  C9 55     CMP #$55                        A:AA X:01
								>       C70F  F0 0A     BEQ $C71B                       A:AA X:01
								>       C711  C9 AA     CMP #$AA                        A:AA X:01
								>       C713  F0 06     BEQ $C71B                       A:AA X:01
								>       C71B  68        PLA                             A:AA X:01
								>       C71C  29 CB     AND #$CB                        A:FF X:01
								>       C71E  C9 00     CMP #$00                        A:CB X:01
								>       C720  F0 06     BEQ $C728                       A:CB X:01
								>       C722  C9 CB     CMP #$CB                        A:CB X:01
								>       C724  F0 02     BEQ $C728                       A:CB X:01
								>       C728  C8        INY                             A:CB X:01
								>       C729  CA        DEX                             A:CB X:01
								>       C72A  D0 E0     BNE $C70C                       A:CB X:00
								>       C72C  60        RTS                             A:CB X:00
								>       C6AC  20 B7 C6  JSR $C6B7                       A:CB X:00
								>       C6B7  A9 34     LDA #$34                        A:CB X:00
								>       C6B9  48        PHA                             A:34 X:00
								>       C6BA  A9 55     LDA #$55                        A:34 X:00
								>       C6BC  28        PLP                             A:55 X:00
								>       C6BD  04 A9    *NOP $A9 = 00                    A:55 X:00
								>       C6BF  44 A9    *NOP $A9 = 00                    A:55 X:00
								>       C6C1  64 A9    *NOP $A9 = 00                    A:55 X:00
								>       C6C3  EA        NOP                             A:55 X:00
								>       C6C4  EA        NOP                             A:55 X:00
								>       C6C5  EA        NOP                             A:55 X:00
								>       C6C6  EA        NOP                             A:55 X:00
								>       C6C7  08        PHP                             A:55 X:00
								>       C6C8  48        PHA                             A:55 X:00
								>       C6C9  0C A9 A9 *NOP $A9A9 = A9                  A:55 X:00
								>       C6CC  EA        NOP                             A:55 X:00
								>       C6CD  EA        NOP                             A:55 X:00
								>       C6CE  EA        NOP                             A:55 X:00
								>       C6CF  EA        NOP                             A:55 X:00
								>       C6D0  08        PHP                             A:55 X:00
								>       C6D1  48        PHA                             A:55 X:00
								>       C6D2  14 A9    *NOP $A9,X @ A9 = 00             A:55 X:00
								>       C6D4  34 A9    *NOP $A9,X @ A9 = 00             A:55 X:00
								>       C6D6  54 A9    *NOP $A9,X @ A9 = 00             A:55 X:00
								>       C6D8  74 A9    *NOP $A9,X @ A9 = 00             A:55 X:00
								>       C6DA  D4 A9    *NOP $A9,X @ A9 = 00             A:55 X:00
								>       C6DC  F4 A9    *NOP $A9,X @ A9 = 00             A:55 X:00
								>       C6DE  EA        NOP                             A:55 X:00
								>       C6DF  EA        NOP                             A:55 X:00
								>       C6E0  EA        NOP                             A:55 X:00
								>       C6E1  EA        NOP                             A:55 X:00
								>       C6E2  08        PHP                             A:55 X:00
								>       C6E3  48        PHA                             A:55 X:00
								>       C6E4  1A       *NOP                             A:55 X:00
								>       C6E5  3A       *NOP                             A:55 X:00
								>       C6E6  5A       *NOP                             A:55 X:00
								>       C6E7  7A       *NOP                             A:55 X:00
								>       C6E8  DA       *NOP                             A:55 X:00
								>       C6E9  FA       *NOP                             A:55 X:00
								>       C6EA  80 89    *NOP #$89                        A:55 X:00
								>       C6EC  EA        NOP                             A:55 X:00
								>       C6ED  EA        NOP                             A:55 X:00
								>       C6EE  EA        NOP                             A:55 X:00
								>       C6EF  EA        NOP                             A:55 X:00
								>       C6F0  08        PHP                             A:55 X:00
								>       C6F1  48        PHA                             A:55 X:00
								>       C6F2  1C A9 A9 *NOP $A9A9,X @ A9A9 = A9         A:55 X:00
								>       C6F5  3C A9 A9 *NOP $A9A9,X @ A9A9 = A9         A:55 X:00
								>       C6F8  5C A9 A9 *NOP $A9A9,X @ A9A9 = A9         A:55 X:00
								>       C6FB  7C A9 A9 *NOP $A9A9,X @ A9A9 = A9         A:55 X:00
								>       C6FE  DC A9 A9 *NOP $A9A9,X @ A9A9 = A9         A:55 X:00
								>       C701  FC A9 A9 *NOP $A9A9,X @ A9A9 = A9         A:55 X:00
								>       C704  EA        NOP                             A:55 X:00
								>       C705  EA        NOP                             A:55 X:00
								>       C706  EA        NOP                             A:55 X:00
								>       C707  EA        NOP                             A:55 X:00
								>       C708  08        PHP                             A:55 X:00
								>       C709  48        PHA                             A:55 X:00
								>       C70A  A2 05     LDX #$05                        A:55 X:00
								>       C70C  68        PLA                             A:55 X:05
								>       C70D  C9 55     CMP #$55                        A:55 X:05
								>       C70F  F0 0A     BEQ $C71B                       A:55 X:05
								>       C71B  68        PLA                             A:55 X:05
								>       C71C  29 CB     AND #$CB                        A:34 X:05
								>       C71E  C9 00     CMP #$00                        A:00 X:05
								>       C720  F0 06     BEQ $C728                       A:00 X:05
								>       C728  C8        INY                             A:00 X:05
								>       C729  CA        DEX                             A:00 X:05
								>       C72A  D0 E0     BNE $C70C                       A:00 X:04
								>       C70C  68        PLA                             A:00 X:04
								>       C70D  C9 55     CMP #$55                        A:55 X:04
								>       C70F  F0 0A     BEQ $C71B                       A:55 X:04
								>       C71B  68        PLA                             A:55 X:04
								>       C71C  29 CB     AND #$CB                        A:34 X:04
								>       C71E  C9 00     CMP #$00                        A:00 X:04
								>       C720  F0 06     BEQ $C728                       A:00 X:04
								>       C728  C8        INY                             A:00 X:04
								>       C729  CA        DEX                             A:00 X:04
								>       C72A  D0 E0     BNE $C70C                       A:00 X:03
								>       C70C  68        PLA                             A:00 X:03
								>       C70D  C9 55     CMP #$55                        A:55 X:03
								>       C70F  F0 0A     BEQ $C71B                       A:55 X:03
								>       C71B  68        PLA                             A:55 X:03
								>       C71C  29 CB     AND #$CB                        A:34 X:03
								>       C71E  C9 00     CMP #$00                        A:00 X:03
								>       C720  F0 06     BEQ $C728                       A:00 X:03
								>       C728  C8        INY                             A:00 X:03
								>       C729  CA        DEX                             A:00 X:03
								>       C72A  D0 E0     BNE $C70C                       A:00 X:02
								>       C70C  68        PLA                             A:00 X:02
								>       C70D  C9 55     CMP #$55                        A:55 X:02
								>       C70F  F0 0A     BEQ $C71B                       A:55 X:02
								>       C71B  68        PLA                             A:55 X:02
								>       C71C  29 CB     AND #$CB                        A:34 X:02
								>       C71E  C9 00     CMP #$00                        A:00 X:02
								>       C720  F0 06     BEQ $C728                       A:00 X:02
								>       C728  C8        INY                             A:00 X:02
								>       C729  CA        DEX                             A:00 X:02
								>       C72A  D0 E0     BNE $C70C                       A:00 X:01
								>       C70C  68        PLA                             A:00 X:01
								>       C70D  C9 55     CMP #$55                        A:55 X:01
								>       C70F  F0 0A     BEQ $C71B                       A:55 X:01
								>       C71B  68        PLA                             A:55 X:01
								>       C71C  29 CB     AND #$CB                        A:34 X:01
								>       C71E  C9 00     CMP #$00                        A:00 X:01
								>       C720  F0 06     BEQ $C728                       A:00 X:01
								>       C728  C8        INY                             A:00 X:01
								>       C729  CA        DEX                             A:00 X:01
								>       C72A  D0 E0     BNE $C70C                       A:00 X:00
								>       C72C  60        RTS                             A:00 X:00
								>       C6AF  60        RTS                             A:00 X:00
								>       C632  20 1E E5  JSR $E51E                       A:00 X:00
								>       E51E  A9 55     LDA #$55                        A:00 X:00
								>       E520  8D 80 05  STA $0580 = 00                  A:55 X:00
								>       E523  A9 AA     LDA #$AA                        A:55 X:00
								>       E525  8D 32 04  STA $0432 = 00                  A:AA X:00
								>       E528  A9 80     LDA #$80                        A:AA X:00
								>       E52A  85 43     STA $43 = 00                    A:80 X:00
								>       E52C  A9 05     LDA #$05                        A:80 X:00
								>       E52E  85 44     STA $44 = 00                    A:05 X:00
								>       E530  A9 32     LDA #$32                        A:05 X:00
								>       E532  85 45     STA $45 = 00                    A:32 X:00
								>       E534  A9 04     LDA #$04                        A:32 X:00
								>       E536  85 46     STA $46 = 00                    A:04 X:00
								>       E538  A2 03     LDX #$03                        A:04 X:00
								>       E53A  A0 77     LDY #$77                        A:04 X:03
								>       E53C  A9 FF     LDA #$FF                        A:04 X:03
								>       E53E  85 01     STA $01 = FF                    A:FF X:03
								>       E540  24 01     BIT $01 = FF                    A:FF X:03
								>       E542  38        SEC                             A:FF X:03
								>       E543  A9 00     LDA #$00                        A:FF X:03
								>       E545  A3 40    *LAX ($40,X) @ 43 = 0580 = 55    A:00 X:03
								>       E547  EA        NOP                             A:55 X:55
								>       E548  EA        NOP                             A:55 X:55
								>       E549  EA        NOP                             A:55 X:55
								>       E54A  EA        NOP                             A:55 X:55
								>       E54B  F0 12     BEQ $E55F                       A:55 X:55
								>       E54D  30 10     BMI $E55F                       A:55 X:55
								>       E54F  50 0E     BVC $E55F                       A:55 X:55
								>       E551  90 0C     BCC $E55F                       A:55 X:55
								>       E553  C9 55     CMP #$55                        A:55 X:55
								>       E555  D0 08     BNE $E55F                       A:55 X:55
								>       E557  E0 55     CPX #$55                        A:55 X:55
								>       E559  D0 04     BNE $E55F                       A:55 X:55
								>       E55B  C0 77     CPY #$77                        A:55 X:55
								>       E55D  F0 04     BEQ $E563                       A:55 X:55
								>       E563  A2 05     LDX #$05                        A:55 X:55
								>       E565  A0 33     LDY #$33                        A:55 X:05
								>       E567  B8        CLV                             A:55 X:05
								>       E568  18        CLC                             A:55 X:05
								>       E569  A9 00     LDA #$00                        A:55 X:05
								>       E56B  A3 40    *LAX ($40,X) @ 45 = 0432 = AA    A:00 X:05
								>       E56D  EA        NOP                             A:AA X:AA
								>       E56E  EA        NOP                             A:AA X:AA
								>       E56F  EA        NOP                             A:AA X:AA
								>       E570  EA        NOP                             A:AA X:AA
								>       E571  F0 12     BEQ $E585                       A:AA X:AA
								>       E573  10 10     BPL $E585                       A:AA X:AA
								>       E575  70 0E     BVS $E585                       A:AA X:AA
								>       E577  B0 0C     BCS $E585                       A:AA X:AA
								>       E579  C9 AA     CMP #$AA                        A:AA X:AA
								>       E57B  D0 08     BNE $E585                       A:AA X:AA
								>       E57D  E0 AA     CPX #$AA                        A:AA X:AA
								>       E57F  D0 04     BNE $E585                       A:AA X:AA
								>       E581  C0 33     CPY #$33                        A:AA X:AA
								>       E583  F0 04     BEQ $E589                       A:AA X:AA
								>       E589  A9 87     LDA #$87                        A:AA X:AA
								>       E58B  85 67     STA $67 = 00                    A:87 X:AA
								>       E58D  A9 32     LDA #$32                        A:87 X:AA
								>       E58F  85 68     STA $68 = 00                    A:32 X:AA
								>       E591  A0 57     LDY #$57                        A:32 X:AA
								>       E593  24 01     BIT $01 = FF                    A:32 X:AA
								>       E595  38        SEC                             A:32 X:AA
								>       E596  A9 00     LDA #$00                        A:32 X:AA
								>       E598  A7 67    *LAX $67 = 87                    A:00 X:AA
								>       E59A  EA        NOP                             A:87 X:87
								>       E59B  EA        NOP                             A:87 X:87
								>       E59C  EA        NOP                             A:87 X:87
								>       E59D  EA        NOP                             A:87 X:87
								>       E59E  F0 12     BEQ $E5B2                       A:87 X:87
								>       E5A0  10 10     BPL $E5B2                       A:87 X:87
								>       E5A2  50 0E     BVC $E5B2                       A:87 X:87
								>       E5A4  90 0C     BCC $E5B2                       A:87 X:87
								>       E5A6  C9 87     CMP #$87                        A:87 X:87
								>       E5A8  D0 08     BNE $E5B2                       A:87 X:87
								>       E5AA  E0 87     CPX #$87                        A:87 X:87
								>       E5AC  D0 04     BNE $E5B2                       A:87 X:87
								>       E5AE  C0 57     CPY #$57                        A:87 X:87
								>       E5B0  F0 04     BEQ $E5B6                       A:87 X:87
								>       E5B6  A0 53     LDY #$53                        A:87 X:87
								>       E5B8  B8        CLV                             A:87 X:87
								>       E5B9  18        CLC                             A:87 X:87
								>       E5BA  A9 00     LDA #$00                        A:87 X:87
								>       E5BC  A7 68    *LAX $68 = 32                    A:00 X:87
								>       E5BE  EA        NOP                             A:32 X:32
								>       E5BF  EA        NOP                             A:32 X:32
								>       E5C0  EA        NOP                             A:32 X:32
								>       E5C1  EA        NOP                             A:32 X:32
								>       E5C2  F0 12     BEQ $E5D6                       A:32 X:32
								>       E5C4  30 10     BMI $E5D6                       A:32 X:32
								>       E5C6  70 0E     BVS $E5D6                       A:32 X:32
								>       E5C8  B0 0C     BCS $E5D6                       A:32 X:32
								>       E5CA  C9 32     CMP #$32                        A:32 X:32
								>       E5CC  D0 08     BNE $E5D6                       A:32 X:32
								>       E5CE  E0 32     CPX #$32                        A:32 X:32
								>       E5D0  D0 04     BNE $E5D6                       A:32 X:32
								>       E5D2  C0 53     CPY #$53                        A:32 X:32
								>       E5D4  F0 04     BEQ $E5DA                       A:32 X:32
								>       E5DA  A9 87     LDA #$87                        A:32 X:32
								>       E5DC  8D 77 05  STA $0577 = 00                  A:87 X:32
								>       E5DF  A9 32     LDA #$32                        A:87 X:32
								>       E5E1  8D 78 05  STA $0578 = 00                  A:32 X:32
								>       E5E4  A0 57     LDY #$57                        A:32 X:32
								>       E5E6  24 01     BIT $01 = FF                    A:32 X:32
								>       E5E8  38        SEC                             A:32 X:32
								>       E5E9  A9 00     LDA #$00                        A:32 X:32
								>       E5EB  AF 77 05 *LAX $0577 = 87                  A:00 X:32
								>       E5EE  EA        NOP                             A:87 X:87
								>       E5EF  EA        NOP                             A:87 X:87
								>       E5F0  EA        NOP                             A:87 X:87
								>       E5F1  EA        NOP                             A:87 X:87
								>       E5F2  F0 12     BEQ $E606                       A:87 X:87
								>       E5F4  10 10     BPL $E606                       A:87 X:87
								>       E5F6  50 0E     BVC $E606                       A:87 X:87
								>       E5F8  90 0C     BCC $E606                       A:87 X:87
								>       E5FA  C9 87     CMP #$87                        A:87 X:87
								>       E5FC  D0 08     BNE $E606                       A:87 X:87
								>       E5FE  E0 87     CPX #$87                        A:87 X:87
								>       E600  D0 04     BNE $E606                       A:87 X:87
								>       E602  C0 57     CPY #$57                        A:87 X:87
								>       E604  F0 04     BEQ $E60A                       A:87 X:87
								>       E60A  A0 53     LDY #$53                        A:87 X:87
								>       E60C  B8        CLV                             A:87 X:87
								>       E60D  18        CLC                             A:87 X:87
								>       E60E  A9 00     LDA #$00                        A:87 X:87
								>       E610  AF 78 05 *LAX $0578 = 32                  A:00 X:87
								>       E613  EA        NOP                             A:32 X:32
								>       E614  EA        NOP                             A:32 X:32
								>       E615  EA        NOP                             A:32 X:32
								>       E616  EA        NOP                             A:32 X:32
								>       E617  F0 12     BEQ $E62B                       A:32 X:32
								>       E619  30 10     BMI $E62B                       A:32 X:32
								>       E61B  70 0E     BVS $E62B                       A:32 X:32
								>       E61D  B0 0C     BCS $E62B                       A:32 X:32
								>       E61F  C9 32     CMP #$32                        A:32 X:32
								>       E621  D0 08     BNE $E62B                       A:32 X:32
								>       E623  E0 32     CPX #$32                        A:32 X:32
								>       E625  D0 04     BNE $E62B                       A:32 X:32
								>       E627  C0 53     CPY #$53                        A:32 X:32
								>       E629  F0 04     BEQ $E62F                       A:32 X:32
								>       E62F  A9 FF     LDA #$FF                        A:32 X:32
								>       E631  85 43     STA $43 = 80                    A:FF X:32
								>       E633  A9 04     LDA #$04                        A:FF X:32
								>       E635  85 44     STA $44 = 05                    A:04 X:32
								>       E637  A9 32     LDA #$32                        A:04 X:32
								>       E639  85 45     STA $45 = 32                    A:32 X:32
								>       E63B  A9 04     LDA #$04                        A:32 X:32
								>       E63D  85 46     STA $46 = 04                    A:04 X:32
								>       E63F  A9 55     LDA #$55                        A:04 X:32
								>       E641  8D 80 05  STA $0580 = 55                  A:55 X:32
								>       E644  A9 AA     LDA #$AA                        A:55 X:32
								>       E646  8D 32 04  STA $0432 = AA                  A:AA X:32
								>       E649  A2 03     LDX #$03                        A:AA X:32
								>       E64B  A0 81     LDY #$81                        A:AA X:03
								>       E64D  24 01     BIT $01 = FF                    A:AA X:03
								>       E64F  38        SEC                             A:AA X:03
								>       E650  A9 00     LDA #$00                        A:AA X:03
								>       E652  B3 43    *LAX ($43),Y = 04FF @ 0580 = 55  A:00 X:03
								>       E654  EA        NOP                             A:55 X:55
								>       E655  EA        NOP                             A:55 X:55
								>       E656  EA        NOP                             A:55 X:55
								>       E657  EA        NOP                             A:55 X:55
								>       E658  F0 12     BEQ $E66C                       A:55 X:55
								>       E65A  30 10     BMI $E66C                       A:55 X:55
								>       E65C  50 0E     BVC $E66C                       A:55 X:55
								>       E65E  90 0C     BCC $E66C                       A:55 X:55
								>       E660  C9 55     CMP #$55                        A:55 X:55
								>       E662  D0 08     BNE $E66C                       A:55 X:55
								>       E664  E0 55     CPX #$55                        A:55 X:55
								>       E666  D0 04     BNE $E66C                       A:55 X:55
								>       E668  C0 81     CPY #$81                        A:55 X:55
								>       E66A  F0 04     BEQ $E670                       A:55 X:55
								>       E670  A2 05     LDX #$05                        A:55 X:55
								>       E672  A0 00     LDY #$00                        A:55 X:05
								>       E674  B8        CLV                             A:55 X:05
								>       E675  18        CLC                             A:55 X:05
								>       E676  A9 00     LDA #$00                        A:55 X:05
								>       E678  B3 45    *LAX ($45),Y = 0432 @ 0432 = AA  A:00 X:05
								>       E67A  EA        NOP                             A:AA X:AA
								>       E67B  EA        NOP                             A:AA X:AA
								>       E67C  EA        NOP                             A:AA X:AA
								>       E67D  EA        NOP                             A:AA X:AA
								>       E67E  F0 12     BEQ $E692                       A:AA X:AA
								>       E680  10 10     BPL $E692                       A:AA X:AA
								>       E682  70 0E     BVS $E692                       A:AA X:AA
								>       E684  B0 0C     BCS $E692                       A:AA X:AA
								>       E686  C9 AA     CMP #$AA                        A:AA X:AA
								>       E688  D0 08     BNE $E692                       A:AA X:AA
								>       E68A  E0 AA     CPX #$AA                        A:AA X:AA
								>       E68C  D0 04     BNE $E692                       A:AA X:AA
								>       E68E  C0 00     CPY #$00                        A:AA X:AA
								>       E690  F0 04     BEQ $E696                       A:AA X:AA
								>       E696  A9 87     LDA #$87                        A:AA X:AA
								>       E698  85 67     STA $67 = 87                    A:87 X:AA
								>       E69A  A9 32     LDA #$32                        A:87 X:AA
								>       E69C  85 68     STA $68 = 32                    A:32 X:AA
								>       E69E  A0 57     LDY #$57                        A:32 X:AA
								>       E6A0  24 01     BIT $01 = FF                    A:32 X:AA
								>       E6A2  38        SEC                             A:32 X:AA
								>       E6A3  A9 00     LDA #$00                        A:32 X:AA
								>       E6A5  B7 10    *LAX $10,Y @ 67 = 87             A:00 X:AA
								>       E6A7  EA        NOP                             A:87 X:87
								>       E6A8  EA        NOP                             A:87 X:87
								>       E6A9  EA        NOP                             A:87 X:87
								>       E6AA  EA        NOP                             A:87 X:87
								>       E6AB  F0 12     BEQ $E6BF                       A:87 X:87
								>       E6AD  10 10     BPL $E6BF                       A:87 X:87
								>       E6AF  50 0E     BVC $E6BF                       A:87 X:87
								>       E6B1  90 0C     BCC $E6BF                       A:87 X:87
								>       E6B3  C9 87     CMP #$87                        A:87 X:87
								>       E6B5  D0 08     BNE $E6BF                       A:87 X:87
								>       E6B7  E0 87     CPX #$87                        A:87 X:87
								>       E6B9  D0 04     BNE $E6BF                       A:87 X:87
								>       E6BB  C0 57     CPY #$57                        A:87 X:87
								>       E6BD  F0 04     BEQ $E6C3                       A:87 X:87
								>       E6C3  A0 FF     LDY #$FF                        A:87 X:87
								>       E6C5  B8        CLV                             A:87 X:87
								>       E6C6  18        CLC                             A:87 X:87
								>       E6C7  A9 00     LDA #$00                        A:87 X:87
								>       E6C9  B7 69    *LAX $69,Y @ 68 = 32             A:00 X:87
								>       E6CB  EA        NOP                             A:32 X:32
								>       E6CC  EA        NOP                             A:32 X:32
								>       E6CD  EA        NOP                             A:32 X:32
								>       E6CE  EA        NOP                             A:32 X:32
								>       E6CF  F0 12     BEQ $E6E3                       A:32 X:32
								>       E6D1  30 10     BMI $E6E3                       A:32 X:32
								>       E6D3  70 0E     BVS $E6E3                       A:32 X:32
								>       E6D5  B0 0C     BCS $E6E3                       A:32 X:32
								>       E6D7  C9 32     CMP #$32                        A:32 X:32
								>       E6D9  D0 08     BNE $E6E3                       A:32 X:32
								>       E6DB  E0 32     CPX #$32                        A:32 X:32
								>       E6DD  D0 04     BNE $E6E3                       A:32 X:32
								>       E6DF  C0 FF     CPY #$FF                        A:32 X:32
								>       E6E1  F0 04     BEQ $E6E7                       A:32 X:32
								>       E6E7  A9 87     LDA #$87                        A:32 X:32
								>       E6E9  8D 87 05  STA $0587 = 00                  A:87 X:32
								>       E6EC  A9 32     LDA #$32                        A:87 X:32
								>       E6EE  8D 88 05  STA $0588 = 00                  A:32 X:32
								>       E6F1  A0 30     LDY #$30                        A:32 X:32
								>       E6F3  24 01     BIT $01 = FF                    A:32 X:32
								>       E6F5  38        SEC                             A:32 X:32
								>       E6F6  A9 00     LDA #$00                        A:32 X:32
								>       E6F8  BF 57 05 *LAX $0557,Y @ 0587 = 87         A:00 X:32
								>       E6FB  EA        NOP                             A:87 X:87
								>       E6FC  EA        NOP                             A:87 X:87
								>       E6FD  EA        NOP                             A:87 X:87
								>       E6FE  EA        NOP                             A:87 X:87
								>       E6FF  F0 12     BEQ $E713                       A:87 X:87
								>       E701  10 10     BPL $E713                       A:87 X:87
								>       E703  50 0E     BVC $E713                       A:87 X:87
								>       E705  90 0C     BCC $E713                       A:87 X:87
								>       E707  C9 87     CMP #$87                        A:87 X:87
								>       E709  D0 08     BNE $E713                       A:87 X:87
								>       E70B  E0 87     CPX #$87                        A:87 X:87
								>       E70D  D0 04     BNE $E713                       A:87 X:87
								>       E70F  C0 30     CPY #$30                        A:87 X:87
								>       E711  F0 04     BEQ $E717                       A:87 X:87
								>       E717  A0 40     LDY #$40                        A:87 X:87
								>       E719  B8        CLV                             A:87 X:87
								>       E71A  18        CLC                             A:87 X:87
								>       E71B  A9 00     LDA #$00                        A:87 X:87
								>       E71D  BF 48 05 *LAX $0548,Y @ 0588 = 32         A:00 X:87
								>       E720  EA        NOP                             A:32 X:32
								>       E721  EA        NOP                             A:32 X:32
								>       E722  EA        NOP                             A:32 X:32
								>       E723  EA        NOP                             A:32 X:32
								>       E724  F0 12     BEQ $E738                       A:32 X:32
								>       E726  30 10     BMI $E738                       A:32 X:32
								>       E728  70 0E     BVS $E738                       A:32 X:32
								>       E72A  B0 0C     BCS $E738                       A:32 X:32
								>       E72C  C9 32     CMP #$32                        A:32 X:32
								>       E72E  D0 08     BNE $E738                       A:32 X:32
								>       E730  E0 32     CPX #$32                        A:32 X:32
								>       E732  D0 04     BNE $E738                       A:32 X:32
								>       E734  C0 40     CPY #$40                        A:32 X:32
								>       E736  F0 04     BEQ $E73C                       A:32 X:32
								>       E73C  60        RTS                             A:32 X:32
								>       C635  20 3D E7  JSR $E73D                       A:32 X:32
								>       E73D  A9 C0     LDA #$C0                        A:32 X:32
								>       E73F  85 01     STA $01 = FF                    A:C0 X:32
								>       E741  A9 00     LDA #$00                        A:C0 X:32
								>       E743  8D 89 04  STA $0489 = 00                  A:00 X:32
								>       E746  A9 89     LDA #$89                        A:00 X:32
								>       E748  85 60     STA $60 = 00                    A:89 X:32
								>       E74A  A9 04     LDA #$04                        A:89 X:32
								>       E74C  85 61     STA $61 = 00                    A:04 X:32
								>       E74E  A0 44     LDY #$44                        A:04 X:32
								>       E750  A2 17     LDX #$17                        A:04 X:32
								>       E752  A9 3E     LDA #$3E                        A:04 X:17
								>       E754  24 01     BIT $01 = C0                    A:3E X:17
								>       E756  18        CLC                             A:3E X:17
								>       E757  83 49    *SAX ($49,X) @ 60 = 0489 = 00    A:3E X:17
								>       E759  EA        NOP                             A:3E X:17
								>       E75A  EA        NOP                             A:3E X:17
								>       E75B  EA        NOP                             A:3E X:17
								>       E75C  EA        NOP                             A:3E X:17
								>       E75D  D0 19     BNE $E778                       A:3E X:17
								>       E75F  B0 17     BCS $E778                       A:3E X:17
								>       E761  50 15     BVC $E778                       A:3E X:17
								>       E763  10 13     BPL $E778                       A:3E X:17
								>       E765  C9 3E     CMP #$3E                        A:3E X:17
								>       E767  D0 0F     BNE $E778                       A:3E X:17
								>       E769  C0 44     CPY #$44                        A:3E X:17
								>       E76B  D0 0B     BNE $E778                       A:3E X:17
								>       E76D  E0 17     CPX #$17                        A:3E X:17
								>       E76F  D0 07     BNE $E778                       A:3E X:17
								>       E771  AD 89 04  LDA $0489 = 16                  A:3E X:17
								>       E774  C9 16     CMP #$16                        A:16 X:17
								>       E776  F0 04     BEQ $E77C                       A:16 X:17
								>       E77C  A0 44     LDY #$44                        A:16 X:17
								>       E77E  A2 7A     LDX #$7A                        A:16 X:17
								>       E780  A9 66     LDA #$66                        A:16 X:7A
								>       E782  38        SEC                             A:66 X:7A
								>       E783  B8        CLV                             A:66 X:7A
								>       E784  83 E6    *SAX ($E6,X) @ 60 = 0489 = 16    A:66 X:7A
								>       E786  EA        NOP                             A:66 X:7A
								>       E787  EA        NOP                             A:66 X:7A
								>       E788  EA        NOP                             A:66 X:7A
								>       E789  EA        NOP                             A:66 X:7A
								>       E78A  F0 19     BEQ $E7A5                       A:66 X:7A
								>       E78C  90 17     BCC $E7A5                       A:66 X:7A
								>       E78E  70 15     BVS $E7A5                       A:66 X:7A
								>       E790  30 13     BMI $E7A5                       A:66 X:7A
								>       E792  C9 66     CMP #$66                        A:66 X:7A
								>       E794  D0 0F     BNE $E7A5                       A:66 X:7A
								>       E796  C0 44     CPY #$44                        A:66 X:7A
								>       E798  D0 0B     BNE $E7A5                       A:66 X:7A
								>       E79A  E0 7A     CPX #$7A                        A:66 X:7A
								>       E79C  D0 07     BNE $E7A5                       A:66 X:7A
								>       E79E  AD 89 04  LDA $0489 = 62                  A:66 X:7A
								>       E7A1  C9 62     CMP #$62                        A:62 X:7A
								>       E7A3  F0 04     BEQ $E7A9                       A:62 X:7A
								>       E7A9  A9 FF     LDA #$FF                        A:62 X:7A
								>       E7AB  85 49     STA $49 = 00                    A:FF X:7A
								>       E7AD  A0 44     LDY #$44                        A:FF X:7A
								>       E7AF  A2 AA     LDX #$AA                        A:FF X:7A
								>       E7B1  A9 55     LDA #$55                        A:FF X:AA
								>       E7B3  24 01     BIT $01 = C0                    A:55 X:AA
								>       E7B5  18        CLC                             A:55 X:AA
								>       E7B6  87 49    *SAX $49 = FF                    A:55 X:AA
								>       E7B8  EA        NOP                             A:55 X:AA
								>       E7B9  EA        NOP                             A:55 X:AA
								>       E7BA  EA        NOP                             A:55 X:AA
								>       E7BB  EA        NOP                             A:55 X:AA
								>       E7BC  F0 18     BEQ $E7D6                       A:55 X:AA
								>       E7BE  B0 16     BCS $E7D6                       A:55 X:AA
								>       E7C0  50 14     BVC $E7D6                       A:55 X:AA
								>       E7C2  10 12     BPL $E7D6                       A:55 X:AA
								>       E7C4  C9 55     CMP #$55                        A:55 X:AA
								>       E7C6  D0 0E     BNE $E7D6                       A:55 X:AA
								>       E7C8  C0 44     CPY #$44                        A:55 X:AA
								>       E7CA  D0 0A     BNE $E7D6                       A:55 X:AA
								>       E7CC  E0 AA     CPX #$AA                        A:55 X:AA
								>       E7CE  D0 06     BNE $E7D6                       A:55 X:AA
								>       E7D0  A5 49     LDA $49 = 00                    A:55 X:AA
								>       E7D2  C9 00     CMP #$00                        A:00 X:AA
								>       E7D4  F0 04     BEQ $E7DA                       A:00 X:AA
								>       E7DA  A9 00     LDA #$00                        A:00 X:AA
								>       E7DC  85 56     STA $56 = 00                    A:00 X:AA
								>       E7DE  A0 58     LDY #$58                        A:00 X:AA
								>       E7E0  A2 EF     LDX #$EF                        A:00 X:AA
								>       E7E2  A9 66     LDA #$66                        A:00 X:EF
								>       E7E4  38        SEC                             A:66 X:EF
								>       E7E5  B8        CLV                             A:66 X:EF
								>       E7E6  87 56    *SAX $56 = 00                    A:66 X:EF
								>       E7E8  EA        NOP                             A:66 X:EF
								>       E7E9  EA        NOP                             A:66 X:EF
								>       E7EA  EA        NOP                             A:66 X:EF
								>       E7EB  EA        NOP                             A:66 X:EF
								>       E7EC  F0 18     BEQ $E806                       A:66 X:EF
								>       E7EE  90 16     BCC $E806                       A:66 X:EF
								>       E7F0  70 14     BVS $E806                       A:66 X:EF
								>       E7F2  30 12     BMI $E806                       A:66 X:EF
								>       E7F4  C9 66     CMP #$66                        A:66 X:EF
								>       E7F6  D0 0E     BNE $E806                       A:66 X:EF
								>       E7F8  C0 58     CPY #$58                        A:66 X:EF
								>       E7FA  D0 0A     BNE $E806                       A:66 X:EF
								>       E7FC  E0 EF     CPX #$EF                        A:66 X:EF
								>       E7FE  D0 06     BNE $E806                       A:66 X:EF
								>       E800  A5 56     LDA $56 = 66                    A:66 X:EF
								>       E802  C9 66     CMP #$66                        A:66 X:EF
								>       E804  F0 04     BEQ $E80A                       A:66 X:EF
								>       E80A  A9 FF     LDA #$FF                        A:66 X:EF
								>       E80C  8D 49 05  STA $0549 = 00                  A:FF X:EF
								>       E80F  A0 E5     LDY #$E5                        A:FF X:EF
								>       E811  A2 AF     LDX #$AF                        A:FF X:EF
								>       E813  A9 F5     LDA #$F5                        A:FF X:AF
								>       E815  24 01     BIT $01 = C0                    A:F5 X:AF
								>       E817  18        CLC                             A:F5 X:AF
								>       E818  8F 49 05 *SAX $0549 = FF                  A:F5 X:AF
								>       E81B  EA        NOP                             A:F5 X:AF
								>       E81C  EA        NOP                             A:F5 X:AF
								>       E81D  EA        NOP                             A:F5 X:AF
								>       E81E  EA        NOP                             A:F5 X:AF
								>       E81F  F0 19     BEQ $E83A                       A:F5 X:AF
								>       E821  B0 17     BCS $E83A                       A:F5 X:AF
								>       E823  50 15     BVC $E83A                       A:F5 X:AF
								>       E825  10 13     BPL $E83A                       A:F5 X:AF
								>       E827  C9 F5     CMP #$F5                        A:F5 X:AF
								>       E829  D0 0F     BNE $E83A                       A:F5 X:AF
								>       E82B  C0 E5     CPY #$E5                        A:F5 X:AF
								>       E82D  D0 0B     BNE $E83A                       A:F5 X:AF
								>       E82F  E0 AF     CPX #$AF                        A:F5 X:AF
								>       E831  D0 07     BNE $E83A                       A:F5 X:AF
								>       E833  AD 49 05  LDA $0549 = A5                  A:F5 X:AF
								>       E836  C9 A5     CMP #$A5                        A:A5 X:AF
								>       E838  F0 04     BEQ $E83E                       A:A5 X:AF
								>       E83E  A9 00     LDA #$00                        A:A5 X:AF
								>       E840  8D 56 05  STA $0556 = 00                  A:00 X:AF
								>       E843  A0 58     LDY #$58                        A:00 X:AF
								>       E845  A2 B3     LDX #$B3                        A:00 X:AF
								>       E847  A9 97     LDA #$97                        A:00 X:B3
								>       E849  38        SEC                             A:97 X:B3
								>       E84A  B8        CLV                             A:97 X:B3
								>       E84B  8F 56 05 *SAX $0556 = 00                  A:97 X:B3
								>       E84E  EA        NOP                             A:97 X:B3
								>       E84F  EA        NOP                             A:97 X:B3
								>       E850  EA        NOP                             A:97 X:B3
								>       E851  EA        NOP                             A:97 X:B3
								>       E852  F0 19     BEQ $E86D                       A:97 X:B3
								>       E854  90 17     BCC $E86D                       A:97 X:B3
								>       E856  70 15     BVS $E86D                       A:97 X:B3
								>       E858  10 13     BPL $E86D                       A:97 X:B3
								>       E85A  C9 97     CMP #$97                        A:97 X:B3
								>       E85C  D0 0F     BNE $E86D                       A:97 X:B3
								>       E85E  C0 58     CPY #$58                        A:97 X:B3
								>       E860  D0 0B     BNE $E86D                       A:97 X:B3
								>       E862  E0 B3     CPX #$B3                        A:97 X:B3
								>       E864  D0 07     BNE $E86D                       A:97 X:B3
								>       E866  AD 56 05  LDA $0556 = 93                  A:97 X:B3
								>       E869  C9 93     CMP #$93                        A:93 X:B3
								>       E86B  F0 04     BEQ $E871                       A:93 X:B3
								>       E871  A9 FF     LDA #$FF                        A:93 X:B3
								>       E873  85 49     STA $49 = 00                    A:FF X:B3
								>       E875  A0 FF     LDY #$FF                        A:FF X:B3
								>       E877  A2 AA     LDX #$AA                        A:FF X:B3
								>       E879  A9 55     LDA #$55                        A:FF X:AA
								>       E87B  24 01     BIT $01 = C0                    A:55 X:AA
								>       E87D  18        CLC                             A:55 X:AA
								>       E87E  97 4A    *SAX $4A,Y @ 49 = FF             A:55 X:AA
								>       E880  EA        NOP                             A:55 X:AA
								>       E881  EA        NOP                             A:55 X:AA
								>       E882  EA        NOP                             A:55 X:AA
								>       E883  EA        NOP                             A:55 X:AA
								>       E884  F0 18     BEQ $E89E                       A:55 X:AA
								>       E886  B0 16     BCS $E89E                       A:55 X:AA
								>       E888  50 14     BVC $E89E                       A:55 X:AA
								>       E88A  10 12     BPL $E89E                       A:55 X:AA
								>       E88C  C9 55     CMP #$55                        A:55 X:AA
								>       E88E  D0 0E     BNE $E89E                       A:55 X:AA
								>       E890  C0 FF     CPY #$FF                        A:55 X:AA
								>       E892  D0 0A     BNE $E89E                       A:55 X:AA
								>       E894  E0 AA     CPX #$AA                        A:55 X:AA
								>       E896  D0 06     BNE $E89E                       A:55 X:AA
								>       E898  A5 49     LDA $49 = 00                    A:55 X:AA
								>       E89A  C9 00     CMP #$00                        A:00 X:AA
								>       E89C  F0 04     BEQ $E8A2                       A:00 X:AA
								>       E8A2  A9 00     LDA #$00                        A:00 X:AA
								>       E8A4  85 56     STA $56 = 66                    A:00 X:AA
								>       E8A6  A0 06     LDY #$06                        A:00 X:AA
								>       E8A8  A2 EF     LDX #$EF                        A:00 X:AA
								>       E8AA  A9 66     LDA #$66                        A:00 X:EF
								>       E8AC  38        SEC                             A:66 X:EF
								>       E8AD  B8        CLV                             A:66 X:EF
								>       E8AE  97 50    *SAX $50,Y @ 56 = 00             A:66 X:EF
								>       E8B0  EA        NOP                             A:66 X:EF
								>       E8B1  EA        NOP                             A:66 X:EF
								>       E8B2  EA        NOP                             A:66 X:EF
								>       E8B3  EA        NOP                             A:66 X:EF
								>       E8B4  F0 18     BEQ $E8CE                       A:66 X:EF
								>       E8B6  90 16     BCC $E8CE                       A:66 X:EF
								>       E8B8  70 14     BVS $E8CE                       A:66 X:EF
								>       E8BA  30 12     BMI $E8CE                       A:66 X:EF
								>       E8BC  C9 66     CMP #$66                        A:66 X:EF
								>       E8BE  D0 0E     BNE $E8CE                       A:66 X:EF
								>       E8C0  C0 06     CPY #$06                        A:66 X:EF
								>       E8C2  D0 0A     BNE $E8CE                       A:66 X:EF
								>       E8C4  E0 EF     CPX #$EF                        A:66 X:EF
								>       E8C6  D0 06     BNE $E8CE                       A:66 X:EF
								>       E8C8  A5 56     LDA $56 = 66                    A:66 X:EF
								>       E8CA  C9 66     CMP #$66                        A:66 X:EF
								>       E8CC  F0 04     BEQ $E8D2                       A:66 X:EF
								>       E8D2  60        RTS                             A:66 X:EF
								>       C638  20 D3 E8  JSR $E8D3                       A:66 X:EF
								>       E8D3  A0 90     LDY #$90                        A:66 X:EF
								>       E8D5  20 31 F9  JSR $F931                       A:66 X:EF
								>       F931  24 01     BIT $01 = C0                    A:66 X:EF
								>       F933  A9 40     LDA #$40                        A:66 X:EF
								>       F935  38        SEC                             A:40 X:EF
								>       F936  60        RTS                             A:40 X:EF
								>       E8D8  EB 40    *SBC #$40                        A:40 X:EF
								>       E8DA  EA        NOP                             A:00 X:EF
								>       E8DB  EA        NOP                             A:00 X:EF
								>       E8DC  EA        NOP                             A:00 X:EF
								>       E8DD  EA        NOP                             A:00 X:EF
								>       E8DE  20 37 F9  JSR $F937                       A:00 X:EF
								>       F937  30 0B     BMI $F944                       A:00 X:EF
								>       F939  90 09     BCC $F944                       A:00 X:EF
								>       F93B  D0 07     BNE $F944                       A:00 X:EF
								>       F93D  70 05     BVS $F944                       A:00 X:EF
								>       F93F  C9 00     CMP #$00                        A:00 X:EF
								>       F941  D0 01     BNE $F944                       A:00 X:EF
								>       F943  60        RTS                             A:00 X:EF
								>       E8E1  C8        INY                             A:00 X:EF
								>       E8E2  20 47 F9  JSR $F947                       A:00 X:EF
								>       F947  B8        CLV                             A:00 X:EF
								>       F948  38        SEC                             A:00 X:EF
								>       F949  A9 40     LDA #$40                        A:00 X:EF
								>       F94B  60        RTS                             A:40 X:EF
								>       E8E5  EB 3F    *SBC #$3F                        A:40 X:EF
								>       E8E7  EA        NOP                             A:01 X:EF
								>       E8E8  EA        NOP                             A:01 X:EF
								>       E8E9  EA        NOP                             A:01 X:EF
								>       E8EA  EA        NOP                             A:01 X:EF
								>       E8EB  20 4C F9  JSR $F94C                       A:01 X:EF
								>       F94C  F0 0B     BEQ $F959                       A:01 X:EF
								>       F94E  30 09     BMI $F959                       A:01 X:EF
								>       F950  90 07     BCC $F959                       A:01 X:EF
								>       F952  70 05     BVS $F959                       A:01 X:EF
								>       F954  C9 01     CMP #$01                        A:01 X:EF
								>       F956  D0 01     BNE $F959                       A:01 X:EF
								>       F958  60        RTS                             A:01 X:EF
								>       E8EE  C8        INY                             A:01 X:EF
								>       E8EF  20 5C F9  JSR $F95C                       A:01 X:EF
								>       F95C  A9 40     LDA #$40                        A:01 X:EF
								>       F95E  38        SEC                             A:40 X:EF
								>       F95F  24 01     BIT $01 = C0                    A:40 X:EF
								>       F961  60        RTS                             A:40 X:EF
								>       E8F2  EB 41    *SBC #$41                        A:40 X:EF
								>       E8F4  EA        NOP                             A:FF X:EF
								>       E8F5  EA        NOP                             A:FF X:EF
								>       E8F6  EA        NOP                             A:FF X:EF
								>       E8F7  EA        NOP                             A:FF X:EF
								>       E8F8  20 62 F9  JSR $F962                       A:FF X:EF
								>       F962  B0 0B     BCS $F96F                       A:FF X:EF
								>       F964  F0 09     BEQ $F96F                       A:FF X:EF
								>       F966  10 07     BPL $F96F                       A:FF X:EF
								>       F968  70 05     BVS $F96F                       A:FF X:EF
								>       F96A  C9 FF     CMP #$FF                        A:FF X:EF
								>       F96C  D0 01     BNE $F96F                       A:FF X:EF
								>       F96E  60        RTS                             A:FF X:EF
								>       E8FB  C8        INY                             A:FF X:EF
								>       E8FC  20 72 F9  JSR $F972                       A:FF X:EF
								>       F972  18        CLC                             A:FF X:EF
								>       F973  A9 80     LDA #$80                        A:FF X:EF
								>       F975  60        RTS                             A:80 X:EF
								>       E8FF  EB 00    *SBC #$00                        A:80 X:EF
								>       E901  EA        NOP                             A:7F X:EF
								>       E902  EA        NOP                             A:7F X:EF
								>       E903  EA        NOP                             A:7F X:EF
								>       E904  EA        NOP                             A:7F X:EF
								>       E905  20 76 F9  JSR $F976                       A:7F X:EF
								>       F976  90 05     BCC $F97D                       A:7F X:EF
								>       F978  C9 7F     CMP #$7F                        A:7F X:EF
								>       F97A  D0 01     BNE $F97D                       A:7F X:EF
								>       F97C  60        RTS                             A:7F X:EF
								>       E908  C8        INY                             A:7F X:EF
								>       E909  20 80 F9  JSR $F980                       A:7F X:EF
								>       F980  38        SEC                             A:7F X:EF
								>       F981  A9 81     LDA #$81                        A:7F X:EF
								>       F983  60        RTS                             A:81 X:EF
								>       E90C  EB 7F    *SBC #$7F                        A:81 X:EF
								>       E90E  EA        NOP                             A:02 X:EF
								>       E90F  EA        NOP                             A:02 X:EF
								>       E910  EA        NOP                             A:02 X:EF
								>       E911  EA        NOP                             A:02 X:EF
								>       E912  20 84 F9  JSR $F984                       A:02 X:EF
								>       F984  50 07     BVC $F98D                       A:02 X:EF
								>       F986  90 05     BCC $F98D                       A:02 X:EF
								>       F988  C9 02     CMP #$02                        A:02 X:EF
								>       F98A  D0 01     BNE $F98D                       A:02 X:EF
								>       F98C  60        RTS                             A:02 X:EF
								>       E915  60        RTS                             A:02 X:EF
								>       C63B  20 16 E9  JSR $E916                       A:02 X:EF
								>       E916  A9 FF     LDA #$FF                        A:02 X:EF
								>       E918  85 01     STA $01 = C0                    A:FF X:EF
								>       E91A  A0 95     LDY #$95                        A:FF X:EF
								>       E91C  A2 02     LDX #$02                        A:FF X:EF
								>       E91E  A9 47     LDA #$47                        A:FF X:02
								>       E920  85 47     STA $47 = 00                    A:47 X:02
								>       E922  A9 06     LDA #$06                        A:47 X:02
								>       E924  85 48     STA $48 = 00                    A:06 X:02
								>       E926  A9 EB     LDA #$EB                        A:06 X:02
								>       E928  8D 47 06  STA $0647 = 00                  A:EB X:02
								>       E92B  20 31 FA  JSR $FA31                       A:EB X:02
								>       FA31  24 01     BIT $01 = FF                    A:EB X:02
								>       FA33  18        CLC                             A:EB X:02
								>       FA34  A9 40     LDA #$40                        A:EB X:02
								>       FA36  60        RTS                             A:40 X:02
								>       E92E  C3 45    *DCP ($45,X) @ 47 = 0647 = EB    A:40 X:02
								>       E930  EA        NOP                             A:40 X:02
								>       E931  EA        NOP                             A:40 X:02
								>       E932  EA        NOP                             A:40 X:02
								>       E933  EA        NOP                             A:40 X:02
								>       E934  20 37 FA  JSR $FA37                       A:40 X:02
								>       FA37  50 2C     BVC $FA65                       A:40 X:02
								>       FA39  B0 2A     BCS $FA65                       A:40 X:02
								>       FA3B  30 28     BMI $FA65                       A:40 X:02
								>       FA3D  C9 40     CMP #$40                        A:40 X:02
								>       FA3F  D0 24     BNE $FA65                       A:40 X:02
								>       FA41  60        RTS                             A:40 X:02
								>       E937  AD 47 06  LDA $0647 = EA                  A:40 X:02
								>       E93A  C9 EA     CMP #$EA                        A:EA X:02
								>       E93C  F0 02     BEQ $E940                       A:EA X:02
								>       E940  C8        INY                             A:EA X:02
								>       E941  A9 00     LDA #$00                        A:EA X:02
								>       E943  8D 47 06  STA $0647 = EA                  A:00 X:02
								>       E946  20 42 FA  JSR $FA42                       A:00 X:02
								>       FA42  B8        CLV                             A:00 X:02
								>       FA43  38        SEC                             A:00 X:02
								>       FA44  A9 FF     LDA #$FF                        A:00 X:02
								>       FA46  60        RTS                             A:FF X:02
								>       E949  C3 45    *DCP ($45,X) @ 47 = 0647 = 00    A:FF X:02
								>       E94B  EA        NOP                             A:FF X:02
								>       E94C  EA        NOP                             A:FF X:02
								>       E94D  EA        NOP                             A:FF X:02
								>       E94E  EA        NOP                             A:FF X:02
								>       E94F  20 47 FA  JSR $FA47                       A:FF X:02
								>       FA47  70 1C     BVS $FA65                       A:FF X:02
								>       FA49  D0 1A     BNE $FA65                       A:FF X:02
								>       FA4B  30 18     BMI $FA65                       A:FF X:02
								>       FA4D  90 16     BCC $FA65                       A:FF X:02
								>       FA4F  C9 FF     CMP #$FF                        A:FF X:02
								>       FA51  D0 12     BNE $FA65                       A:FF X:02
								>       FA53  60        RTS                             A:FF X:02
								>       E952  AD 47 06  LDA $0647 = FF                  A:FF X:02
								>       E955  C9 FF     CMP #$FF                        A:FF X:02
								>       E957  F0 02     BEQ $E95B                       A:FF X:02
								>       E95B  C8        INY                             A:FF X:02
								>       E95C  A9 37     LDA #$37                        A:FF X:02
								>       E95E  8D 47 06  STA $0647 = FF                  A:37 X:02
								>       E961  20 54 FA  JSR $FA54                       A:37 X:02
								>       FA54  24 01     BIT $01 = FF                    A:37 X:02
								>       FA56  A9 F0     LDA #$F0                        A:37 X:02
								>       FA58  60        RTS                             A:F0 X:02
								>       E964  C3 45    *DCP ($45,X) @ 47 = 0647 = 37    A:F0 X:02
								>       E966  EA        NOP                             A:F0 X:02
								>       E967  EA        NOP                             A:F0 X:02
								>       E968  EA        NOP                             A:F0 X:02
								>       E969  EA        NOP                             A:F0 X:02
								>       E96A  20 59 FA  JSR $FA59                       A:F0 X:02
								>       FA59  50 0A     BVC $FA65                       A:F0 X:02
								>       FA5B  F0 08     BEQ $FA65                       A:F0 X:02
								>       FA5D  10 06     BPL $FA65                       A:F0 X:02
								>       FA5F  90 04     BCC $FA65                       A:F0 X:02
								>       FA61  C9 F0     CMP #$F0                        A:F0 X:02
								>       FA63  F0 02     BEQ $FA67                       A:F0 X:02
								>       FA67  60        RTS                             A:F0 X:02
								>       E96D  AD 47 06  LDA $0647 = 36                  A:F0 X:02
								>       E970  C9 36     CMP #$36                        A:36 X:02
								>       E972  F0 02     BEQ $E976                       A:36 X:02
								>       E976  C8        INY                             A:36 X:02
								>       E977  A9 EB     LDA #$EB                        A:36 X:02
								>       E979  85 47     STA $47 = 47                    A:EB X:02
								>       E97B  20 31 FA  JSR $FA31                       A:EB X:02
								>       FA31  24 01     BIT $01 = FF                    A:EB X:02
								>       FA33  18        CLC                             A:EB X:02
								>       FA34  A9 40     LDA #$40                        A:EB X:02
								>       FA36  60        RTS                             A:40 X:02
								>       E97E  C7 47    *DCP $47 = EB                    A:40 X:02
								>       E980  EA        NOP                             A:40 X:02
								>       E981  EA        NOP                             A:40 X:02
								>       E982  EA        NOP                             A:40 X:02
								>       E983  EA        NOP                             A:40 X:02
								>       E984  20 37 FA  JSR $FA37                       A:40 X:02
								>       FA37  50 2C     BVC $FA65                       A:40 X:02
								>       FA39  B0 2A     BCS $FA65                       A:40 X:02
								>       FA3B  30 28     BMI $FA65                       A:40 X:02
								>       FA3D  C9 40     CMP #$40                        A:40 X:02
								>       FA3F  D0 24     BNE $FA65                       A:40 X:02
								>       FA41  60        RTS                             A:40 X:02
								>       E987  A5 47     LDA $47 = EA                    A:40 X:02
								>       E989  C9 EA     CMP #$EA                        A:EA X:02
								>       E98B  F0 02     BEQ $E98F                       A:EA X:02
								>       E98F  C8        INY                             A:EA X:02
								>       E990  A9 00     LDA #$00                        A:EA X:02
								>       E992  85 47     STA $47 = EA                    A:00 X:02
								>       E994  20 42 FA  JSR $FA42                       A:00 X:02
								>       FA42  B8        CLV                             A:00 X:02
								>       FA43  38        SEC                             A:00 X:02
								>       FA44  A9 FF     LDA #$FF                        A:00 X:02
								>       FA46  60        RTS                             A:FF X:02
								>       E997  C7 47    *DCP $47 = 00                    A:FF X:02
								>       E999  EA        NOP                             A:FF X:02
								>       E99A  EA        NOP                             A:FF X:02
								>       E99B  EA        NOP                             A:FF X:02
								>       E99C  EA        NOP                             A:FF X:02
								>       E99D  20 47 FA  JSR $FA47                       A:FF X:02
								>       FA47  70 1C     BVS $FA65                       A:FF X:02
								>       FA49  D0 1A     BNE $FA65                       A:FF X:02
								>       FA4B  30 18     BMI $FA65                       A:FF X:02
								>       FA4D  90 16     BCC $FA65                       A:FF X:02
								>       FA4F  C9 FF     CMP #$FF                        A:FF X:02
								>       FA51  D0 12     BNE $FA65                       A:FF X:02
								>       FA53  60        RTS                             A:FF X:02
								>       E9A0  A5 47     LDA $47 = FF                    A:FF X:02
								>       E9A2  C9 FF     CMP #$FF                        A:FF X:02
								>       E9A4  F0 02     BEQ $E9A8                       A:FF X:02
								>       E9A8  C8        INY                             A:FF X:02
								>       E9A9  A9 37     LDA #$37                        A:FF X:02
								>       E9AB  85 47     STA $47 = FF                    A:37 X:02
								>       E9AD  20 54 FA  JSR $FA54                       A:37 X:02
								>       FA54  24 01     BIT $01 = FF                    A:37 X:02
								>       FA56  A9 F0     LDA #$F0                        A:37 X:02
								>       FA58  60        RTS                             A:F0 X:02
								>       E9B0  C7 47    *DCP $47 = 37                    A:F0 X:02
								>       E9B2  EA        NOP                             A:F0 X:02
								>       E9B3  EA        NOP                             A:F0 X:02
								>       E9B4  EA        NOP                             A:F0 X:02
								>       E9B5  EA        NOP                             A:F0 X:02
								>       E9B6  20 59 FA  JSR $FA59                       A:F0 X:02
								>       FA59  50 0A     BVC $FA65                       A:F0 X:02
								>       FA5B  F0 08     BEQ $FA65                       A:F0 X:02
								>       FA5D  10 06     BPL $FA65                       A:F0 X:02
								>       FA5F  90 04     BCC $FA65                       A:F0 X:02
								>       FA61  C9 F0     CMP #$F0                        A:F0 X:02
								>       FA63  F0 02     BEQ $FA67                       A:F0 X:02
								>       FA67  60        RTS                             A:F0 X:02
								>       E9B9  A5 47     LDA $47 = 36                    A:F0 X:02
								>       E9BB  C9 36     CMP #$36                        A:36 X:02
								>       E9BD  F0 02     BEQ $E9C1                       A:36 X:02
								>       E9C1  C8        INY                             A:36 X:02
								>       E9C2  A9 EB     LDA #$EB                        A:36 X:02
								>       E9C4  8D 47 06  STA $0647 = 36                  A:EB X:02
								>       E9C7  20 31 FA  JSR $FA31                       A:EB X:02
								>       FA31  24 01     BIT $01 = FF                    A:EB X:02
								>       FA33  18        CLC                             A:EB X:02
								>       FA34  A9 40     LDA #$40                        A:EB X:02
								>       FA36  60        RTS                             A:40 X:02
								>       E9CA  CF 47 06 *DCP $0647 = EB                  A:40 X:02
								>       E9CD  EA        NOP                             A:40 X:02
								>       E9CE  EA        NOP                             A:40 X:02
								>       E9CF  EA        NOP                             A:40 X:02
								>       E9D0  EA        NOP                             A:40 X:02
								>       E9D1  20 37 FA  JSR $FA37                       A:40 X:02
								>       FA37  50 2C     BVC $FA65                       A:40 X:02
								>       FA39  B0 2A     BCS $FA65                       A:40 X:02
								>       FA3B  30 28     BMI $FA65                       A:40 X:02
								>       FA3D  C9 40     CMP #$40                        A:40 X:02
								>       FA3F  D0 24     BNE $FA65                       A:40 X:02
								>       FA41  60        RTS                             A:40 X:02
								>       E9D4  AD 47 06  LDA $0647 = EA                  A:40 X:02
								>       E9D7  C9 EA     CMP #$EA                        A:EA X:02
								>       E9D9  F0 02     BEQ $E9DD                       A:EA X:02
								>       E9DD  C8        INY                             A:EA X:02
								>       E9DE  A9 00     LDA #$00                        A:EA X:02
								>       E9E0  8D 47 06  STA $0647 = EA                  A:00 X:02
								>       E9E3  20 42 FA  JSR $FA42                       A:00 X:02
								>       FA42  B8        CLV                             A:00 X:02
								>       FA43  38        SEC                             A:00 X:02
								>       FA44  A9 FF     LDA #$FF                        A:00 X:02
								>       FA46  60        RTS                             A:FF X:02
								>       E9E6  CF 47 06 *DCP $0647 = 00                  A:FF X:02
								>       E9E9  EA        NOP                             A:FF X:02
								>       E9EA  EA        NOP                             A:FF X:02
								>       E9EB  EA        NOP                             A:FF X:02
								>       E9EC  EA        NOP                             A:FF X:02
								>       E9ED  20 47 FA  JSR $FA47                       A:FF X:02
								>       FA47  70 1C     BVS $FA65                       A:FF X:02
								>       FA49  D0 1A     BNE $FA65                       A:FF X:02
								>       FA4B  30 18     BMI $FA65                       A:FF X:02
								>       FA4D  90 16     BCC $FA65                       A:FF X:02
								>       FA4F  C9 FF     CMP #$FF                        A:FF X:02
								>       FA51  D0 12     BNE $FA65                       A:FF X:02
								>       FA53  60        RTS                             A:FF X:02
								>       E9F0  AD 47 06  LDA $0647 = FF                  A:FF X:02
								>       E9F3  C9 FF     CMP #$FF                        A:FF X:02
								>       E9F5  F0 02     BEQ $E9F9                       A:FF X:02
								>       E9F9  C8        INY                             A:FF X:02
								>       E9FA  A9 37     LDA #$37                        A:FF X:02
								>       E9FC  8D 47 06  STA $0647 = FF                  A:37 X:02
								>       E9FF  20 54 FA  JSR $FA54                       A:37 X:02
								>       FA54  24 01     BIT $01 = FF                    A:37 X:02
								>       FA56  A9 F0     LDA #$F0                        A:37 X:02
								>       FA58  60        RTS                             A:F0 X:02
								>       EA02  CF 47 06 *DCP $0647 = 37                  A:F0 X:02
								>       EA05  EA        NOP                             A:F0 X:02
								>       EA06  EA        NOP                             A:F0 X:02
								>       EA07  EA        NOP                             A:F0 X:02
								>       EA08  EA        NOP                             A:F0 X:02
								>       EA09  20 59 FA  JSR $FA59                       A:F0 X:02
								>       FA59  50 0A     BVC $FA65                       A:F0 X:02
								>       FA5B  F0 08     BEQ $FA65                       A:F0 X:02
								>       FA5D  10 06     BPL $FA65                       A:F0 X:02
								>       FA5F  90 04     BCC $FA65                       A:F0 X:02
								>       FA61  C9 F0     CMP #$F0                        A:F0 X:02
								>       FA63  F0 02     BEQ $FA67                       A:F0 X:02
								>       FA67  60        RTS                             A:F0 X:02
								>       EA0C  AD 47 06  LDA $0647 = 36                  A:F0 X:02
								>       EA0F  C9 36     CMP #$36                        A:36 X:02
								>       EA11  F0 02     BEQ $EA15                       A:36 X:02
								>       EA15  A9 EB     LDA #$EB                        A:36 X:02
								>       EA17  8D 47 06  STA $0647 = 36                  A:EB X:02
								>       EA1A  A9 48     LDA #$48                        A:EB X:02
								>       EA1C  85 45     STA $45 = 32                    A:48 X:02
								>       EA1E  A9 05     LDA #$05                        A:48 X:02
								>       EA20  85 46     STA $46 = 04                    A:05 X:02
								>       EA22  A0 FF     LDY #$FF                        A:05 X:02
								>       EA24  20 31 FA  JSR $FA31                       A:05 X:02
								>       FA31  24 01     BIT $01 = FF                    A:05 X:02
								>       FA33  18        CLC                             A:05 X:02
								>       FA34  A9 40     LDA #$40                        A:05 X:02
								>       FA36  60        RTS                             A:40 X:02
								>       EA27  D3 45    *DCP ($45),Y = 0548 @ 0647 = EB  A:40 X:02
								>       EA29  EA        NOP                             A:40 X:02
								>       EA2A  EA        NOP                             A:40 X:02
								>       EA2B  08        PHP                             A:40 X:02
								>       EA2C  48        PHA                             A:40 X:02
								>       EA2D  A0 9E     LDY #$9E                        A:40 X:02
								>       EA2F  68        PLA                             A:40 X:02
								>       EA30  28        PLP                             A:40 X:02
								>       EA31  20 37 FA  JSR $FA37                       A:40 X:02
								>       FA37  50 2C     BVC $FA65                       A:40 X:02
								>       FA39  B0 2A     BCS $FA65                       A:40 X:02
								>       FA3B  30 28     BMI $FA65                       A:40 X:02
								>       FA3D  C9 40     CMP #$40                        A:40 X:02
								>       FA3F  D0 24     BNE $FA65                       A:40 X:02
								>       FA41  60        RTS                             A:40 X:02
								>       EA34  AD 47 06  LDA $0647 = EA                  A:40 X:02
								>       EA37  C9 EA     CMP #$EA                        A:EA X:02
								>       EA39  F0 02     BEQ $EA3D                       A:EA X:02
								>       EA3D  A0 FF     LDY #$FF                        A:EA X:02
								>       EA3F  A9 00     LDA #$00                        A:EA X:02
								>       EA41  8D 47 06  STA $0647 = EA                  A:00 X:02
								>       EA44  20 42 FA  JSR $FA42                       A:00 X:02
								>       FA42  B8        CLV                             A:00 X:02
								>       FA43  38        SEC                             A:00 X:02
								>       FA44  A9 FF     LDA #$FF                        A:00 X:02
								>       FA46  60        RTS                             A:FF X:02
								>       EA47  D3 45    *DCP ($45),Y = 0548 @ 0647 = 00  A:FF X:02
								>       EA49  EA        NOP                             A:FF X:02
								>       EA4A  EA        NOP                             A:FF X:02
								>       EA4B  08        PHP                             A:FF X:02
								>       EA4C  48        PHA                             A:FF X:02
								>       EA4D  A0 9F     LDY #$9F                        A:FF X:02
								>       EA4F  68        PLA                             A:FF X:02
								>       EA50  28        PLP                             A:FF X:02
								>       EA51  20 47 FA  JSR $FA47                       A:FF X:02
								>       FA47  70 1C     BVS $FA65                       A:FF X:02
								>       FA49  D0 1A     BNE $FA65                       A:FF X:02
								>       FA4B  30 18     BMI $FA65                       A:FF X:02
								>       FA4D  90 16     BCC $FA65                       A:FF X:02
								>       FA4F  C9 FF     CMP #$FF                        A:FF X:02
								>       FA51  D0 12     BNE $FA65                       A:FF X:02
								>       FA53  60        RTS                             A:FF X:02
								>       EA54  AD 47 06  LDA $0647 = FF                  A:FF X:02
								>       EA57  C9 FF     CMP #$FF                        A:FF X:02
								>       EA59  F0 02     BEQ $EA5D                       A:FF X:02
								>       EA5D  A0 FF     LDY #$FF                        A:FF X:02
								>       EA5F  A9 37     LDA #$37                        A:FF X:02
								>       EA61  8D 47 06  STA $0647 = FF                  A:37 X:02
								>       EA64  20 54 FA  JSR $FA54                       A:37 X:02
								>       FA54  24 01     BIT $01 = FF                    A:37 X:02
								>       FA56  A9 F0     LDA #$F0                        A:37 X:02
								>       FA58  60        RTS                             A:F0 X:02
								>       EA67  D3 45    *DCP ($45),Y = 0548 @ 0647 = 37  A:F0 X:02
								>       EA69  EA        NOP                             A:F0 X:02
								>       EA6A  EA        NOP                             A:F0 X:02
								>       EA6B  08        PHP                             A:F0 X:02
								>       EA6C  48        PHA                             A:F0 X:02
								>       EA6D  A0 A0     LDY #$A0                        A:F0 X:02
								>       EA6F  68        PLA                             A:F0 X:02
								>       EA70  28        PLP                             A:F0 X:02
								>       EA71  20 59 FA  JSR $FA59                       A:F0 X:02
								>       FA59  50 0A     BVC $FA65                       A:F0 X:02
								>       FA5B  F0 08     BEQ $FA65                       A:F0 X:02
								>       FA5D  10 06     BPL $FA65                       A:F0 X:02
								>       FA5F  90 04     BCC $FA65                       A:F0 X:02
								>       FA61  C9 F0     CMP #$F0                        A:F0 X:02
								>       FA63  F0 02     BEQ $FA67                       A:F0 X:02
								>       FA67  60        RTS                             A:F0 X:02
								>       EA74  AD 47 06  LDA $0647 = 36                  A:F0 X:02
								>       EA77  C9 36     CMP #$36                        A:36 X:02
								>       EA79  F0 02     BEQ $EA7D                       A:36 X:02
								>       EA7D  A0 A1     LDY #$A1                        A:36 X:02
								>       EA7F  A2 FF     LDX #$FF                        A:36 X:02
								>       EA81  A9 EB     LDA #$EB                        A:36 X:FF
								>       EA83  85 47     STA $47 = 36                    A:EB X:FF
								>       EA85  20 31 FA  JSR $FA31                       A:EB X:FF
								>       FA31  24 01     BIT $01 = FF                    A:EB X:FF
								>       FA33  18        CLC                             A:EB X:FF
								>       FA34  A9 40     LDA #$40                        A:EB X:FF
								>       FA36  60        RTS                             A:40 X:FF
								>       EA88  D7 48    *DCP $48,X @ 47 = EB             A:40 X:FF
								>       EA8A  EA        NOP                             A:40 X:FF
								>       EA8B  EA        NOP                             A:40 X:FF
								>       EA8C  EA        NOP                             A:40 X:FF
								>       EA8D  EA        NOP                             A:40 X:FF
								>       EA8E  20 37 FA  JSR $FA37                       A:40 X:FF
								>       FA37  50 2C     BVC $FA65                       A:40 X:FF
								>       FA39  B0 2A     BCS $FA65                       A:40 X:FF
								>       FA3B  30 28     BMI $FA65                       A:40 X:FF
								>       FA3D  C9 40     CMP #$40                        A:40 X:FF
								>       FA3F  D0 24     BNE $FA65                       A:40 X:FF
								>       FA41  60        RTS                             A:40 X:FF
								>       EA91  A5 47     LDA $47 = EA                    A:40 X:FF
								>       EA93  C9 EA     CMP #$EA                        A:EA X:FF
								>       EA95  F0 02     BEQ $EA99                       A:EA X:FF
								>       EA99  C8        INY                             A:EA X:FF
								>       EA9A  A9 00     LDA #$00                        A:EA X:FF
								>       EA9C  85 47     STA $47 = EA                    A:00 X:FF
								>       EA9E  20 42 FA  JSR $FA42                       A:00 X:FF
								>       FA42  B8        CLV                             A:00 X:FF
								>       FA43  38        SEC                             A:00 X:FF
								>       FA44  A9 FF     LDA #$FF                        A:00 X:FF
								>       FA46  60        RTS                             A:FF X:FF
								>       EAA1  D7 48    *DCP $48,X @ 47 = 00             A:FF X:FF
								>       EAA3  EA        NOP                             A:FF X:FF
								>       EAA4  EA        NOP                             A:FF X:FF
								>       EAA5  EA        NOP                             A:FF X:FF
								>       EAA6  EA        NOP                             A:FF X:FF
								>       EAA7  20 47 FA  JSR $FA47                       A:FF X:FF
								>       FA47  70 1C     BVS $FA65                       A:FF X:FF
								>       FA49  D0 1A     BNE $FA65                       A:FF X:FF
								>       FA4B  30 18     BMI $FA65                       A:FF X:FF
								>       FA4D  90 16     BCC $FA65                       A:FF X:FF
								>       FA4F  C9 FF     CMP #$FF                        A:FF X:FF
								>       FA51  D0 12     BNE $FA65                       A:FF X:FF
								>       FA53  60        RTS                             A:FF X:FF
								>       EAAA  A5 47     LDA $47 = FF                    A:FF X:FF
								>       EAAC  C9 FF     CMP #$FF                        A:FF X:FF
								>       EAAE  F0 02     BEQ $EAB2                       A:FF X:FF
								>       EAB2  C8        INY                             A:FF X:FF
								>       EAB3  A9 37     LDA #$37                        A:FF X:FF
								>       EAB5  85 47     STA $47 = FF                    A:37 X:FF
								>       EAB7  20 54 FA  JSR $FA54                       A:37 X:FF
								>       FA54  24 01     BIT $01 = FF                    A:37 X:FF
								>       FA56  A9 F0     LDA #$F0                        A:37 X:FF
								>       FA58  60        RTS                             A:F0 X:FF
								>       EABA  D7 48    *DCP $48,X @ 47 = 37             A:F0 X:FF
								>       EABC  EA        NOP                             A:F0 X:FF
								>       EABD  EA        NOP                             A:F0 X:FF
								>       EABE  EA        NOP                             A:F0 X:FF
								>       EABF  EA        NOP                             A:F0 X:FF
								>       EAC0  20 59 FA  JSR $FA59                       A:F0 X:FF
								>       FA59  50 0A     BVC $FA65                       A:F0 X:FF
								>       FA5B  F0 08     BEQ $FA65                       A:F0 X:FF
								>       FA5D  10 06     BPL $FA65                       A:F0 X:FF
								>       FA5F  90 04     BCC $FA65                       A:F0 X:FF
								>       FA61  C9 F0     CMP #$F0                        A:F0 X:FF
								>       FA63  F0 02     BEQ $FA67                       A:F0 X:FF
								>       FA67  60        RTS                             A:F0 X:FF
								>       EAC3  A5 47     LDA $47 = 36                    A:F0 X:FF
								>       EAC5  C9 36     CMP #$36                        A:36 X:FF
								>       EAC7  F0 02     BEQ $EACB                       A:36 X:FF
								>       EACB  A9 EB     LDA #$EB                        A:36 X:FF
								>       EACD  8D 47 06  STA $0647 = 36                  A:EB X:FF
								>       EAD0  A0 FF     LDY #$FF                        A:EB X:FF
								>       EAD2  20 31 FA  JSR $FA31                       A:EB X:FF
								>       FA31  24 01     BIT $01 = FF                    A:EB X:FF
								>       FA33  18        CLC                             A:EB X:FF
								>       FA34  A9 40     LDA #$40                        A:EB X:FF
								>       FA36  60        RTS                             A:40 X:FF
								>       EAD5  DB 48 05 *DCP $0548,Y @ 0647 = EB         A:40 X:FF
								>       EAD8  EA        NOP                             A:40 X:FF
								>       EAD9  EA        NOP                             A:40 X:FF
								>       EADA  08        PHP                             A:40 X:FF
								>       EADB  48        PHA                             A:40 X:FF
								>       EADC  A0 A4     LDY #$A4                        A:40 X:FF
								>       EADE  68        PLA                             A:40 X:FF
								>       EADF  28        PLP                             A:40 X:FF
								>       EAE0  20 37 FA  JSR $FA37                       A:40 X:FF
								>       FA37  50 2C     BVC $FA65                       A:40 X:FF
								>       FA39  B0 2A     BCS $FA65                       A:40 X:FF
								>       FA3B  30 28     BMI $FA65                       A:40 X:FF
								>       FA3D  C9 40     CMP #$40                        A:40 X:FF
								>       FA3F  D0 24     BNE $FA65                       A:40 X:FF
								>       FA41  60        RTS                             A:40 X:FF
								>       EAE3  AD 47 06  LDA $0647 = EA                  A:40 X:FF
								>       EAE6  C9 EA     CMP #$EA                        A:EA X:FF
								>       EAE8  F0 02     BEQ $EAEC                       A:EA X:FF
								>       EAEC  A0 FF     LDY #$FF                        A:EA X:FF
								>       EAEE  A9 00     LDA #$00                        A:EA X:FF
								>       EAF0  8D 47 06  STA $0647 = EA                  A:00 X:FF
								>       EAF3  20 42 FA  JSR $FA42                       A:00 X:FF
								>       FA42  B8        CLV                             A:00 X:FF
								>       FA43  38        SEC                             A:00 X:FF
								>       FA44  A9 FF     LDA #$FF                        A:00 X:FF
								>       FA46  60        RTS                             A:FF X:FF
								>       EAF6  DB 48 05 *DCP $0548,Y @ 0647 = 00         A:FF X:FF
								>       EAF9  EA        NOP                             A:FF X:FF
								>       EAFA  EA        NOP                             A:FF X:FF
								>       EAFB  08        PHP                             A:FF X:FF
								>       EAFC  48        PHA                             A:FF X:FF
								>       EAFD  A0 A5     LDY #$A5                        A:FF X:FF
								>       EAFF  68        PLA                             A:FF X:FF
								>       EB00  28        PLP                             A:FF X:FF
								>       EB01  20 47 FA  JSR $FA47                       A:FF X:FF
								>       FA47  70 1C     BVS $FA65                       A:FF X:FF
								>       FA49  D0 1A     BNE $FA65                       A:FF X:FF
								>       FA4B  30 18     BMI $FA65                       A:FF X:FF
								>       FA4D  90 16     BCC $FA65                       A:FF X:FF
								>       FA4F  C9 FF     CMP #$FF                        A:FF X:FF
								>       FA51  D0 12     BNE $FA65                       A:FF X:FF
								>       FA53  60        RTS                             A:FF X:FF
								>       EB04  AD 47 06  LDA $0647 = FF                  A:FF X:FF
								>       EB07  C9 FF     CMP #$FF                        A:FF X:FF
								>       EB09  F0 02     BEQ $EB0D                       A:FF X:FF
								>       EB0D  A0 FF     LDY #$FF                        A:FF X:FF
								>       EB0F  A9 37     LDA #$37                        A:FF X:FF
								>       EB11  8D 47 06  STA $0647 = FF                  A:37 X:FF
								>       EB14  20 54 FA  JSR $FA54                       A:37 X:FF
								>       FA54  24 01     BIT $01 = FF                    A:37 X:FF
								>       FA56  A9 F0     LDA #$F0                        A:37 X:FF
								>       FA58  60        RTS                             A:F0 X:FF
								>       EB17  DB 48 05 *DCP $0548,Y @ 0647 = 37         A:F0 X:FF
								>       EB1A  EA        NOP                             A:F0 X:FF
								>       EB1B  EA        NOP                             A:F0 X:FF
								>       EB1C  08        PHP                             A:F0 X:FF
								>       EB1D  48        PHA                             A:F0 X:FF
								>       EB1E  A0 A6     LDY #$A6                        A:F0 X:FF
								>       EB20  68        PLA                             A:F0 X:FF
								>       EB21  28        PLP                             A:F0 X:FF
								>       EB22  20 59 FA  JSR $FA59                       A:F0 X:FF
								>       FA59  50 0A     BVC $FA65                       A:F0 X:FF
								>       FA5B  F0 08     BEQ $FA65                       A:F0 X:FF
								>       FA5D  10 06     BPL $FA65                       A:F0 X:FF
								>       FA5F  90 04     BCC $FA65                       A:F0 X:FF
								>       FA61  C9 F0     CMP #$F0                        A:F0 X:FF
								>       FA63  F0 02     BEQ $FA67                       A:F0 X:FF
								>       FA67  60        RTS                             A:F0 X:FF
								>       EB25  AD 47 06  LDA $0647 = 36                  A:F0 X:FF
								>       EB28  C9 36     CMP #$36                        A:36 X:FF
								>       EB2A  F0 02     BEQ $EB2E                       A:36 X:FF
								>       EB2E  A0 A7     LDY #$A7                        A:36 X:FF
								>       EB30  A2 FF     LDX #$FF                        A:36 X:FF
								>       EB32  A9 EB     LDA #$EB                        A:36 X:FF
								>       EB34  8D 47 06  STA $0647 = 36                  A:EB X:FF
								>       EB37  20 31 FA  JSR $FA31                       A:EB X:FF
								>       FA31  24 01     BIT $01 = FF                    A:EB X:FF
								>       FA33  18        CLC                             A:EB X:FF
								>       FA34  A9 40     LDA #$40                        A:EB X:FF
								>       FA36  60        RTS                             A:40 X:FF
								>       EB3A  DF 48 05 *DCP $0548,X @ 0647 = EB         A:40 X:FF
								>       EB3D  EA        NOP                             A:40 X:FF
								>       EB3E  EA        NOP                             A:40 X:FF
								>       EB3F  EA        NOP                             A:40 X:FF
								>       EB40  EA        NOP                             A:40 X:FF
								>       EB41  20 37 FA  JSR $FA37                       A:40 X:FF
								>       FA37  50 2C     BVC $FA65                       A:40 X:FF
								>       FA39  B0 2A     BCS $FA65                       A:40 X:FF
								>       FA3B  30 28     BMI $FA65                       A:40 X:FF
								>       FA3D  C9 40     CMP #$40                        A:40 X:FF
								>       FA3F  D0 24     BNE $FA65                       A:40 X:FF
								>       FA41  60        RTS                             A:40 X:FF
								>       EB44  AD 47 06  LDA $0647 = EA                  A:40 X:FF
								>       EB47  C9 EA     CMP #$EA                        A:EA X:FF
								>       EB49  F0 02     BEQ $EB4D                       A:EA X:FF
								>       EB4D  C8        INY                             A:EA X:FF
								>       EB4E  A9 00     LDA #$00                        A:EA X:FF
								>       EB50  8D 47 06  STA $0647 = EA                  A:00 X:FF
								>       EB53  20 42 FA  JSR $FA42                       A:00 X:FF
								>       FA42  B8        CLV                             A:00 X:FF
								>       FA43  38        SEC                             A:00 X:FF
								>       FA44  A9 FF     LDA #$FF                        A:00 X:FF
								>       FA46  60        RTS                             A:FF X:FF
								>       EB56  DF 48 05 *DCP $0548,X @ 0647 = 00         A:FF X:FF
								>       EB59  EA        NOP                             A:FF X:FF
								>       EB5A  EA        NOP                             A:FF X:FF
								>       EB5B  EA        NOP                             A:FF X:FF
								>       EB5C  EA        NOP                             A:FF X:FF
								>       EB5D  20 47 FA  JSR $FA47                       A:FF X:FF
								>       FA47  70 1C     BVS $FA65                       A:FF X:FF
								>       FA49  D0 1A     BNE $FA65                       A:FF X:FF
								>       FA4B  30 18     BMI $FA65                       A:FF X:FF
								>       FA4D  90 16     BCC $FA65                       A:FF X:FF
								>       FA4F  C9 FF     CMP #$FF                        A:FF X:FF
								>       FA51  D0 12     BNE $FA65                       A:FF X:FF
								>       FA53  60        RTS                             A:FF X:FF
								>       EB60  AD 47 06  LDA $0647 = FF                  A:FF X:FF
								>       EB63  C9 FF     CMP #$FF                        A:FF X:FF
								>       EB65  F0 02     BEQ $EB69                       A:FF X:FF
								>       EB69  C8        INY                             A:FF X:FF
								>       EB6A  A9 37     LDA #$37                        A:FF X:FF
								>       EB6C  8D 47 06  STA $0647 = FF                  A:37 X:FF
								>       EB6F  20 54 FA  JSR $FA54                       A:37 X:FF
								>       FA54  24 01     BIT $01 = FF                    A:37 X:FF
								>       FA56  A9 F0     LDA #$F0                        A:37 X:FF
								>       FA58  60        RTS                             A:F0 X:FF
								>       EB72  DF 48 05 *DCP $0548,X @ 0647 = 37         A:F0 X:FF
								>       EB75  EA        NOP                             A:F0 X:FF
								>       EB76  EA        NOP                             A:F0 X:FF
								>       EB77  EA        NOP                             A:F0 X:FF
								>       EB78  EA        NOP                             A:F0 X:FF
								>       EB79  20 59 FA  JSR $FA59                       A:F0 X:FF
								>       FA59  50 0A     BVC $FA65                       A:F0 X:FF
								>       FA5B  F0 08     BEQ $FA65                       A:F0 X:FF
								>       FA5D  10 06     BPL $FA65                       A:F0 X:FF
								>       FA5F  90 04     BCC $FA65                       A:F0 X:FF
								>       FA61  C9 F0     CMP #$F0                        A:F0 X:FF
								>       FA63  F0 02     BEQ $FA67                       A:F0 X:FF
								>       FA67  60        RTS                             A:F0 X:FF
								>       EB7C  AD 47 06  LDA $0647 = 36                  A:F0 X:FF
								>       EB7F  C9 36     CMP #$36                        A:36 X:FF
								>       EB81  F0 02     BEQ $EB85                       A:36 X:FF
								>       EB85  60        RTS                             A:36 X:FF
								>       C63E  20 86 EB  JSR $EB86                       A:36 X:FF
								>       EB86  A9 FF     LDA #$FF                        A:36 X:FF
								>       EB88  85 01     STA $01 = FF                    A:FF X:FF
								>       EB8A  A0 AA     LDY #$AA                        A:FF X:FF
								>       EB8C  A2 02     LDX #$02                        A:FF X:FF
								>       EB8E  A9 47     LDA #$47                        A:FF X:02
								>       EB90  85 47     STA $47 = 36                    A:47 X:02
								>       EB92  A9 06     LDA #$06                        A:47 X:02
								>       EB94  85 48     STA $48 = 06                    A:06 X:02
								>       EB96  A9 EB     LDA #$EB                        A:06 X:02
								>       EB98  8D 47 06  STA $0647 = 36                  A:EB X:02
								>       EB9B  20 B1 FA  JSR $FAB1                       A:EB X:02
								>       FAB1  24 01     BIT $01 = FF                    A:EB X:02
								>       FAB3  18        CLC                             A:EB X:02
								>       FAB4  A9 40     LDA #$40                        A:EB X:02
								>       FAB6  60        RTS                             A:40 X:02
								>       EB9E  E3 45    *ISB ($45,X) @ 47 = 0647 = EB    A:40 X:02
								>       EBA0  EA        NOP                             A:53 X:02
								>       EBA1  EA        NOP                             A:53 X:02
								>       EBA2  EA        NOP                             A:53 X:02
								>       EBA3  EA        NOP                             A:53 X:02
								>       EBA4  20 B7 FA  JSR $FAB7                       A:53 X:02
								>       FAB7  70 2D     BVS $FAE6                       A:53 X:02
								>       FAB9  B0 2B     BCS $FAE6                       A:53 X:02
								>       FABB  30 29     BMI $FAE6                       A:53 X:02
								>       FABD  C9 53     CMP #$53                        A:53 X:02
								>       FABF  D0 25     BNE $FAE6                       A:53 X:02
								>       FAC1  60        RTS                             A:53 X:02
								>       EBA7  AD 47 06  LDA $0647 = EC                  A:53 X:02
								>       EBAA  C9 EC     CMP #$EC                        A:EC X:02
								>       EBAC  F0 02     BEQ $EBB0                       A:EC X:02
								>       EBB0  C8        INY                             A:EC X:02
								>       EBB1  A9 FF     LDA #$FF                        A:EC X:02
								>       EBB3  8D 47 06  STA $0647 = EC                  A:FF X:02
								>       EBB6  20 C2 FA  JSR $FAC2                       A:FF X:02
								>       FAC2  B8        CLV                             A:FF X:02
								>       FAC3  38        SEC                             A:FF X:02
								>       FAC4  A9 FF     LDA #$FF                        A:FF X:02
								>       FAC6  60        RTS                             A:FF X:02
								>       EBB9  E3 45    *ISB ($45,X) @ 47 = 0647 = FF    A:FF X:02
								>       EBBB  EA        NOP                             A:FF X:02
								>       EBBC  EA        NOP                             A:FF X:02
								>       EBBD  EA        NOP                             A:FF X:02
								>       EBBE  EA        NOP                             A:FF X:02
								>       EBBF  20 C7 FA  JSR $FAC7                       A:FF X:02
								>       FAC7  70 1D     BVS $FAE6                       A:FF X:02
								>       FAC9  F0 1B     BEQ $FAE6                       A:FF X:02
								>       FACB  10 19     BPL $FAE6                       A:FF X:02
								>       FACD  90 17     BCC $FAE6                       A:FF X:02
								>       FACF  C9 FF     CMP #$FF                        A:FF X:02
								>       FAD1  D0 13     BNE $FAE6                       A:FF X:02
								>       FAD3  60        RTS                             A:FF X:02
								>       EBC2  AD 47 06  LDA $0647 = 00                  A:FF X:02
								>       EBC5  C9 00     CMP #$00                        A:00 X:02
								>       EBC7  F0 02     BEQ $EBCB                       A:00 X:02
								>       EBCB  C8        INY                             A:00 X:02
								>       EBCC  A9 37     LDA #$37                        A:00 X:02
								>       EBCE  8D 47 06  STA $0647 = 00                  A:37 X:02
								>       EBD1  20 D4 FA  JSR $FAD4                       A:37 X:02
								>       FAD4  24 01     BIT $01 = FF                    A:37 X:02
								>       FAD6  38        SEC                             A:37 X:02
								>       FAD7  A9 F0     LDA #$F0                        A:37 X:02
								>       FAD9  60        RTS                             A:F0 X:02
								>       EBD4  E3 45    *ISB ($45,X) @ 47 = 0647 = 37    A:F0 X:02
								>       EBD6  EA        NOP                             A:B8 X:02
								>       EBD7  EA        NOP                             A:B8 X:02
								>       EBD8  EA        NOP                             A:B8 X:02
								>       EBD9  EA        NOP                             A:B8 X:02
								>       EBDA  20 DA FA  JSR $FADA                       A:B8 X:02
								>       FADA  70 0A     BVS $FAE6                       A:B8 X:02
								>       FADC  F0 08     BEQ $FAE6                       A:B8 X:02
								>       FADE  10 06     BPL $FAE6                       A:B8 X:02
								>       FAE0  90 04     BCC $FAE6                       A:B8 X:02
								>       FAE2  C9 B8     CMP #$B8                        A:B8 X:02
								>       FAE4  F0 02     BEQ $FAE8                       A:B8 X:02
								>       FAE8  60        RTS                             A:B8 X:02
								>       EBDD  AD 47 06  LDA $0647 = 38                  A:B8 X:02
								>       EBE0  C9 38     CMP #$38                        A:38 X:02
								>       EBE2  F0 02     BEQ $EBE6                       A:38 X:02
								>       EBE6  C8        INY                             A:38 X:02
								>       EBE7  A9 EB     LDA #$EB                        A:38 X:02
								>       EBE9  85 47     STA $47 = 47                    A:EB X:02
								>       EBEB  20 B1 FA  JSR $FAB1                       A:EB X:02
								>       FAB1  24 01     BIT $01 = FF                    A:EB X:02
								>       FAB3  18        CLC                             A:EB X:02
								>       FAB4  A9 40     LDA #$40                        A:EB X:02
								>       FAB6  60        RTS                             A:40 X:02
								>       EBEE  E7 47    *ISB $47 = EB                    A:40 X:02
								>       EBF0  EA        NOP                             A:53 X:02
								>       EBF1  EA        NOP                             A:53 X:02
								>       EBF2  EA        NOP                             A:53 X:02
								>       EBF3  EA        NOP                             A:53 X:02
								>       EBF4  20 B7 FA  JSR $FAB7                       A:53 X:02
								>       FAB7  70 2D     BVS $FAE6                       A:53 X:02
								>       FAB9  B0 2B     BCS $FAE6                       A:53 X:02
								>       FABB  30 29     BMI $FAE6                       A:53 X:02
								>       FABD  C9 53     CMP #$53                        A:53 X:02
								>       FABF  D0 25     BNE $FAE6                       A:53 X:02
								>       FAC1  60        RTS                             A:53 X:02
								>       EBF7  A5 47     LDA $47 = EC                    A:53 X:02
								>       EBF9  C9 EC     CMP #$EC                        A:EC X:02
								>       EBFB  F0 02     BEQ $EBFF                       A:EC X:02
								>       EBFF  C8        INY                             A:EC X:02
								>       EC00  A9 FF     LDA #$FF                        A:EC X:02
								>       EC02  85 47     STA $47 = EC                    A:FF X:02
								>       EC04  20 C2 FA  JSR $FAC2                       A:FF X:02
								>       FAC2  B8        CLV                             A:FF X:02
								>       FAC3  38        SEC                             A:FF X:02
								>       FAC4  A9 FF     LDA #$FF                        A:FF X:02
								>       FAC6  60        RTS                             A:FF X:02
								>       EC07  E7 47    *ISB $47 = FF                    A:FF X:02
								>       EC09  EA        NOP                             A:FF X:02
								>       EC0A  EA        NOP                             A:FF X:02
								>       EC0B  EA        NOP                             A:FF X:02
								>       EC0C  EA        NOP                             A:FF X:02
								>       EC0D  20 C7 FA  JSR $FAC7                       A:FF X:02
								>       FAC7  70 1D     BVS $FAE6                       A:FF X:02
								>       FAC9  F0 1B     BEQ $FAE6                       A:FF X:02
								>       FACB  10 19     BPL $FAE6                       A:FF X:02
								>       FACD  90 17     BCC $FAE6                       A:FF X:02
								>       FACF  C9 FF     CMP #$FF                        A:FF X:02
								>       FAD1  D0 13     BNE $FAE6                       A:FF X:02
								>       FAD3  60        RTS                             A:FF X:02
								>       EC10  A5 47     LDA $47 = 00                    A:FF X:02
								>       EC12  C9 00     CMP #$00                        A:00 X:02
								>       EC14  F0 02     BEQ $EC18                       A:00 X:02
								>       EC18  C8        INY                             A:00 X:02
								>       EC19  A9 37     LDA #$37                        A:00 X:02
								>       EC1B  85 47     STA $47 = 00                    A:37 X:02
								>       EC1D  20 D4 FA  JSR $FAD4                       A:37 X:02
								>       FAD4  24 01     BIT $01 = FF                    A:37 X:02
								>       FAD6  38        SEC                             A:37 X:02
								>       FAD7  A9 F0     LDA #$F0                        A:37 X:02
								>       FAD9  60        RTS                             A:F0 X:02
								>       EC20  E7 47    *ISB $47 = 37                    A:F0 X:02
								>       EC22  EA        NOP                             A:B8 X:02
								>       EC23  EA        NOP                             A:B8 X:02
								>       EC24  EA        NOP                             A:B8 X:02
								>       EC25  EA        NOP                             A:B8 X:02
								>       EC26  20 DA FA  JSR $FADA                       A:B8 X:02
								>       FADA  70 0A     BVS $FAE6                       A:B8 X:02
								>       FADC  F0 08     BEQ $FAE6                       A:B8 X:02
								>       FADE  10 06     BPL $FAE6                       A:B8 X:02
								>       FAE0  90 04     BCC $FAE6                       A:B8 X:02
								>       FAE2  C9 B8     CMP #$B8                        A:B8 X:02
								>       FAE4  F0 02     BEQ $FAE8                       A:B8 X:02
								>       FAE8  60        RTS                             A:B8 X:02
								>       EC29  A5 47     LDA $47 = 38                    A:B8 X:02
								>       EC2B  C9 38     CMP #$38                        A:38 X:02
								>       EC2D  F0 02     BEQ $EC31                       A:38 X:02
								>       EC31  C8        INY                             A:38 X:02
								>       EC32  A9 EB     LDA #$EB                        A:38 X:02
								>       EC34  8D 47 06  STA $0647 = 38                  A:EB X:02
								>       EC37  20 B1 FA  JSR $FAB1                       A:EB X:02
								>       FAB1  24 01     BIT $01 = FF                    A:EB X:02
								>       FAB3  18        CLC                             A:EB X:02
								>       FAB4  A9 40     LDA #$40                        A:EB X:02
								>       FAB6  60        RTS                             A:40 X:02
								>       EC3A  EF 47 06 *ISB $0647 = EB                  A:40 X:02
								>       EC3D  EA        NOP                             A:53 X:02
								>       EC3E  EA        NOP                             A:53 X:02
								>       EC3F  EA        NOP                             A:53 X:02
								>       EC40  EA        NOP                             A:53 X:02
								>       EC41  20 B7 FA  JSR $FAB7                       A:53 X:02
								>       FAB7  70 2D     BVS $FAE6                       A:53 X:02
								>       FAB9  B0 2B     BCS $FAE6                       A:53 X:02
								>       FABB  30 29     BMI $FAE6                       A:53 X:02
								>       FABD  C9 53     CMP #$53                        A:53 X:02
								>       FABF  D0 25     BNE $FAE6                       A:53 X:02
								>       FAC1  60        RTS                             A:53 X:02
								>       EC44  AD 47 06  LDA $0647 = EC                  A:53 X:02
								>       EC47  C9 EC     CMP #$EC                        A:EC X:02
								>       EC49  F0 02     BEQ $EC4D                       A:EC X:02
								>       EC4D  C8        INY                             A:EC X:02
								>       EC4E  A9 FF     LDA #$FF                        A:EC X:02
								>       EC50  8D 47 06  STA $0647 = EC                  A:FF X:02
								>       EC53  20 C2 FA  JSR $FAC2                       A:FF X:02
								>       FAC2  B8        CLV                             A:FF X:02
								>       FAC3  38        SEC                             A:FF X:02
								>       FAC4  A9 FF     LDA #$FF                        A:FF X:02
								>       FAC6  60        RTS                             A:FF X:02
								>       EC56  EF 47 06 *ISB $0647 = FF                  A:FF X:02
								>       EC59  EA        NOP                             A:FF X:02
								>       EC5A  EA        NOP                             A:FF X:02
								>       EC5B  EA        NOP                             A:FF X:02
								>       EC5C  EA        NOP                             A:FF X:02
								>       EC5D  20 C7 FA  JSR $FAC7                       A:FF X:02
								>       FAC7  70 1D     BVS $FAE6                       A:FF X:02
								>       FAC9  F0 1B     BEQ $FAE6                       A:FF X:02
								>       FACB  10 19     BPL $FAE6                       A:FF X:02
								>       FACD  90 17     BCC $FAE6                       A:FF X:02
								>       FACF  C9 FF     CMP #$FF                        A:FF X:02
								>       FAD1  D0 13     BNE $FAE6                       A:FF X:02
								>       FAD3  60        RTS                             A:FF X:02
								>       EC60  AD 47 06  LDA $0647 = 00                  A:FF X:02
								>       EC63  C9 00     CMP #$00                        A:00 X:02
								>       EC65  F0 02     BEQ $EC69                       A:00 X:02
								>       EC69  C8        INY                             A:00 X:02
								>       EC6A  A9 37     LDA #$37                        A:00 X:02
								>       EC6C  8D 47 06  STA $0647 = 00                  A:37 X:02
								>       EC6F  20 D4 FA  JSR $FAD4                       A:37 X:02
								>       FAD4  24 01     BIT $01 = FF                    A:37 X:02
								>       FAD6  38        SEC                             A:37 X:02
								>       FAD7  A9 F0     LDA #$F0                        A:37 X:02
								>       FAD9  60        RTS                             A:F0 X:02
								>       EC72  EF 47 06 *ISB $0647 = 37                  A:F0 X:02
								>       EC75  EA        NOP                             A:B8 X:02
								>       EC76  EA        NOP                             A:B8 X:02
								>       EC77  EA        NOP                             A:B8 X:02
								>       EC78  EA        NOP                             A:B8 X:02
								>       EC79  20 DA FA  JSR $FADA                       A:B8 X:02
								>       FADA  70 0A     BVS $FAE6                       A:B8 X:02
								>       FADC  F0 08     BEQ $FAE6                       A:B8 X:02
								>       FADE  10 06     BPL $FAE6                       A:B8 X:02
								>       FAE0  90 04     BCC $FAE6                       A:B8 X:02
								>       FAE2  C9 B8     CMP #$B8                        A:B8 X:02
								>       FAE4  F0 02     BEQ $FAE8                       A:B8 X:02
								>       FAE8  60        RTS                             A:B8 X:02
								>       EC7C  AD 47 06  LDA $0647 = 38                  A:B8 X:02
								>       EC7F  C9 38     CMP #$38                        A:38 X:02
								>       EC81  F0 02     BEQ $EC85                       A:38 X:02
								>       EC85  A9 EB     LDA #$EB                        A:38 X:02
								>       EC87  8D 47 06  STA $0647 = 38                  A:EB X:02
								>       EC8A  A9 48     LDA #$48                        A:EB X:02
								>       EC8C  85 45     STA $45 = 48                    A:48 X:02
								>       EC8E  A9 05     LDA #$05                        A:48 X:02
								>       EC90  85 46     STA $46 = 05                    A:05 X:02
								>       EC92  A0 FF     LDY #$FF                        A:05 X:02
								>       EC94  20 B1 FA  JSR $FAB1                       A:05 X:02
								>       FAB1  24 01     BIT $01 = FF                    A:05 X:02
								>       FAB3  18        CLC                             A:05 X:02
								>       FAB4  A9 40     LDA #$40                        A:05 X:02
								>       FAB6  60        RTS                             A:40 X:02
								>       EC97  F3 45    *ISB ($45),Y = 0548 @ 0647 = EB  A:40 X:02
								>       EC99  EA        NOP                             A:53 X:02
								>       EC9A  EA        NOP                             A:53 X:02
								>       EC9B  08        PHP                             A:53 X:02
								>       EC9C  48        PHA                             A:53 X:02
								>       EC9D  A0 B3     LDY #$B3                        A:53 X:02
								>       EC9F  68        PLA                             A:53 X:02
								>       ECA0  28        PLP                             A:53 X:02
								>       ECA1  20 B7 FA  JSR $FAB7                       A:53 X:02
								>       FAB7  70 2D     BVS $FAE6                       A:53 X:02
								>       FAB9  B0 2B     BCS $FAE6                       A:53 X:02
								>       FABB  30 29     BMI $FAE6                       A:53 X:02
								>       FABD  C9 53     CMP #$53                        A:53 X:02
								>       FABF  D0 25     BNE $FAE6                       A:53 X:02
								>       FAC1  60        RTS                             A:53 X:02
								>       ECA4  AD 47 06  LDA $0647 = EC                  A:53 X:02
								>       ECA7  C9 EC     CMP #$EC                        A:EC X:02
								>       ECA9  F0 02     BEQ $ECAD                       A:EC X:02
								>       ECAD  A0 FF     LDY #$FF                        A:EC X:02
								>       ECAF  A9 FF     LDA #$FF                        A:EC X:02
								>       ECB1  8D 47 06  STA $0647 = EC                  A:FF X:02
								>       ECB4  20 C2 FA  JSR $FAC2                       A:FF X:02
								>       FAC2  B8        CLV                             A:FF X:02
								>       FAC3  38        SEC                             A:FF X:02
								>       FAC4  A9 FF     LDA #$FF                        A:FF X:02
								>       FAC6  60        RTS                             A:FF X:02
								>       ECB7  F3 45    *ISB ($45),Y = 0548 @ 0647 = FF  A:FF X:02
								>       ECB9  EA        NOP                             A:FF X:02
								>       ECBA  EA        NOP                             A:FF X:02
								>       ECBB  08        PHP                             A:FF X:02
								>       ECBC  48        PHA                             A:FF X:02
								>       ECBD  A0 B4     LDY #$B4                        A:FF X:02
								>       ECBF  68        PLA                             A:FF X:02
								>       ECC0  28        PLP                             A:FF X:02
								>       ECC1  20 C7 FA  JSR $FAC7                       A:FF X:02
								>       FAC7  70 1D     BVS $FAE6                       A:FF X:02
								>       FAC9  F0 1B     BEQ $FAE6                       A:FF X:02
								>       FACB  10 19     BPL $FAE6                       A:FF X:02
								>       FACD  90 17     BCC $FAE6                       A:FF X:02
								>       FACF  C9 FF     CMP #$FF                        A:FF X:02
								>       FAD1  D0 13     BNE $FAE6                       A:FF X:02
								>       FAD3  60        RTS                             A:FF X:02
								>       ECC4  AD 47 06  LDA $0647 = 00                  A:FF X:02
								>       ECC7  C9 00     CMP #$00                        A:00 X:02
								>       ECC9  F0 02     BEQ $ECCD                       A:00 X:02
								>       ECCD  A0 FF     LDY #$FF                        A:00 X:02
								>       ECCF  A9 37     LDA #$37                        A:00 X:02
								>       ECD1  8D 47 06  STA $0647 = 00                  A:37 X:02
								>       ECD4  20 D4 FA  JSR $FAD4                       A:37 X:02
								>       FAD4  24 01     BIT $01 = FF                    A:37 X:02
								>       FAD6  38        SEC                             A:37 X:02
								>       FAD7  A9 F0     LDA #$F0                        A:37 X:02
								>       FAD9  60        RTS                             A:F0 X:02
								>       ECD7  F3 45    *ISB ($45),Y = 0548 @ 0647 = 37  A:F0 X:02
								>       ECD9  EA        NOP                             A:B8 X:02
								>       ECDA  EA        NOP                             A:B8 X:02
								>       ECDB  08        PHP                             A:B8 X:02
								>       ECDC  48        PHA                             A:B8 X:02
								>       ECDD  A0 B5     LDY #$B5                        A:B8 X:02
								>       ECDF  68        PLA                             A:B8 X:02
								>       ECE0  28        PLP                             A:B8 X:02
								>       ECE1  20 DA FA  JSR $FADA                       A:B8 X:02
								>       FADA  70 0A     BVS $FAE6                       A:B8 X:02
								>       FADC  F0 08     BEQ $FAE6                       A:B8 X:02
								>       FADE  10 06     BPL $FAE6                       A:B8 X:02
								>       FAE0  90 04     BCC $FAE6                       A:B8 X:02
								>       FAE2  C9 B8     CMP #$B8                        A:B8 X:02
								>       FAE4  F0 02     BEQ $FAE8                       A:B8 X:02
								>       FAE8  60        RTS                             A:B8 X:02
								>       ECE4  AD 47 06  LDA $0647 = 38                  A:B8 X:02
								>       ECE7  C9 38     CMP #$38                        A:38 X:02
								>       ECE9  F0 02     BEQ $ECED                       A:38 X:02
								>       ECED  A0 B6     LDY #$B6                        A:38 X:02
								>       ECEF  A2 FF     LDX #$FF                        A:38 X:02
								>       ECF1  A9 EB     LDA #$EB                        A:38 X:FF
								>       ECF3  85 47     STA $47 = 38                    A:EB X:FF
								>       ECF5  20 B1 FA  JSR $FAB1                       A:EB X:FF
								>       FAB1  24 01     BIT $01 = FF                    A:EB X:FF
								>       FAB3  18        CLC                             A:EB X:FF
								>       FAB4  A9 40     LDA #$40                        A:EB X:FF
								>       FAB6  60        RTS                             A:40 X:FF
								>       ECF8  F7 48    *ISB $48,X @ 47 = EB             A:40 X:FF
								>       ECFA  EA        NOP                             A:53 X:FF
								>       ECFB  EA        NOP                             A:53 X:FF
								>       ECFC  EA        NOP                             A:53 X:FF
								>       ECFD  EA        NOP                             A:53 X:FF
								>       ECFE  20 B7 FA  JSR $FAB7                       A:53 X:FF
								>       FAB7  70 2D     BVS $FAE6                       A:53 X:FF
								>       FAB9  B0 2B     BCS $FAE6                       A:53 X:FF
								>       FABB  30 29     BMI $FAE6                       A:53 X:FF
								>       FABD  C9 53     CMP #$53                        A:53 X:FF
								>       FABF  D0 25     BNE $FAE6                       A:53 X:FF
								>       FAC1  60        RTS                             A:53 X:FF
								>       ED01  A5 47     LDA $47 = EC                    A:53 X:FF
								>       ED03  C9 EC     CMP #$EC                        A:EC X:FF
								>       ED05  F0 02     BEQ $ED09                       A:EC X:FF
								>       ED09  C8        INY                             A:EC X:FF
								>       ED0A  A9 FF     LDA #$FF                        A:EC X:FF
								>       ED0C  85 47     STA $47 = EC                    A:FF X:FF
								>       ED0E  20 C2 FA  JSR $FAC2                       A:FF X:FF
								>       FAC2  B8        CLV                             A:FF X:FF
								>       FAC3  38        SEC                             A:FF X:FF
								>       FAC4  A9 FF     LDA #$FF                        A:FF X:FF
								>       FAC6  60        RTS                             A:FF X:FF
								>       ED11  F7 48    *ISB $48,X @ 47 = FF             A:FF X:FF
								>       ED13  EA        NOP                             A:FF X:FF
								>       ED14  EA        NOP                             A:FF X:FF
								>       ED15  EA        NOP                             A:FF X:FF
								>       ED16  EA        NOP                             A:FF X:FF
								>       ED17  20 C7 FA  JSR $FAC7                       A:FF X:FF
								>       FAC7  70 1D     BVS $FAE6                       A:FF X:FF
								>       FAC9  F0 1B     BEQ $FAE6                       A:FF X:FF
								>       FACB  10 19     BPL $FAE6                       A:FF X:FF
								>       FACD  90 17     BCC $FAE6                       A:FF X:FF
								>       FACF  C9 FF     CMP #$FF                        A:FF X:FF
								>       FAD1  D0 13     BNE $FAE6                       A:FF X:FF
								>       FAD3  60        RTS                             A:FF X:FF
								>       ED1A  A5 47     LDA $47 = 00                    A:FF X:FF
								>       ED1C  C9 00     CMP #$00                        A:00 X:FF
								>       ED1E  F0 02     BEQ $ED22                       A:00 X:FF
								>       ED22  C8        INY                             A:00 X:FF
								>       ED23  A9 37     LDA #$37                        A:00 X:FF
								>       ED25  85 47     STA $47 = 00                    A:37 X:FF
								>       ED27  20 D4 FA  JSR $FAD4                       A:37 X:FF
								>       FAD4  24 01     BIT $01 = FF                    A:37 X:FF
								>       FAD6  38        SEC                             A:37 X:FF
								>       FAD7  A9 F0     LDA #$F0                        A:37 X:FF
								>       FAD9  60        RTS                             A:F0 X:FF
								>       ED2A  F7 48    *ISB $48,X @ 47 = 37             A:F0 X:FF
								>       ED2C  EA        NOP                             A:B8 X:FF
								>       ED2D  EA        NOP                             A:B8 X:FF
								>       ED2E  EA        NOP                             A:B8 X:FF
								>       ED2F  EA        NOP                             A:B8 X:FF
								>       ED30  20 DA FA  JSR $FADA                       A:B8 X:FF
								>       FADA  70 0A     BVS $FAE6                       A:B8 X:FF
								>       FADC  F0 08     BEQ $FAE6                       A:B8 X:FF
								>       FADE  10 06     BPL $FAE6                       A:B8 X:FF
								>       FAE0  90 04     BCC $FAE6                       A:B8 X:FF
								>       FAE2  C9 B8     CMP #$B8                        A:B8 X:FF
								>       FAE4  F0 02     BEQ $FAE8                       A:B8 X:FF
								>       FAE8  60        RTS                             A:B8 X:FF
								>       ED33  A5 47     LDA $47 = 38                    A:B8 X:FF
								>       ED35  C9 38     CMP #$38                        A:38 X:FF
								>       ED37  F0 02     BEQ $ED3B                       A:38 X:FF
								>       ED3B  A9 EB     LDA #$EB                        A:38 X:FF
								>       ED3D  8D 47 06  STA $0647 = 38                  A:EB X:FF
								>       ED40  A0 FF     LDY #$FF                        A:EB X:FF
								>       ED42  20 B1 FA  JSR $FAB1                       A:EB X:FF
								>       FAB1  24 01     BIT $01 = FF                    A:EB X:FF
								>       FAB3  18        CLC                             A:EB X:FF
								>       FAB4  A9 40     LDA #$40                        A:EB X:FF
								>       FAB6  60        RTS                             A:40 X:FF
								>       ED45  FB 48 05 *ISB $0548,Y @ 0647 = EB         A:40 X:FF
								>       ED48  EA        NOP                             A:53 X:FF
								>       ED49  EA        NOP                             A:53 X:FF
								>       ED4A  08        PHP                             A:53 X:FF
								>       ED4B  48        PHA                             A:53 X:FF
								>       ED4C  A0 B9     LDY #$B9                        A:53 X:FF
								>       ED4E  68        PLA                             A:53 X:FF
								>       ED4F  28        PLP                             A:53 X:FF
								>       ED50  20 B7 FA  JSR $FAB7                       A:53 X:FF
								>       FAB7  70 2D     BVS $FAE6                       A:53 X:FF
								>       FAB9  B0 2B     BCS $FAE6                       A:53 X:FF
								>       FABB  30 29     BMI $FAE6                       A:53 X:FF
								>       FABD  C9 53     CMP #$53                        A:53 X:FF
								>       FABF  D0 25     BNE $FAE6                       A:53 X:FF
								>       FAC1  60        RTS                             A:53 X:FF
								>       ED53  AD 47 06  LDA $0647 = EC                  A:53 X:FF
								>       ED56  C9 EC     CMP #$EC                        A:EC X:FF
								>       ED58  F0 02     BEQ $ED5C                       A:EC X:FF
								>       ED5C  A0 FF     LDY #$FF                        A:EC X:FF
								>       ED5E  A9 FF     LDA #$FF                        A:EC X:FF
								>       ED60  8D 47 06  STA $0647 = EC                  A:FF X:FF
								>       ED63  20 C2 FA  JSR $FAC2                       A:FF X:FF
								>       FAC2  B8        CLV                             A:FF X:FF
								>       FAC3  38        SEC                             A:FF X:FF
								>       FAC4  A9 FF     LDA #$FF                        A:FF X:FF
								>       FAC6  60        RTS                             A:FF X:FF
								>       ED66  FB 48 05 *ISB $0548,Y @ 0647 = FF         A:FF X:FF
								>       ED69  EA        NOP                             A:FF X:FF
								>       ED6A  EA        NOP                             A:FF X:FF
								>       ED6B  08        PHP                             A:FF X:FF
								>       ED6C  48        PHA                             A:FF X:FF
								>       ED6D  A0 BA     LDY #$BA                        A:FF X:FF
								>       ED6F  68        PLA                             A:FF X:FF
								>       ED70  28        PLP                             A:FF X:FF
								>       ED71  20 C7 FA  JSR $FAC7                       A:FF X:FF
								>       FAC7  70 1D     BVS $FAE6                       A:FF X:FF
								>       FAC9  F0 1B     BEQ $FAE6                       A:FF X:FF
								>       FACB  10 19     BPL $FAE6                       A:FF X:FF
								>       FACD  90 17     BCC $FAE6                       A:FF X:FF
								>       FACF  C9 FF     CMP #$FF                        A:FF X:FF
								>       FAD1  D0 13     BNE $FAE6                       A:FF X:FF
								>       FAD3  60        RTS                             A:FF X:FF
								>       ED74  AD 47 06  LDA $0647 = 00                  A:FF X:FF
								>       ED77  C9 00     CMP #$00                        A:00 X:FF
								>       ED79  F0 02     BEQ $ED7D                       A:00 X:FF
								>       ED7D  A0 FF     LDY #$FF                        A:00 X:FF
								>       ED7F  A9 37     LDA #$37                        A:00 X:FF
								>       ED81  8D 47 06  STA $0647 = 00                  A:37 X:FF
								>       ED84  20 D4 FA  JSR $FAD4                       A:37 X:FF
								>       FAD4  24 01     BIT $01 = FF                    A:37 X:FF
								>       FAD6  38        SEC                             A:37 X:FF
								>       FAD7  A9 F0     LDA #$F0                        A:37 X:FF
								>       FAD9  60        RTS                             A:F0 X:FF
								>       ED87  FB 48 05 *ISB $0548,Y @ 0647 = 37         A:F0 X:FF
								>       ED8A  EA        NOP                             A:B8 X:FF
								>       ED8B  EA        NOP                             A:B8 X:FF
								>       ED8C  08        PHP                             A:B8 X:FF
								>       ED8D  48        PHA                             A:B8 X:FF
								>       ED8E  A0 BB     LDY #$BB                        A:B8 X:FF
								>       ED90  68        PLA                             A:B8 X:FF
								>       ED91  28        PLP                             A:B8 X:FF
								>       ED92  20 DA FA  JSR $FADA                       A:B8 X:FF
								>       FADA  70 0A     BVS $FAE6                       A:B8 X:FF
								>       FADC  F0 08     BEQ $FAE6                       A:B8 X:FF
								>       FADE  10 06     BPL $FAE6                       A:B8 X:FF
								>       FAE0  90 04     BCC $FAE6                       A:B8 X:FF
								>       FAE2  C9 B8     CMP #$B8                        A:B8 X:FF
								>       FAE4  F0 02     BEQ $FAE8                       A:B8 X:FF
								>       FAE8  60        RTS                             A:B8 X:FF
								>       ED95  AD 47 06  LDA $0647 = 38                  A:B8 X:FF
								>       ED98  C9 38     CMP #$38                        A:38 X:FF
								>       ED9A  F0 02     BEQ $ED9E                       A:38 X:FF
								>       ED9E  A0 BC     LDY #$BC                        A:38 X:FF
								>       EDA0  A2 FF     LDX #$FF                        A:38 X:FF
								>       EDA2  A9 EB     LDA #$EB                        A:38 X:FF
								>       EDA4  8D 47 06  STA $0647 = 38                  A:EB X:FF
								>       EDA7  20 B1 FA  JSR $FAB1                       A:EB X:FF
								>       FAB1  24 01     BIT $01 = FF                    A:EB X:FF
								>       FAB3  18        CLC                             A:EB X:FF
								>       FAB4  A9 40     LDA #$40                        A:EB X:FF
								>       FAB6  60        RTS                             A:40 X:FF
								>       EDAA  FF 48 05 *ISB $0548,X @ 0647 = EB         A:40 X:FF
								>       EDAD  EA        NOP                             A:53 X:FF
								>       EDAE  EA        NOP                             A:53 X:FF
								>       EDAF  EA        NOP                             A:53 X:FF
								>       EDB0  EA        NOP                             A:53 X:FF
								>       EDB1  20 B7 FA  JSR $FAB7                       A:53 X:FF
								>       FAB7  70 2D     BVS $FAE6                       A:53 X:FF
								>       FAB9  B0 2B     BCS $FAE6                       A:53 X:FF
								>       FABB  30 29     BMI $FAE6                       A:53 X:FF
								>       FABD  C9 53     CMP #$53                        A:53 X:FF
								>       FABF  D0 25     BNE $FAE6                       A:53 X:FF
								>       FAC1  60        RTS                             A:53 X:FF
								>       EDB4  AD 47 06  LDA $0647 = EC                  A:53 X:FF
								>       EDB7  C9 EC     CMP #$EC                        A:EC X:FF
								>       EDB9  F0 02     BEQ $EDBD                       A:EC X:FF
								>       EDBD  C8        INY                             A:EC X:FF
								>       EDBE  A9 FF     LDA #$FF                        A:EC X:FF
								>       EDC0  8D 47 06  STA $0647 = EC                  A:FF X:FF
								>       EDC3  20 C2 FA  JSR $FAC2                       A:FF X:FF
								>       FAC2  B8        CLV                             A:FF X:FF
								>       FAC3  38        SEC                             A:FF X:FF
								>       FAC4  A9 FF     LDA #$FF                        A:FF X:FF
								>       FAC6  60        RTS                             A:FF X:FF
								>       EDC6  FF 48 05 *ISB $0548,X @ 0647 = FF         A:FF X:FF
								>       EDC9  EA        NOP                             A:FF X:FF
								>       EDCA  EA        NOP                             A:FF X:FF
								>       EDCB  EA        NOP                             A:FF X:FF
								>       EDCC  EA        NOP                             A:FF X:FF
								>       EDCD  20 C7 FA  JSR $FAC7                       A:FF X:FF
								>       FAC7  70 1D     BVS $FAE6                       A:FF X:FF
								>       FAC9  F0 1B     BEQ $FAE6                       A:FF X:FF
								>       FACB  10 19     BPL $FAE6                       A:FF X:FF
								>       FACD  90 17     BCC $FAE6                       A:FF X:FF
								>       FACF  C9 FF     CMP #$FF                        A:FF X:FF
								>       FAD1  D0 13     BNE $FAE6                       A:FF X:FF
								>       FAD3  60        RTS                             A:FF X:FF
								>       EDD0  AD 47 06  LDA $0647 = 00                  A:FF X:FF
								>       EDD3  C9 00     CMP #$00                        A:00 X:FF
								>       EDD5  F0 02     BEQ $EDD9                       A:00 X:FF
								>       EDD9  C8        INY                             A:00 X:FF
								>       EDDA  A9 37     LDA #$37                        A:00 X:FF
								>       EDDC  8D 47 06  STA $0647 = 00                  A:37 X:FF
								>       EDDF  20 D4 FA  JSR $FAD4                       A:37 X:FF
								>       FAD4  24 01     BIT $01 = FF                    A:37 X:FF
								>       FAD6  38        SEC                             A:37 X:FF
								>       FAD7  A9 F0     LDA #$F0                        A:37 X:FF
								>       FAD9  60        RTS                             A:F0 X:FF
								>       EDE2  FF 48 05 *ISB $0548,X @ 0647 = 37         A:F0 X:FF
								>       EDE5  EA        NOP                             A:B8 X:FF
								>       EDE6  EA        NOP                             A:B8 X:FF
								>       EDE7  EA        NOP                             A:B8 X:FF
								>       EDE8  EA        NOP                             A:B8 X:FF
								>       EDE9  20 DA FA  JSR $FADA                       A:B8 X:FF
								>       FADA  70 0A     BVS $FAE6                       A:B8 X:FF
								>       FADC  F0 08     BEQ $FAE6                       A:B8 X:FF
								>       FADE  10 06     BPL $FAE6                       A:B8 X:FF
								>       FAE0  90 04     BCC $FAE6                       A:B8 X:FF
								>       FAE2  C9 B8     CMP #$B8                        A:B8 X:FF
								>       FAE4  F0 02     BEQ $FAE8                       A:B8 X:FF
								>       FAE8  60        RTS                             A:B8 X:FF
								>       EDEC  AD 47 06  LDA $0647 = 38                  A:B8 X:FF
								>       EDEF  C9 38     CMP #$38                        A:38 X:FF
								>       EDF1  F0 02     BEQ $EDF5                       A:38 X:FF
								>       EDF5  60        RTS                             A:38 X:FF
								>       C641  20 F6 ED  JSR $EDF6                       A:38 X:FF
								>       EDF6  A9 FF     LDA #$FF                        A:38 X:FF
								>       EDF8  85 01     STA $01 = FF                    A:FF X:FF
								>       EDFA  A0 BF     LDY #$BF                        A:FF X:FF
								>       EDFC  A2 02     LDX #$02                        A:FF X:FF
								>       EDFE  A9 47     LDA #$47                        A:FF X:02
								>       EE00  85 47     STA $47 = 38                    A:47 X:02
								>       EE02  A9 06     LDA #$06                        A:47 X:02
								>       EE04  85 48     STA $48 = 06                    A:06 X:02
								>       EE06  A9 A5     LDA #$A5                        A:06 X:02
								>       EE08  8D 47 06  STA $0647 = 38                  A:A5 X:02
								>       EE0B  20 7B FA  JSR $FA7B                       A:A5 X:02
								>       FA7B  24 01     BIT $01 = FF                    A:A5 X:02
								>       FA7D  18        CLC                             A:A5 X:02
								>       FA7E  A9 B3     LDA #$B3                        A:A5 X:02
								>       FA80  60        RTS                             A:B3 X:02
								>       EE0E  03 45    *SLO ($45,X) @ 47 = 0647 = A5    A:B3 X:02
								>       EE10  EA        NOP                             A:FB X:02
								>       EE11  EA        NOP                             A:FB X:02
								>       EE12  EA        NOP                             A:FB X:02
								>       EE13  EA        NOP                             A:FB X:02
								>       EE14  20 81 FA  JSR $FA81                       A:FB X:02
								>       FA81  50 63     BVC $FAE6                       A:FB X:02
								>       FA83  90 61     BCC $FAE6                       A:FB X:02
								>       FA85  10 5F     BPL $FAE6                       A:FB X:02
								>       FA87  C9 FB     CMP #$FB                        A:FB X:02
								>       FA89  D0 5B     BNE $FAE6                       A:FB X:02
								>       FA8B  60        RTS                             A:FB X:02
								>       EE17  AD 47 06  LDA $0647 = 4A                  A:FB X:02
								>       EE1A  C9 4A     CMP #$4A                        A:4A X:02
								>       EE1C  F0 02     BEQ $EE20                       A:4A X:02
								>       EE20  C8        INY                             A:4A X:02
								>       EE21  A9 29     LDA #$29                        A:4A X:02
								>       EE23  8D 47 06  STA $0647 = 4A                  A:29 X:02
								>       EE26  20 8C FA  JSR $FA8C                       A:29 X:02
								>       FA8C  B8        CLV                             A:29 X:02
								>       FA8D  18        CLC                             A:29 X:02
								>       FA8E  A9 C3     LDA #$C3                        A:29 X:02
								>       FA90  60        RTS                             A:C3 X:02
								>       EE29  03 45    *SLO ($45,X) @ 47 = 0647 = 29    A:C3 X:02
								>       EE2B  EA        NOP                             A:D3 X:02
								>       EE2C  EA        NOP                             A:D3 X:02
								>       EE2D  EA        NOP                             A:D3 X:02
								>       EE2E  EA        NOP                             A:D3 X:02
								>       EE2F  20 91 FA  JSR $FA91                       A:D3 X:02
								>       FA91  70 53     BVS $FAE6                       A:D3 X:02
								>       FA93  F0 51     BEQ $FAE6                       A:D3 X:02
								>       FA95  10 4F     BPL $FAE6                       A:D3 X:02
								>       FA97  B0 4D     BCS $FAE6                       A:D3 X:02
								>       FA99  C9 D3     CMP #$D3                        A:D3 X:02
								>       FA9B  D0 49     BNE $FAE6                       A:D3 X:02
								>       FA9D  60        RTS                             A:D3 X:02
								>       EE32  AD 47 06  LDA $0647 = 52                  A:D3 X:02
								>       EE35  C9 52     CMP #$52                        A:52 X:02
								>       EE37  F0 02     BEQ $EE3B                       A:52 X:02
								>       EE3B  C8        INY                             A:52 X:02
								>       EE3C  A9 37     LDA #$37                        A:52 X:02
								>       EE3E  8D 47 06  STA $0647 = 52                  A:37 X:02
								>       EE41  20 9E FA  JSR $FA9E                       A:37 X:02
								>       FA9E  24 01     BIT $01 = FF                    A:37 X:02
								>       FAA0  38        SEC                             A:37 X:02
								>       FAA1  A9 10     LDA #$10                        A:37 X:02
								>       FAA3  60        RTS                             A:10 X:02
								>       EE44  03 45    *SLO ($45,X) @ 47 = 0647 = 37    A:10 X:02
								>       EE46  EA        NOP                             A:7E X:02
								>       EE47  EA        NOP                             A:7E X:02
								>       EE48  EA        NOP                             A:7E X:02
								>       EE49  EA        NOP                             A:7E X:02
								>       EE4A  20 A4 FA  JSR $FAA4                       A:7E X:02
								>       FAA4  50 40     BVC $FAE6                       A:7E X:02
								>       FAA6  F0 3E     BEQ $FAE6                       A:7E X:02
								>       FAA8  30 3C     BMI $FAE6                       A:7E X:02
								>       FAAA  B0 3A     BCS $FAE6                       A:7E X:02
								>       FAAC  C9 7E     CMP #$7E                        A:7E X:02
								>       FAAE  D0 36     BNE $FAE6                       A:7E X:02
								>       FAB0  60        RTS                             A:7E X:02
								>       EE4D  AD 47 06  LDA $0647 = 6E                  A:7E X:02
								>       EE50  C9 6E     CMP #$6E                        A:6E X:02
								>       EE52  F0 02     BEQ $EE56                       A:6E X:02
								>       EE56  C8        INY                             A:6E X:02
								>       EE57  A9 A5     LDA #$A5                        A:6E X:02
								>       EE59  85 47     STA $47 = 47                    A:A5 X:02
								>       EE5B  20 7B FA  JSR $FA7B                       A:A5 X:02
								>       FA7B  24 01     BIT $01 = FF                    A:A5 X:02
								>       FA7D  18        CLC                             A:A5 X:02
								>       FA7E  A9 B3     LDA #$B3                        A:A5 X:02
								>       FA80  60        RTS                             A:B3 X:02
								>       EE5E  07 47    *SLO $47 = A5                    A:B3 X:02
								>       EE60  EA        NOP                             A:FB X:02
								>       EE61  EA        NOP                             A:FB X:02
								>       EE62  EA        NOP                             A:FB X:02
								>       EE63  EA        NOP                             A:FB X:02
								>       EE64  20 81 FA  JSR $FA81                       A:FB X:02
								>       FA81  50 63     BVC $FAE6                       A:FB X:02
								>       FA83  90 61     BCC $FAE6                       A:FB X:02
								>       FA85  10 5F     BPL $FAE6                       A:FB X:02
								>       FA87  C9 FB     CMP #$FB                        A:FB X:02
								>       FA89  D0 5B     BNE $FAE6                       A:FB X:02
								>       FA8B  60        RTS                             A:FB X:02
								>       EE67  A5 47     LDA $47 = 4A                    A:FB X:02
								>       EE69  C9 4A     CMP #$4A                        A:4A X:02
								>       EE6B  F0 02     BEQ $EE6F                       A:4A X:02
								>       EE6F  C8        INY                             A:4A X:02
								>       EE70  A9 29     LDA #$29                        A:4A X:02
								>       EE72  85 47     STA $47 = 4A                    A:29 X:02
								>       EE74  20 8C FA  JSR $FA8C                       A:29 X:02
								>       FA8C  B8        CLV                             A:29 X:02
								>       FA8D  18        CLC                             A:29 X:02
								>       FA8E  A9 C3     LDA #$C3                        A:29 X:02
								>       FA90  60        RTS                             A:C3 X:02
								>       EE77  07 47    *SLO $47 = 29                    A:C3 X:02
								>       EE79  EA        NOP                             A:D3 X:02
								>       EE7A  EA        NOP                             A:D3 X:02
								>       EE7B  EA        NOP                             A:D3 X:02
								>       EE7C  EA        NOP                             A:D3 X:02
								>       EE7D  20 91 FA  JSR $FA91                       A:D3 X:02
								>       FA91  70 53     BVS $FAE6                       A:D3 X:02
								>       FA93  F0 51     BEQ $FAE6                       A:D3 X:02
								>       FA95  10 4F     BPL $FAE6                       A:D3 X:02
								>       FA97  B0 4D     BCS $FAE6                       A:D3 X:02
								>       FA99  C9 D3     CMP #$D3                        A:D3 X:02
								>       FA9B  D0 49     BNE $FAE6                       A:D3 X:02
								>       FA9D  60        RTS                             A:D3 X:02
								>       EE80  A5 47     LDA $47 = 52                    A:D3 X:02
								>       EE82  C9 52     CMP #$52                        A:52 X:02
								>       EE84  F0 02     BEQ $EE88                       A:52 X:02
								>       EE88  C8        INY                             A:52 X:02
								>       EE89  A9 37     LDA #$37                        A:52 X:02
								>       EE8B  85 47     STA $47 = 52                    A:37 X:02
								>       EE8D  20 9E FA  JSR $FA9E                       A:37 X:02
								>       FA9E  24 01     BIT $01 = FF                    A:37 X:02
								>       FAA0  38        SEC                             A:37 X:02
								>       FAA1  A9 10     LDA #$10                        A:37 X:02
								>       FAA3  60        RTS                             A:10 X:02
								>       EE90  07 47    *SLO $47 = 37                    A:10 X:02
								>       EE92  EA        NOP                             A:7E X:02
								>       EE93  EA        NOP                             A:7E X:02
								>       EE94  EA        NOP                             A:7E X:02
								>       EE95  EA        NOP                             A:7E X:02
								>       EE96  20 A4 FA  JSR $FAA4                       A:7E X:02
								>       FAA4  50 40     BVC $FAE6                       A:7E X:02
								>       FAA6  F0 3E     BEQ $FAE6                       A:7E X:02
								>       FAA8  30 3C     BMI $FAE6                       A:7E X:02
								>       FAAA  B0 3A     BCS $FAE6                       A:7E X:02
								>       FAAC  C9 7E     CMP #$7E                        A:7E X:02
								>       FAAE  D0 36     BNE $FAE6                       A:7E X:02
								>       FAB0  60        RTS                             A:7E X:02
								>       EE99  A5 47     LDA $47 = 6E                    A:7E X:02
								>       EE9B  C9 6E     CMP #$6E                        A:6E X:02
								>       EE9D  F0 02     BEQ $EEA1                       A:6E X:02
								>       EEA1  C8        INY                             A:6E X:02
								>       EEA2  A9 A5     LDA #$A5                        A:6E X:02
								>       EEA4  8D 47 06  STA $0647 = 6E                  A:A5 X:02
								>       EEA7  20 7B FA  JSR $FA7B                       A:A5 X:02
								>       FA7B  24 01     BIT $01 = FF                    A:A5 X:02
								>       FA7D  18        CLC                             A:A5 X:02
								>       FA7E  A9 B3     LDA #$B3                        A:A5 X:02
								>       FA80  60        RTS                             A:B3 X:02
								>       EEAA  0F 47 06 *SLO $0647 = A5                  A:B3 X:02
								>       EEAD  EA        NOP                             A:FB X:02
								>       EEAE  EA        NOP                             A:FB X:02
								>       EEAF  EA        NOP                             A:FB X:02
								>       EEB0  EA        NOP                             A:FB X:02
								>       EEB1  20 81 FA  JSR $FA81                       A:FB X:02
								>       FA81  50 63     BVC $FAE6                       A:FB X:02
								>       FA83  90 61     BCC $FAE6                       A:FB X:02
								>       FA85  10 5F     BPL $FAE6                       A:FB X:02
								>       FA87  C9 FB     CMP #$FB                        A:FB X:02
								>       FA89  D0 5B     BNE $FAE6                       A:FB X:02
								>       FA8B  60        RTS                             A:FB X:02
								>       EEB4  AD 47 06  LDA $0647 = 4A                  A:FB X:02
								>       EEB7  C9 4A     CMP #$4A                        A:4A X:02
								>       EEB9  F0 02     BEQ $EEBD                       A:4A X:02
								>       EEBD  C8        INY                             A:4A X:02
								>       EEBE  A9 29     LDA #$29                        A:4A X:02
								>       EEC0  8D 47 06  STA $0647 = 4A                  A:29 X:02
								>       EEC3  20 8C FA  JSR $FA8C                       A:29 X:02
								>       FA8C  B8        CLV                             A:29 X:02
								>       FA8D  18        CLC                             A:29 X:02
								>       FA8E  A9 C3     LDA #$C3                        A:29 X:02
								>       FA90  60        RTS                             A:C3 X:02
								>       EEC6  0F 47 06 *SLO $0647 = 29                  A:C3 X:02
								>       EEC9  EA        NOP                             A:D3 X:02
								>       EECA  EA        NOP                             A:D3 X:02
								>       EECB  EA        NOP                             A:D3 X:02
								>       EECC  EA        NOP                             A:D3 X:02
								>       EECD  20 91 FA  JSR $FA91                       A:D3 X:02
								>       FA91  70 53     BVS $FAE6                       A:D3 X:02
								>       FA93  F0 51     BEQ $FAE6                       A:D3 X:02
								>       FA95  10 4F     BPL $FAE6                       A:D3 X:02
								>       FA97  B0 4D     BCS $FAE6                       A:D3 X:02
								>       FA99  C9 D3     CMP #$D3                        A:D3 X:02
								>       FA9B  D0 49     BNE $FAE6                       A:D3 X:02
								>       FA9D  60        RTS                             A:D3 X:02
								>       EED0  AD 47 06  LDA $0647 = 52                  A:D3 X:02
								>       EED3  C9 52     CMP #$52                        A:52 X:02
								>       EED5  F0 02     BEQ $EED9                       A:52 X:02
								>       EED9  C8        INY                             A:52 X:02
								>       EEDA  A9 37     LDA #$37                        A:52 X:02
								>       EEDC  8D 47 06  STA $0647 = 52                  A:37 X:02
								>       EEDF  20 9E FA  JSR $FA9E                       A:37 X:02
								>       FA9E  24 01     BIT $01 = FF                    A:37 X:02
								>       FAA0  38        SEC                             A:37 X:02
								>       FAA1  A9 10     LDA #$10                        A:37 X:02
								>       FAA3  60        RTS                             A:10 X:02
								>       EEE2  0F 47 06 *SLO $0647 = 37                  A:10 X:02
								>       EEE5  EA        NOP                             A:7E X:02
								>       EEE6  EA        NOP                             A:7E X:02
								>       EEE7  EA        NOP                             A:7E X:02
								>       EEE8  EA        NOP                             A:7E X:02
								>       EEE9  20 A4 FA  JSR $FAA4                       A:7E X:02
								>       FAA4  50 40     BVC $FAE6                       A:7E X:02
								>       FAA6  F0 3E     BEQ $FAE6                       A:7E X:02
								>       FAA8  30 3C     BMI $FAE6                       A:7E X:02
								>       FAAA  B0 3A     BCS $FAE6                       A:7E X:02
								>       FAAC  C9 7E     CMP #$7E                        A:7E X:02
								>       FAAE  D0 36     BNE $FAE6                       A:7E X:02
								>       FAB0  60        RTS                             A:7E X:02
								>       EEEC  AD 47 06  LDA $0647 = 6E                  A:7E X:02
								>       EEEF  C9 6E     CMP #$6E                        A:6E X:02
								>       EEF1  F0 02     BEQ $EEF5                       A:6E X:02
								>       EEF5  A9 A5     LDA #$A5                        A:6E X:02
								>       EEF7  8D 47 06  STA $0647 = 6E                  A:A5 X:02
								>       EEFA  A9 48     LDA #$48                        A:A5 X:02
								>       EEFC  85 45     STA $45 = 48                    A:48 X:02
								>       EEFE  A9 05     LDA #$05                        A:48 X:02
								>       EF00  85 46     STA $46 = 05                    A:05 X:02
								>       EF02  A0 FF     LDY #$FF                        A:05 X:02
								>       EF04  20 7B FA  JSR $FA7B                       A:05 X:02
								>       FA7B  24 01     BIT $01 = FF                    A:05 X:02
								>       FA7D  18        CLC                             A:05 X:02
								>       FA7E  A9 B3     LDA #$B3                        A:05 X:02
								>       FA80  60        RTS                             A:B3 X:02
								>       EF07  13 45    *SLO ($45),Y = 0548 @ 0647 = A5  A:B3 X:02
								>       EF09  EA        NOP                             A:FB X:02
								>       EF0A  EA        NOP                             A:FB X:02
								>       EF0B  08        PHP                             A:FB X:02
								>       EF0C  48        PHA                             A:FB X:02
								>       EF0D  A0 C8     LDY #$C8                        A:FB X:02
								>       EF0F  68        PLA                             A:FB X:02
								>       EF10  28        PLP                             A:FB X:02
								>       EF11  20 81 FA  JSR $FA81                       A:FB X:02
								>       FA81  50 63     BVC $FAE6                       A:FB X:02
								>       FA83  90 61     BCC $FAE6                       A:FB X:02
								>       FA85  10 5F     BPL $FAE6                       A:FB X:02
								>       FA87  C9 FB     CMP #$FB                        A:FB X:02
								>       FA89  D0 5B     BNE $FAE6                       A:FB X:02
								>       FA8B  60        RTS                             A:FB X:02
								>       EF14  AD 47 06  LDA $0647 = 4A                  A:FB X:02
								>       EF17  C9 4A     CMP #$4A                        A:4A X:02
								>       EF19  F0 02     BEQ $EF1D                       A:4A X:02
								>       EF1D  A0 FF     LDY #$FF                        A:4A X:02
								>       EF1F  A9 29     LDA #$29                        A:4A X:02
								>       EF21  8D 47 06  STA $0647 = 4A                  A:29 X:02
								>       EF24  20 8C FA  JSR $FA8C                       A:29 X:02
								>       FA8C  B8        CLV                             A:29 X:02
								>       FA8D  18        CLC                             A:29 X:02
								>       FA8E  A9 C3     LDA #$C3                        A:29 X:02
								>       FA90  60        RTS                             A:C3 X:02
								>       EF27  13 45    *SLO ($45),Y = 0548 @ 0647 = 29  A:C3 X:02
								>       EF29  EA        NOP                             A:D3 X:02
								>       EF2A  EA        NOP                             A:D3 X:02
								>       EF2B  08        PHP                             A:D3 X:02
								>       EF2C  48        PHA                             A:D3 X:02
								>       EF2D  A0 C9     LDY #$C9                        A:D3 X:02
								>       EF2F  68        PLA                             A:D3 X:02
								>       EF30  28        PLP                             A:D3 X:02
								>       EF31  20 91 FA  JSR $FA91                       A:D3 X:02
								>       FA91  70 53     BVS $FAE6                       A:D3 X:02
								>       FA93  F0 51     BEQ $FAE6                       A:D3 X:02
								>       FA95  10 4F     BPL $FAE6                       A:D3 X:02
								>       FA97  B0 4D     BCS $FAE6                       A:D3 X:02
								>       FA99  C9 D3     CMP #$D3                        A:D3 X:02
								>       FA9B  D0 49     BNE $FAE6                       A:D3 X:02
								>       FA9D  60        RTS                             A:D3 X:02
								>       EF34  AD 47 06  LDA $0647 = 52                  A:D3 X:02
								>       EF37  C9 52     CMP #$52                        A:52 X:02
								>       EF39  F0 02     BEQ $EF3D                       A:52 X:02
								>       EF3D  A0 FF     LDY #$FF                        A:52 X:02
								>       EF3F  A9 37     LDA #$37                        A:52 X:02
								>       EF41  8D 47 06  STA $0647 = 52                  A:37 X:02
								>       EF44  20 9E FA  JSR $FA9E                       A:37 X:02
								>       FA9E  24 01     BIT $01 = FF                    A:37 X:02
								>       FAA0  38        SEC                             A:37 X:02
								>       FAA1  A9 10     LDA #$10                        A:37 X:02
								>       FAA3  60        RTS                             A:10 X:02
								>       EF47  13 45    *SLO ($45),Y = 0548 @ 0647 = 37  A:10 X:02
								>       EF49  EA        NOP                             A:7E X:02
								>       EF4A  EA        NOP                             A:7E X:02
								>       EF4B  08        PHP                             A:7E X:02
								>       EF4C  48        PHA                             A:7E X:02
								>       EF4D  A0 CA     LDY #$CA                        A:7E X:02
								>       EF4F  68        PLA                             A:7E X:02
								>       EF50  28        PLP                             A:7E X:02
								>       EF51  20 A4 FA  JSR $FAA4                       A:7E X:02
								>       FAA4  50 40     BVC $FAE6                       A:7E X:02
								>       FAA6  F0 3E     BEQ $FAE6                       A:7E X:02
								>       FAA8  30 3C     BMI $FAE6                       A:7E X:02
								>       FAAA  B0 3A     BCS $FAE6                       A:7E X:02
								>       FAAC  C9 7E     CMP #$7E                        A:7E X:02
								>       FAAE  D0 36     BNE $FAE6                       A:7E X:02
								>       FAB0  60        RTS                             A:7E X:02
								>       EF54  AD 47 06  LDA $0647 = 6E                  A:7E X:02
								>       EF57  C9 6E     CMP #$6E                        A:6E X:02
								>       EF59  F0 02     BEQ $EF5D                       A:6E X:02
								>       EF5D  A0 CB     LDY #$CB                        A:6E X:02
								>       EF5F  A2 FF     LDX #$FF                        A:6E X:02
								>       EF61  A9 A5     LDA #$A5                        A:6E X:FF
								>       EF63  85 47     STA $47 = 6E                    A:A5 X:FF
								>       EF65  20 7B FA  JSR $FA7B                       A:A5 X:FF
								>       FA7B  24 01     BIT $01 = FF                    A:A5 X:FF
								>       FA7D  18        CLC                             A:A5 X:FF
								>       FA7E  A9 B3     LDA #$B3                        A:A5 X:FF
								>       FA80  60        RTS                             A:B3 X:FF
								>       EF68  17 48    *SLO $48,X @ 47 = A5             A:B3 X:FF
								>       EF6A  EA        NOP                             A:FB X:FF
								>       EF6B  EA        NOP                             A:FB X:FF
								>       EF6C  EA        NOP                             A:FB X:FF
								>       EF6D  EA        NOP                             A:FB X:FF
								>       EF6E  20 81 FA  JSR $FA81                       A:FB X:FF
								>       FA81  50 63     BVC $FAE6                       A:FB X:FF
								>       FA83  90 61     BCC $FAE6                       A:FB X:FF
								>       FA85  10 5F     BPL $FAE6                       A:FB X:FF
								>       FA87  C9 FB     CMP #$FB                        A:FB X:FF
								>       FA89  D0 5B     BNE $FAE6                       A:FB X:FF
								>       FA8B  60        RTS                             A:FB X:FF
								>       EF71  A5 47     LDA $47 = 4A                    A:FB X:FF
								>       EF73  C9 4A     CMP #$4A                        A:4A X:FF
								>       EF75  F0 02     BEQ $EF79                       A:4A X:FF
								>       EF79  C8        INY                             A:4A X:FF
								>       EF7A  A9 29     LDA #$29                        A:4A X:FF
								>       EF7C  85 47     STA $47 = 4A                    A:29 X:FF
								>       EF7E  20 8C FA  JSR $FA8C                       A:29 X:FF
								>       FA8C  B8        CLV                             A:29 X:FF
								>       FA8D  18        CLC                             A:29 X:FF
								>       FA8E  A9 C3     LDA #$C3                        A:29 X:FF
								>       FA90  60        RTS                             A:C3 X:FF
								>       EF81  17 48    *SLO $48,X @ 47 = 29             A:C3 X:FF
								>       EF83  EA        NOP                             A:D3 X:FF
								>       EF84  EA        NOP                             A:D3 X:FF
								>       EF85  EA        NOP                             A:D3 X:FF
								>       EF86  EA        NOP                             A:D3 X:FF
								>       EF87  20 91 FA  JSR $FA91                       A:D3 X:FF
								>       FA91  70 53     BVS $FAE6                       A:D3 X:FF
								>       FA93  F0 51     BEQ $FAE6                       A:D3 X:FF
								>       FA95  10 4F     BPL $FAE6                       A:D3 X:FF
								>       FA97  B0 4D     BCS $FAE6                       A:D3 X:FF
								>       FA99  C9 D3     CMP #$D3                        A:D3 X:FF
								>       FA9B  D0 49     BNE $FAE6                       A:D3 X:FF
								>       FA9D  60        RTS                             A:D3 X:FF
								>       EF8A  A5 47     LDA $47 = 52                    A:D3 X:FF
								>       EF8C  C9 52     CMP #$52                        A:52 X:FF
								>       EF8E  F0 02     BEQ $EF92                       A:52 X:FF
								>       EF92  C8        INY                             A:52 X:FF
								>       EF93  A9 37     LDA #$37                        A:52 X:FF
								>       EF95  85 47     STA $47 = 52                    A:37 X:FF
								>       EF97  20 9E FA  JSR $FA9E                       A:37 X:FF
								>       FA9E  24 01     BIT $01 = FF                    A:37 X:FF
								>       FAA0  38        SEC                             A:37 X:FF
								>       FAA1  A9 10     LDA #$10                        A:37 X:FF
								>       FAA3  60        RTS                             A:10 X:FF
								>       EF9A  17 48    *SLO $48,X @ 47 = 37             A:10 X:FF
								>       EF9C  EA        NOP                             A:7E X:FF
								>       EF9D  EA        NOP                             A:7E X:FF
								>       EF9E  EA        NOP                             A:7E X:FF
								>       EF9F  EA        NOP                             A:7E X:FF
								>       EFA0  20 A4 FA  JSR $FAA4                       A:7E X:FF
								>       FAA4  50 40     BVC $FAE6                       A:7E X:FF
								>       FAA6  F0 3E     BEQ $FAE6                       A:7E X:FF
								>       FAA8  30 3C     BMI $FAE6                       A:7E X:FF
								>       FAAA  B0 3A     BCS $FAE6                       A:7E X:FF
								>       FAAC  C9 7E     CMP #$7E                        A:7E X:FF
								>       FAAE  D0 36     BNE $FAE6                       A:7E X:FF
								>       FAB0  60        RTS                             A:7E X:FF
								>       EFA3  A5 47     LDA $47 = 6E                    A:7E X:FF
								>       EFA5  C9 6E     CMP #$6E                        A:6E X:FF
								>       EFA7  F0 02     BEQ $EFAB                       A:6E X:FF
								>       EFAB  A9 A5     LDA #$A5                        A:6E X:FF
								>       EFAD  8D 47 06  STA $0647 = 6E                  A:A5 X:FF
								>       EFB0  A0 FF     LDY #$FF                        A:A5 X:FF
								>       EFB2  20 7B FA  JSR $FA7B                       A:A5 X:FF
								>       FA7B  24 01     BIT $01 = FF                    A:A5 X:FF
								>       FA7D  18        CLC                             A:A5 X:FF
								>       FA7E  A9 B3     LDA #$B3                        A:A5 X:FF
								>       FA80  60        RTS                             A:B3 X:FF
								>       EFB5  1B 48 05 *SLO $0548,Y @ 0647 = A5         A:B3 X:FF
								>       EFB8  EA        NOP                             A:FB X:FF
								>       EFB9  EA        NOP                             A:FB X:FF
								>       EFBA  08        PHP                             A:FB X:FF
								>       EFBB  48        PHA                             A:FB X:FF
								>       EFBC  A0 CE     LDY #$CE                        A:FB X:FF
								>       EFBE  68        PLA                             A:FB X:FF
								>       EFBF  28        PLP                             A:FB X:FF
								>       EFC0  20 81 FA  JSR $FA81                       A:FB X:FF
								>       FA81  50 63     BVC $FAE6                       A:FB X:FF
								>       FA83  90 61     BCC $FAE6                       A:FB X:FF
								>       FA85  10 5F     BPL $FAE6                       A:FB X:FF
								>       FA87  C9 FB     CMP #$FB                        A:FB X:FF
								>       FA89  D0 5B     BNE $FAE6                       A:FB X:FF
								>       FA8B  60        RTS                             A:FB X:FF
								>       EFC3  AD 47 06  LDA $0647 = 4A                  A:FB X:FF
								>       EFC6  C9 4A     CMP #$4A                        A:4A X:FF
								>       EFC8  F0 02     BEQ $EFCC                       A:4A X:FF
								>       EFCC  A0 FF     LDY #$FF                        A:4A X:FF
								>       EFCE  A9 29     LDA #$29                        A:4A X:FF
								>       EFD0  8D 47 06  STA $0647 = 4A                  A:29 X:FF
								>       EFD3  20 8C FA  JSR $FA8C                       A:29 X:FF
								>       FA8C  B8        CLV                             A:29 X:FF
								>       FA8D  18        CLC                             A:29 X:FF
								>       FA8E  A9 C3     LDA #$C3                        A:29 X:FF
								>       FA90  60        RTS                             A:C3 X:FF
								>       EFD6  1B 48 05 *SLO $0548,Y @ 0647 = 29         A:C3 X:FF
								>       EFD9  EA        NOP                             A:D3 X:FF
								>       EFDA  EA        NOP                             A:D3 X:FF
								>       EFDB  08        PHP                             A:D3 X:FF
								>       EFDC  48        PHA                             A:D3 X:FF
								>       EFDD  A0 CF     LDY #$CF                        A:D3 X:FF
								>       EFDF  68        PLA                             A:D3 X:FF
								>       EFE0  28        PLP                             A:D3 X:FF
								>       EFE1  20 91 FA  JSR $FA91                       A:D3 X:FF
								>       FA91  70 53     BVS $FAE6                       A:D3 X:FF
								>       FA93  F0 51     BEQ $FAE6                       A:D3 X:FF
								>       FA95  10 4F     BPL $FAE6                       A:D3 X:FF
								>       FA97  B0 4D     BCS $FAE6                       A:D3 X:FF
								>       FA99  C9 D3     CMP #$D3                        A:D3 X:FF
								>       FA9B  D0 49     BNE $FAE6                       A:D3 X:FF
								>       FA9D  60        RTS                             A:D3 X:FF
								>       EFE4  AD 47 06  LDA $0647 = 52                  A:D3 X:FF
								>       EFE7  C9 52     CMP #$52                        A:52 X:FF
								>       EFE9  F0 02     BEQ $EFED                       A:52 X:FF
								>       EFED  A0 FF     LDY #$FF                        A:52 X:FF
								>       EFEF  A9 37     LDA #$37                        A:52 X:FF
								>       EFF1  8D 47 06  STA $0647 = 52                  A:37 X:FF
								>       EFF4  20 9E FA  JSR $FA9E                       A:37 X:FF
								>       FA9E  24 01     BIT $01 = FF                    A:37 X:FF
								>       FAA0  38        SEC                             A:37 X:FF
								>       FAA1  A9 10     LDA #$10                        A:37 X:FF
								>       FAA3  60        RTS                             A:10 X:FF
								>       EFF7  1B 48 05 *SLO $0548,Y @ 0647 = 37         A:10 X:FF
								>       EFFA  EA        NOP                             A:7E X:FF
								>       EFFB  EA        NOP                             A:7E X:FF
								>       EFFC  08        PHP                             A:7E X:FF
								>       EFFD  48        PHA                             A:7E X:FF
								>       EFFE  A0 D0     LDY #$D0                        A:7E X:FF
								>       F000  68        PLA                             A:7E X:FF
								>       F001  28        PLP                             A:7E X:FF
								>       F002  20 A4 FA  JSR $FAA4                       A:7E X:FF
								>       FAA4  50 40     BVC $FAE6                       A:7E X:FF
								>       FAA6  F0 3E     BEQ $FAE6                       A:7E X:FF
								>       FAA8  30 3C     BMI $FAE6                       A:7E X:FF
								>       FAAA  B0 3A     BCS $FAE6                       A:7E X:FF
								>       FAAC  C9 7E     CMP #$7E                        A:7E X:FF
								>       FAAE  D0 36     BNE $FAE6                       A:7E X:FF
								>       FAB0  60        RTS                             A:7E X:FF
								>       F005  AD 47 06  LDA $0647 = 6E                  A:7E X:FF
								>       F008  C9 6E     CMP #$6E                        A:6E X:FF
								>       F00A  F0 02     BEQ $F00E                       A:6E X:FF
								>       F00E  A0 D1     LDY #$D1                        A:6E X:FF
								>       F010  A2 FF     LDX #$FF                        A:6E X:FF
								>       F012  A9 A5     LDA #$A5                        A:6E X:FF
								>       F014  8D 47 06  STA $0647 = 6E                  A:A5 X:FF
								>       F017  20 7B FA  JSR $FA7B                       A:A5 X:FF
								>       FA7B  24 01     BIT $01 = FF                    A:A5 X:FF
								>       FA7D  18        CLC                             A:A5 X:FF
								>       FA7E  A9 B3     LDA #$B3                        A:A5 X:FF
								>       FA80  60        RTS                             A:B3 X:FF
								>       F01A  1F 48 05 *SLO $0548,X @ 0647 = A5         A:B3 X:FF
								>       F01D  EA        NOP                             A:FB X:FF
								>       F01E  EA        NOP                             A:FB X:FF
								>       F01F  EA        NOP                             A:FB X:FF
								>       F020  EA        NOP                             A:FB X:FF
								>       F021  20 81 FA  JSR $FA81                       A:FB X:FF
								>       FA81  50 63     BVC $FAE6                       A:FB X:FF
								>       FA83  90 61     BCC $FAE6                       A:FB X:FF
								>       FA85  10 5F     BPL $FAE6                       A:FB X:FF
								>       FA87  C9 FB     CMP #$FB                        A:FB X:FF
								>       FA89  D0 5B     BNE $FAE6                       A:FB X:FF
								>       FA8B  60        RTS                             A:FB X:FF
								>       F024  AD 47 06  LDA $0647 = 4A                  A:FB X:FF
								>       F027  C9 4A     CMP #$4A                        A:4A X:FF
								>       F029  F0 02     BEQ $F02D                       A:4A X:FF
								>       F02D  C8        INY                             A:4A X:FF
								>       F02E  A9 29     LDA #$29                        A:4A X:FF
								>       F030  8D 47 06  STA $0647 = 4A                  A:29 X:FF
								>       F033  20 8C FA  JSR $FA8C                       A:29 X:FF
								>       FA8C  B8        CLV                             A:29 X:FF
								>       FA8D  18        CLC                             A:29 X:FF
								>       FA8E  A9 C3     LDA #$C3                        A:29 X:FF
								>       FA90  60        RTS                             A:C3 X:FF
								>       F036  1F 48 05 *SLO $0548,X @ 0647 = 29         A:C3 X:FF
								>       F039  EA        NOP                             A:D3 X:FF
								>       F03A  EA        NOP                             A:D3 X:FF
								>       F03B  EA        NOP                             A:D3 X:FF
								>       F03C  EA        NOP                             A:D3 X:FF
								>       F03D  20 91 FA  JSR $FA91                       A:D3 X:FF
								>       FA91  70 53     BVS $FAE6                       A:D3 X:FF
								>       FA93  F0 51     BEQ $FAE6                       A:D3 X:FF
								>       FA95  10 4F     BPL $FAE6                       A:D3 X:FF
								>       FA97  B0 4D     BCS $FAE6                       A:D3 X:FF
								>       FA99  C9 D3     CMP #$D3                        A:D3 X:FF
								>       FA9B  D0 49     BNE $FAE6                       A:D3 X:FF
								>       FA9D  60        RTS                             A:D3 X:FF
								>       F040  AD 47 06  LDA $0647 = 52                  A:D3 X:FF
								>       F043  C9 52     CMP #$52                        A:52 X:FF
								>       F045  F0 02     BEQ $F049                       A:52 X:FF
								>       F049  C8        INY                             A:52 X:FF
								>       F04A  A9 37     LDA #$37                        A:52 X:FF
								>       F04C  8D 47 06  STA $0647 = 52                  A:37 X:FF
								>       F04F  20 9E FA  JSR $FA9E                       A:37 X:FF
								>       FA9E  24 01     BIT $01 = FF                    A:37 X:FF
								>       FAA0  38        SEC                             A:37 X:FF
								>       FAA1  A9 10     LDA #$10                        A:37 X:FF
								>       FAA3  60        RTS                             A:10 X:FF
								>       F052  1F 48 05 *SLO $0548,X @ 0647 = 37         A:10 X:FF
								>       F055  EA        NOP                             A:7E X:FF
								>       F056  EA        NOP                             A:7E X:FF
								>       F057  EA        NOP                             A:7E X:FF
								>       F058  EA        NOP                             A:7E X:FF
								>       F059  20 A4 FA  JSR $FAA4                       A:7E X:FF
								>       FAA4  50 40     BVC $FAE6                       A:7E X:FF
								>       FAA6  F0 3E     BEQ $FAE6                       A:7E X:FF
								>       FAA8  30 3C     BMI $FAE6                       A:7E X:FF
								>       FAAA  B0 3A     BCS $FAE6                       A:7E X:FF
								>       FAAC  C9 7E     CMP #$7E                        A:7E X:FF
								>       FAAE  D0 36     BNE $FAE6                       A:7E X:FF
								>       FAB0  60        RTS                             A:7E X:FF
								>       F05C  AD 47 06  LDA $0647 = 6E                  A:7E X:FF
								>       F05F  C9 6E     CMP #$6E                        A:6E X:FF
								>       F061  F0 02     BEQ $F065                       A:6E X:FF
								>       F065  60        RTS                             A:6E X:FF
								>       C644  20 66 F0  JSR $F066                       A:6E X:FF
								>       F066  A9 FF     LDA #$FF                        A:6E X:FF
								>       F068  85 01     STA $01 = FF                    A:FF X:FF
								>       F06A  A0 D4     LDY #$D4                        A:FF X:FF
								>       F06C  A2 02     LDX #$02                        A:FF X:FF
								>       F06E  A9 47     LDA #$47                        A:FF X:02
								>       F070  85 47     STA $47 = 6E                    A:47 X:02
								>       F072  A9 06     LDA #$06                        A:47 X:02
								>       F074  85 48     STA $48 = 06                    A:06 X:02
								>       F076  A9 A5     LDA #$A5                        A:06 X:02
								>       F078  8D 47 06  STA $0647 = 6E                  A:A5 X:02
								>       F07B  20 53 FB  JSR $FB53                       A:A5 X:02
								>       FB53  24 01     BIT $01 = FF                    A:A5 X:02
								>       FB55  18        CLC                             A:A5 X:02
								>       FB56  A9 B3     LDA #$B3                        A:A5 X:02
								>       FB58  60        RTS                             A:B3 X:02
								>       F07E  23 45    *RLA ($45,X) @ 47 = 0647 = A5    A:B3 X:02
								>       F080  EA        NOP                             A:02 X:02
								>       F081  EA        NOP                             A:02 X:02
								>       F082  EA        NOP                             A:02 X:02
								>       F083  EA        NOP                             A:02 X:02
								>       F084  20 59 FB  JSR $FB59                       A:02 X:02
								>       FB59  50 1A     BVC $FB75                       A:02 X:02
								>       FB5B  90 18     BCC $FB75                       A:02 X:02
								>       FB5D  30 16     BMI $FB75                       A:02 X:02
								>       FB5F  C9 02     CMP #$02                        A:02 X:02
								>       FB61  D0 12     BNE $FB75                       A:02 X:02
								>       FB63  60        RTS                             A:02 X:02
								>       F087  AD 47 06  LDA $0647 = 4A                  A:02 X:02
								>       F08A  C9 4A     CMP #$4A                        A:4A X:02
								>       F08C  F0 02     BEQ $F090                       A:4A X:02
								>       F090  C8        INY                             A:4A X:02
								>       F091  A9 29     LDA #$29                        A:4A X:02
								>       F093  8D 47 06  STA $0647 = 4A                  A:29 X:02
								>       F096  20 64 FB  JSR $FB64                       A:29 X:02
								>       FB64  B8        CLV                             A:29 X:02
								>       FB65  18        CLC                             A:29 X:02
								>       FB66  A9 42     LDA #$42                        A:29 X:02
								>       FB68  60        RTS                             A:42 X:02
								>       F099  23 45    *RLA ($45,X) @ 47 = 0647 = 29    A:42 X:02
								>       F09B  EA        NOP                             A:42 X:02
								>       F09C  EA        NOP                             A:42 X:02
								>       F09D  EA        NOP                             A:42 X:02
								>       F09E  EA        NOP                             A:42 X:02
								>       F09F  20 69 FB  JSR $FB69                       A:42 X:02
								>       FB69  70 0A     BVS $FB75                       A:42 X:02
								>       FB6B  F0 08     BEQ $FB75                       A:42 X:02
								>       FB6D  30 06     BMI $FB75                       A:42 X:02
								>       FB6F  B0 04     BCS $FB75                       A:42 X:02
								>       FB71  C9 42     CMP #$42                        A:42 X:02
								>       FB73  F0 02     BEQ $FB77                       A:42 X:02
								>       FB77  60        RTS                             A:42 X:02
								>       F0A2  AD 47 06  LDA $0647 = 52                  A:42 X:02
								>       F0A5  C9 52     CMP #$52                        A:52 X:02
								>       F0A7  F0 02     BEQ $F0AB                       A:52 X:02
								>       F0AB  C8        INY                             A:52 X:02
								>       F0AC  A9 37     LDA #$37                        A:52 X:02
								>       F0AE  8D 47 06  STA $0647 = 52                  A:37 X:02
								>       F0B1  20 68 FA  JSR $FA68                       A:37 X:02
								>       FA68  24 01     BIT $01 = FF                    A:37 X:02
								>       FA6A  38        SEC                             A:37 X:02
								>       FA6B  A9 75     LDA #$75                        A:37 X:02
								>       FA6D  60        RTS                             A:75 X:02
								>       F0B4  23 45    *RLA ($45,X) @ 47 = 0647 = 37    A:75 X:02
								>       F0B6  EA        NOP                             A:65 X:02
								>       F0B7  EA        NOP                             A:65 X:02
								>       F0B8  EA        NOP                             A:65 X:02
								>       F0B9  EA        NOP                             A:65 X:02
								>       F0BA  20 6E FA  JSR $FA6E                       A:65 X:02
								>       FA6E  50 76     BVC $FAE6                       A:65 X:02
								>       FA70  F0 74     BEQ $FAE6                       A:65 X:02
								>       FA72  30 72     BMI $FAE6                       A:65 X:02
								>       FA74  B0 70     BCS $FAE6                       A:65 X:02
								>       FA76  C9 65     CMP #$65                        A:65 X:02
								>       FA78  D0 6C     BNE $FAE6                       A:65 X:02
								>       FA7A  60        RTS                             A:65 X:02
								>       F0BD  AD 47 06  LDA $0647 = 6F                  A:65 X:02
								>       F0C0  C9 6F     CMP #$6F                        A:6F X:02
								>       F0C2  F0 02     BEQ $F0C6                       A:6F X:02
								>       F0C6  C8        INY                             A:6F X:02
								>       F0C7  A9 A5     LDA #$A5                        A:6F X:02
								>       F0C9  85 47     STA $47 = 47                    A:A5 X:02
								>       F0CB  20 53 FB  JSR $FB53                       A:A5 X:02
								>       FB53  24 01     BIT $01 = FF                    A:A5 X:02
								>       FB55  18        CLC                             A:A5 X:02
								>       FB56  A9 B3     LDA #$B3                        A:A5 X:02
								>       FB58  60        RTS                             A:B3 X:02
								>       F0CE  27 47    *RLA $47 = A5                    A:B3 X:02
								>       F0D0  EA        NOP                             A:02 X:02
								>       F0D1  EA        NOP                             A:02 X:02
								>       F0D2  EA        NOP                             A:02 X:02
								>       F0D3  EA        NOP                             A:02 X:02
								>       F0D4  20 59 FB  JSR $FB59                       A:02 X:02
								>       FB59  50 1A     BVC $FB75                       A:02 X:02
								>       FB5B  90 18     BCC $FB75                       A:02 X:02
								>       FB5D  30 16     BMI $FB75                       A:02 X:02
								>       FB5F  C9 02     CMP #$02                        A:02 X:02
								>       FB61  D0 12     BNE $FB75                       A:02 X:02
								>       FB63  60        RTS                             A:02 X:02
								>       F0D7  A5 47     LDA $47 = 4A                    A:02 X:02
								>       F0D9  C9 4A     CMP #$4A                        A:4A X:02
								>       F0DB  F0 02     BEQ $F0DF                       A:4A X:02
								>       F0DF  C8        INY                             A:4A X:02
								>       F0E0  A9 29     LDA #$29                        A:4A X:02
								>       F0E2  85 47     STA $47 = 4A                    A:29 X:02
								>       F0E4  20 64 FB  JSR $FB64                       A:29 X:02
								>       FB64  B8        CLV                             A:29 X:02
								>       FB65  18        CLC                             A:29 X:02
								>       FB66  A9 42     LDA #$42                        A:29 X:02
								>       FB68  60        RTS                             A:42 X:02
								>       F0E7  27 47    *RLA $47 = 29                    A:42 X:02
								>       F0E9  EA        NOP                             A:42 X:02
								>       F0EA  EA        NOP                             A:42 X:02
								>       F0EB  EA        NOP                             A:42 X:02
								>       F0EC  EA        NOP                             A:42 X:02
								>       F0ED  20 69 FB  JSR $FB69                       A:42 X:02
								>       FB69  70 0A     BVS $FB75                       A:42 X:02
								>       FB6B  F0 08     BEQ $FB75                       A:42 X:02
								>       FB6D  30 06     BMI $FB75                       A:42 X:02
								>       FB6F  B0 04     BCS $FB75                       A:42 X:02
								>       FB71  C9 42     CMP #$42                        A:42 X:02
								>       FB73  F0 02     BEQ $FB77                       A:42 X:02
								>       FB77  60        RTS                             A:42 X:02
								>       F0F0  A5 47     LDA $47 = 52                    A:42 X:02
								>       F0F2  C9 52     CMP #$52                        A:52 X:02
								>       F0F4  F0 02     BEQ $F0F8                       A:52 X:02
								>       F0F8  C8        INY                             A:52 X:02
								>       F0F9  A9 37     LDA #$37                        A:52 X:02
								>       F0FB  85 47     STA $47 = 52                    A:37 X:02
								>       F0FD  20 68 FA  JSR $FA68                       A:37 X:02
								>       FA68  24 01     BIT $01 = FF                    A:37 X:02
								>       FA6A  38        SEC                             A:37 X:02
								>       FA6B  A9 75     LDA #$75                        A:37 X:02
								>       FA6D  60        RTS                             A:75 X:02
								>       F100  27 47    *RLA $47 = 37                    A:75 X:02
								>       F102  EA        NOP                             A:65 X:02
								>       F103  EA        NOP                             A:65 X:02
								>       F104  EA        NOP                             A:65 X:02
								>       F105  EA        NOP                             A:65 X:02
								>       F106  20 6E FA  JSR $FA6E                       A:65 X:02
								>       FA6E  50 76     BVC $FAE6                       A:65 X:02
								>       FA70  F0 74     BEQ $FAE6                       A:65 X:02
								>       FA72  30 72     BMI $FAE6                       A:65 X:02
								>       FA74  B0 70     BCS $FAE6                       A:65 X:02
								>       FA76  C9 65     CMP #$65                        A:65 X:02
								>       FA78  D0 6C     BNE $FAE6                       A:65 X:02
								>       FA7A  60        RTS                             A:65 X:02
								>       F109  A5 47     LDA $47 = 6F                    A:65 X:02
								>       F10B  C9 6F     CMP #$6F                        A:6F X:02
								>       F10D  F0 02     BEQ $F111                       A:6F X:02
								>       F111  C8        INY                             A:6F X:02
								>       F112  A9 A5     LDA #$A5                        A:6F X:02
								>       F114  8D 47 06  STA $0647 = 6F                  A:A5 X:02
								>       F117  20 53 FB  JSR $FB53                       A:A5 X:02
								>       FB53  24 01     BIT $01 = FF                    A:A5 X:02
								>       FB55  18        CLC                             A:A5 X:02
								>       FB56  A9 B3     LDA #$B3                        A:A5 X:02
								>       FB58  60        RTS                             A:B3 X:02
								>       F11A  2F 47 06 *RLA $0647 = A5                  A:B3 X:02
								>       F11D  EA        NOP                             A:02 X:02
								>       F11E  EA        NOP                             A:02 X:02
								>       F11F  EA        NOP                             A:02 X:02
								>       F120  EA        NOP                             A:02 X:02
								>       F121  20 59 FB  JSR $FB59                       A:02 X:02
								>       FB59  50 1A     BVC $FB75                       A:02 X:02
								>       FB5B  90 18     BCC $FB75                       A:02 X:02
								>       FB5D  30 16     BMI $FB75                       A:02 X:02
								>       FB5F  C9 02     CMP #$02                        A:02 X:02
								>       FB61  D0 12     BNE $FB75                       A:02 X:02
								>       FB63  60        RTS                             A:02 X:02
								>       F124  AD 47 06  LDA $0647 = 4A                  A:02 X:02
								>       F127  C9 4A     CMP #$4A                        A:4A X:02
								>       F129  F0 02     BEQ $F12D                       A:4A X:02
								>       F12D  C8        INY                             A:4A X:02
								>       F12E  A9 29     LDA #$29                        A:4A X:02
								>       F130  8D 47 06  STA $0647 = 4A                  A:29 X:02
								>       F133  20 64 FB  JSR $FB64                       A:29 X:02
								>       FB64  B8        CLV                             A:29 X:02
								>       FB65  18        CLC                             A:29 X:02
								>       FB66  A9 42     LDA #$42                        A:29 X:02
								>       FB68  60        RTS                             A:42 X:02
								>       F136  2F 47 06 *RLA $0647 = 29                  A:42 X:02
								>       F139  EA        NOP                             A:42 X:02
								>       F13A  EA        NOP                             A:42 X:02
								>       F13B  EA        NOP                             A:42 X:02
								>       F13C  EA        NOP                             A:42 X:02
								>       F13D  20 69 FB  JSR $FB69                       A:42 X:02
								>       FB69  70 0A     BVS $FB75                       A:42 X:02
								>       FB6B  F0 08     BEQ $FB75                       A:42 X:02
								>       FB6D  30 06     BMI $FB75                       A:42 X:02
								>       FB6F  B0 04     BCS $FB75                       A:42 X:02
								>       FB71  C9 42     CMP #$42                        A:42 X:02
								>       FB73  F0 02     BEQ $FB77                       A:42 X:02
								>       FB77  60        RTS                             A:42 X:02
								>       F140  AD 47 06  LDA $0647 = 52                  A:42 X:02
								>       F143  C9 52     CMP #$52                        A:52 X:02
								>       F145  F0 02     BEQ $F149                       A:52 X:02
								>       F149  C8        INY                             A:52 X:02
								>       F14A  A9 37     LDA #$37                        A:52 X:02
								>       F14C  8D 47 06  STA $0647 = 52                  A:37 X:02
								>       F14F  20 68 FA  JSR $FA68                       A:37 X:02
								>       FA68  24 01     BIT $01 = FF                    A:37 X:02
								>       FA6A  38        SEC                             A:37 X:02
								>       FA6B  A9 75     LDA #$75                        A:37 X:02
								>       FA6D  60        RTS                             A:75 X:02
								>       F152  2F 47 06 *RLA $0647 = 37                  A:75 X:02
								>       F155  EA        NOP                             A:65 X:02
								>       F156  EA        NOP                             A:65 X:02
								>       F157  EA        NOP                             A:65 X:02
								>       F158  EA        NOP                             A:65 X:02
								>       F159  20 6E FA  JSR $FA6E                       A:65 X:02
								>       FA6E  50 76     BVC $FAE6                       A:65 X:02
								>       FA70  F0 74     BEQ $FAE6                       A:65 X:02
								>       FA72  30 72     BMI $FAE6                       A:65 X:02
								>       FA74  B0 70     BCS $FAE6                       A:65 X:02
								>       FA76  C9 65     CMP #$65                        A:65 X:02
								>       FA78  D0 6C     BNE $FAE6                       A:65 X:02
								>       FA7A  60        RTS                             A:65 X:02
								>       F15C  AD 47 06  LDA $0647 = 6F                  A:65 X:02
								>       F15F  C9 6F     CMP #$6F                        A:6F X:02
								>       F161  F0 02     BEQ $F165                       A:6F X:02
								>       F165  A9 A5     LDA #$A5                        A:6F X:02
								>       F167  8D 47 06  STA $0647 = 6F                  A:A5 X:02
								>       F16A  A9 48     LDA #$48                        A:A5 X:02
								>       F16C  85 45     STA $45 = 48                    A:48 X:02
								>       F16E  A9 05     LDA #$05                        A:48 X:02
								>       F170  85 46     STA $46 = 05                    A:05 X:02
								>       F172  A0 FF     LDY #$FF                        A:05 X:02
								>       F174  20 53 FB  JSR $FB53                       A:05 X:02
								>       FB53  24 01     BIT $01 = FF                    A:05 X:02
								>       FB55  18        CLC                             A:05 X:02
								>       FB56  A9 B3     LDA #$B3                        A:05 X:02
								>       FB58  60        RTS                             A:B3 X:02
								>       F177  33 45    *RLA ($45),Y = 0548 @ 0647 = A5  A:B3 X:02
								>       F179  EA        NOP                             A:02 X:02
								>       F17A  EA        NOP                             A:02 X:02
								>       F17B  08        PHP                             A:02 X:02
								>       F17C  48        PHA                             A:02 X:02
								>       F17D  A0 DD     LDY #$DD                        A:02 X:02
								>       F17F  68        PLA                             A:02 X:02
								>       F180  28        PLP                             A:02 X:02
								>       F181  20 59 FB  JSR $FB59                       A:02 X:02
								>       FB59  50 1A     BVC $FB75                       A:02 X:02
								>       FB5B  90 18     BCC $FB75                       A:02 X:02
								>       FB5D  30 16     BMI $FB75                       A:02 X:02
								>       FB5F  C9 02     CMP #$02                        A:02 X:02
								>       FB61  D0 12     BNE $FB75                       A:02 X:02
								>       FB63  60        RTS                             A:02 X:02
								>       F184  AD 47 06  LDA $0647 = 4A                  A:02 X:02
								>       F187  C9 4A     CMP #$4A                        A:4A X:02
								>       F189  F0 02     BEQ $F18D                       A:4A X:02
								>       F18D  A0 FF     LDY #$FF                        A:4A X:02
								>       F18F  A9 29     LDA #$29                        A:4A X:02
								>       F191  8D 47 06  STA $0647 = 4A                  A:29 X:02
								>       F194  20 64 FB  JSR $FB64                       A:29 X:02
								>       FB64  B8        CLV                             A:29 X:02
								>       FB65  18        CLC                             A:29 X:02
								>       FB66  A9 42     LDA #$42                        A:29 X:02
								>       FB68  60        RTS                             A:42 X:02
								>       F197  33 45    *RLA ($45),Y = 0548 @ 0647 = 29  A:42 X:02
								>       F199  EA        NOP                             A:42 X:02
								>       F19A  EA        NOP                             A:42 X:02
								>       F19B  08        PHP                             A:42 X:02
								>       F19C  48        PHA                             A:42 X:02
								>       F19D  A0 DE     LDY #$DE                        A:42 X:02
								>       F19F  68        PLA                             A:42 X:02
								>       F1A0  28        PLP                             A:42 X:02
								>       F1A1  20 69 FB  JSR $FB69                       A:42 X:02
								>       FB69  70 0A     BVS $FB75                       A:42 X:02
								>       FB6B  F0 08     BEQ $FB75                       A:42 X:02
								>       FB6D  30 06     BMI $FB75                       A:42 X:02
								>       FB6F  B0 04     BCS $FB75                       A:42 X:02
								>       FB71  C9 42     CMP #$42                        A:42 X:02
								>       FB73  F0 02     BEQ $FB77                       A:42 X:02
								>       FB77  60        RTS                             A:42 X:02
								>       F1A4  AD 47 06  LDA $0647 = 52                  A:42 X:02
								>       F1A7  C9 52     CMP #$52                        A:52 X:02
								>       F1A9  F0 02     BEQ $F1AD                       A:52 X:02
								>       F1AD  A0 FF     LDY #$FF                        A:52 X:02
								>       F1AF  A9 37     LDA #$37                        A:52 X:02
								>       F1B1  8D 47 06  STA $0647 = 52                  A:37 X:02
								>       F1B4  20 68 FA  JSR $FA68                       A:37 X:02
								>       FA68  24 01     BIT $01 = FF                    A:37 X:02
								>       FA6A  38        SEC                             A:37 X:02
								>       FA6B  A9 75     LDA #$75                        A:37 X:02
								>       FA6D  60        RTS                             A:75 X:02
								>       F1B7  33 45    *RLA ($45),Y = 0548 @ 0647 = 37  A:75 X:02
								>       F1B9  EA        NOP                             A:65 X:02
								>       F1BA  EA        NOP                             A:65 X:02
								>       F1BB  08        PHP                             A:65 X:02
								>       F1BC  48        PHA                             A:65 X:02
								>       F1BD  A0 DF     LDY #$DF                        A:65 X:02
								>       F1BF  68        PLA                             A:65 X:02
								>       F1C0  28        PLP                             A:65 X:02
								>       F1C1  20 6E FA  JSR $FA6E                       A:65 X:02
								>       FA6E  50 76     BVC $FAE6                       A:65 X:02
								>       FA70  F0 74     BEQ $FAE6                       A:65 X:02
								>       FA72  30 72     BMI $FAE6                       A:65 X:02
								>       FA74  B0 70     BCS $FAE6                       A:65 X:02
								>       FA76  C9 65     CMP #$65                        A:65 X:02
								>       FA78  D0 6C     BNE $FAE6                       A:65 X:02
								>       FA7A  60        RTS                             A:65 X:02
								>       F1C4  AD 47 06  LDA $0647 = 6F                  A:65 X:02
								>       F1C7  C9 6F     CMP #$6F                        A:6F X:02
								>       F1C9  F0 02     BEQ $F1CD                       A:6F X:02
								>       F1CD  A0 E0     LDY #$E0                        A:6F X:02
								>       F1CF  A2 FF     LDX #$FF                        A:6F X:02
								>       F1D1  A9 A5     LDA #$A5                        A:6F X:FF
								>       F1D3  85 47     STA $47 = 6F                    A:A5 X:FF
								>       F1D5  20 53 FB  JSR $FB53                       A:A5 X:FF
								>       FB53  24 01     BIT $01 = FF                    A:A5 X:FF
								>       FB55  18        CLC                             A:A5 X:FF
								>       FB56  A9 B3     LDA #$B3                        A:A5 X:FF
								>       FB58  60        RTS                             A:B3 X:FF
								>       F1D8  37 48    *RLA $48,X @ 47 = A5             A:B3 X:FF
								>       F1DA  EA        NOP                             A:02 X:FF
								>       F1DB  EA        NOP                             A:02 X:FF
								>       F1DC  EA        NOP                             A:02 X:FF
								>       F1DD  EA        NOP                             A:02 X:FF
								>       F1DE  20 59 FB  JSR $FB59                       A:02 X:FF
								>       FB59  50 1A     BVC $FB75                       A:02 X:FF
								>       FB5B  90 18     BCC $FB75                       A:02 X:FF
								>       FB5D  30 16     BMI $FB75                       A:02 X:FF
								>       FB5F  C9 02     CMP #$02                        A:02 X:FF
								>       FB61  D0 12     BNE $FB75                       A:02 X:FF
								>       FB63  60        RTS                             A:02 X:FF
								>       F1E1  A5 47     LDA $47 = 4A                    A:02 X:FF
								>       F1E3  C9 4A     CMP #$4A                        A:4A X:FF
								>       F1E5  F0 02     BEQ $F1E9                       A:4A X:FF
								>       F1E9  C8        INY                             A:4A X:FF
								>       F1EA  A9 29     LDA #$29                        A:4A X:FF
								>       F1EC  85 47     STA $47 = 4A                    A:29 X:FF
								>       F1EE  20 64 FB  JSR $FB64                       A:29 X:FF
								>       FB64  B8        CLV                             A:29 X:FF
								>       FB65  18        CLC                             A:29 X:FF
								>       FB66  A9 42     LDA #$42                        A:29 X:FF
								>       FB68  60        RTS                             A:42 X:FF
								>       F1F1  37 48    *RLA $48,X @ 47 = 29             A:42 X:FF
								>       F1F3  EA        NOP                             A:42 X:FF
								>       F1F4  EA        NOP                             A:42 X:FF
								>       F1F5  EA        NOP                             A:42 X:FF
								>       F1F6  EA        NOP                             A:42 X:FF
								>       F1F7  20 69 FB  JSR $FB69                       A:42 X:FF
								>       FB69  70 0A     BVS $FB75                       A:42 X:FF
								>       FB6B  F0 08     BEQ $FB75                       A:42 X:FF
								>       FB6D  30 06     BMI $FB75                       A:42 X:FF
								>       FB6F  B0 04     BCS $FB75                       A:42 X:FF
								>       FB71  C9 42     CMP #$42                        A:42 X:FF
								>       FB73  F0 02     BEQ $FB77                       A:42 X:FF
								>       FB77  60        RTS                             A:42 X:FF
								>       F1FA  A5 47     LDA $47 = 52                    A:42 X:FF
								>       F1FC  C9 52     CMP #$52                        A:52 X:FF
								>       F1FE  F0 02     BEQ $F202                       A:52 X:FF
								>       F202  C8        INY                             A:52 X:FF
								>       F203  A9 37     LDA #$37                        A:52 X:FF
								>       F205  85 47     STA $47 = 52                    A:37 X:FF
								>       F207  20 68 FA  JSR $FA68                       A:37 X:FF
								>       FA68  24 01     BIT $01 = FF                    A:37 X:FF
								>       FA6A  38        SEC                             A:37 X:FF
								>       FA6B  A9 75     LDA #$75                        A:37 X:FF
								>       FA6D  60        RTS                             A:75 X:FF
								>       F20A  37 48    *RLA $48,X @ 47 = 37             A:75 X:FF
								>       F20C  EA        NOP                             A:65 X:FF
								>       F20D  EA        NOP                             A:65 X:FF
								>       F20E  EA        NOP                             A:65 X:FF
								>       F20F  EA        NOP                             A:65 X:FF
								>       F210  20 6E FA  JSR $FA6E                       A:65 X:FF
								>       FA6E  50 76     BVC $FAE6                       A:65 X:FF
								>       FA70  F0 74     BEQ $FAE6                       A:65 X:FF
								>       FA72  30 72     BMI $FAE6                       A:65 X:FF
								>       FA74  B0 70     BCS $FAE6                       A:65 X:FF
								>       FA76  C9 65     CMP #$65                        A:65 X:FF
								>       FA78  D0 6C     BNE $FAE6                       A:65 X:FF
								>       FA7A  60        RTS                             A:65 X:FF
								>       F213  A5 47     LDA $47 = 6F                    A:65 X:FF
								>       F215  C9 6F     CMP #$6F                        A:6F X:FF
								>       F217  F0 02     BEQ $F21B                       A:6F X:FF
								>       F21B  A9 A5     LDA #$A5                        A:6F X:FF
								>       F21D  8D 47 06  STA $0647 = 6F                  A:A5 X:FF
								>       F220  A0 FF     LDY #$FF                        A:A5 X:FF
								>       F222  20 53 FB  JSR $FB53                       A:A5 X:FF
								>       FB53  24 01     BIT $01 = FF                    A:A5 X:FF
								>       FB55  18        CLC                             A:A5 X:FF
								>       FB56  A9 B3     LDA #$B3                        A:A5 X:FF
								>       FB58  60        RTS                             A:B3 X:FF
								>       F225  3B 48 05 *RLA $0548,Y @ 0647 = A5         A:B3 X:FF
								>       F228  EA        NOP                             A:02 X:FF
								>       F229  EA        NOP                             A:02 X:FF
								>       F22A  08        PHP                             A:02 X:FF
								>       F22B  48        PHA                             A:02 X:FF
								>       F22C  A0 E3     LDY #$E3                        A:02 X:FF
								>       F22E  68        PLA                             A:02 X:FF
								>       F22F  28        PLP                             A:02 X:FF
								>       F230  20 59 FB  JSR $FB59                       A:02 X:FF
								>       FB59  50 1A     BVC $FB75                       A:02 X:FF
								>       FB5B  90 18     BCC $FB75                       A:02 X:FF
								>       FB5D  30 16     BMI $FB75                       A:02 X:FF
								>       FB5F  C9 02     CMP #$02                        A:02 X:FF
								>       FB61  D0 12     BNE $FB75                       A:02 X:FF
								>       FB63  60        RTS                             A:02 X:FF
								>       F233  AD 47 06  LDA $0647 = 4A                  A:02 X:FF
								>       F236  C9 4A     CMP #$4A                        A:4A X:FF
								>       F238  F0 02     BEQ $F23C                       A:4A X:FF
								>       F23C  A0 FF     LDY #$FF                        A:4A X:FF
								>       F23E  A9 29     LDA #$29                        A:4A X:FF
								>       F240  8D 47 06  STA $0647 = 4A                  A:29 X:FF
								>       F243  20 64 FB  JSR $FB64                       A:29 X:FF
								>       FB64  B8        CLV                             A:29 X:FF
								>       FB65  18        CLC                             A:29 X:FF
								>       FB66  A9 42     LDA #$42                        A:29 X:FF
								>       FB68  60        RTS                             A:42 X:FF
								>       F246  3B 48 05 *RLA $0548,Y @ 0647 = 29         A:42 X:FF
								>       F249  EA        NOP                             A:42 X:FF
								>       F24A  EA        NOP                             A:42 X:FF
								>       F24B  08        PHP                             A:42 X:FF
								>       F24C  48        PHA                             A:42 X:FF
								>       F24D  A0 E4     LDY #$E4                        A:42 X:FF
								>       F24F  68        PLA                             A:42 X:FF
								>       F250  28        PLP                             A:42 X:FF
								>       F251  20 69 FB  JSR $FB69                       A:42 X:FF
								>       FB69  70 0A     BVS $FB75                       A:42 X:FF
								>       FB6B  F0 08     BEQ $FB75                       A:42 X:FF
								>       FB6D  30 06     BMI $FB75                       A:42 X:FF
								>       FB6F  B0 04     BCS $FB75                       A:42 X:FF
								>       FB71  C9 42     CMP #$42                        A:42 X:FF
								>       FB73  F0 02     BEQ $FB77                       A:42 X:FF
								>       FB77  60        RTS                             A:42 X:FF
								>       F254  AD 47 06  LDA $0647 = 52                  A:42 X:FF
								>       F257  C9 52     CMP #$52                        A:52 X:FF
								>       F259  F0 02     BEQ $F25D                       A:52 X:FF
								>       F25D  A0 FF     LDY #$FF                        A:52 X:FF
								>       F25F  A9 37     LDA #$37                        A:52 X:FF
								>       F261  8D 47 06  STA $0647 = 52                  A:37 X:FF
								>       F264  20 68 FA  JSR $FA68                       A:37 X:FF
								>       FA68  24 01     BIT $01 = FF                    A:37 X:FF
								>       FA6A  38        SEC                             A:37 X:FF
								>       FA6B  A9 75     LDA #$75                        A:37 X:FF
								>       FA6D  60        RTS                             A:75 X:FF
								>       F267  3B 48 05 *RLA $0548,Y @ 0647 = 37         A:75 X:FF
								>       F26A  EA        NOP                             A:65 X:FF
								>       F26B  EA        NOP                             A:65 X:FF
								>       F26C  08        PHP                             A:65 X:FF
								>       F26D  48        PHA                             A:65 X:FF
								>       F26E  A0 E5     LDY #$E5                        A:65 X:FF
								>       F270  68        PLA                             A:65 X:FF
								>       F271  28        PLP                             A:65 X:FF
								>       F272  20 6E FA  JSR $FA6E                       A:65 X:FF
								>       FA6E  50 76     BVC $FAE6                       A:65 X:FF
								>       FA70  F0 74     BEQ $FAE6                       A:65 X:FF
								>       FA72  30 72     BMI $FAE6                       A:65 X:FF
								>       FA74  B0 70     BCS $FAE6                       A:65 X:FF
								>       FA76  C9 65     CMP #$65                        A:65 X:FF
								>       FA78  D0 6C     BNE $FAE6                       A:65 X:FF
								>       FA7A  60        RTS                             A:65 X:FF
								>       F275  AD 47 06  LDA $0647 = 6F                  A:65 X:FF
								>       F278  C9 6F     CMP #$6F                        A:6F X:FF
								>       F27A  F0 02     BEQ $F27E                       A:6F X:FF
								>       F27E  A0 E6     LDY #$E6                        A:6F X:FF
								>       F280  A2 FF     LDX #$FF                        A:6F X:FF
								>       F282  A9 A5     LDA #$A5                        A:6F X:FF
								>       F284  8D 47 06  STA $0647 = 6F                  A:A5 X:FF
								>       F287  20 53 FB  JSR $FB53                       A:A5 X:FF
								>       FB53  24 01     BIT $01 = FF                    A:A5 X:FF
								>       FB55  18        CLC                             A:A5 X:FF
								>       FB56  A9 B3     LDA #$B3                        A:A5 X:FF
								>       FB58  60        RTS                             A:B3 X:FF
								>       F28A  3F 48 05 *RLA $0548,X @ 0647 = A5         A:B3 X:FF
								>       F28D  EA        NOP                             A:02 X:FF
								>       F28E  EA        NOP                             A:02 X:FF
								>       F28F  EA        NOP                             A:02 X:FF
								>       F290  EA        NOP                             A:02 X:FF
								>       F291  20 59 FB  JSR $FB59                       A:02 X:FF
								>       FB59  50 1A     BVC $FB75                       A:02 X:FF
								>       FB5B  90 18     BCC $FB75                       A:02 X:FF
								>       FB5D  30 16     BMI $FB75                       A:02 X:FF
								>       FB5F  C9 02     CMP #$02                        A:02 X:FF
								>       FB61  D0 12     BNE $FB75                       A:02 X:FF
								>       FB63  60        RTS                             A:02 X:FF
								>       F294  AD 47 06  LDA $0647 = 4A                  A:02 X:FF
								>       F297  C9 4A     CMP #$4A                        A:4A X:FF
								>       F299  F0 02     BEQ $F29D                       A:4A X:FF
								>       F29D  C8        INY                             A:4A X:FF
								>       F29E  A9 29     LDA #$29                        A:4A X:FF
								>       F2A0  8D 47 06  STA $0647 = 4A                  A:29 X:FF
								>       F2A3  20 64 FB  JSR $FB64                       A:29 X:FF
								>       FB64  B8        CLV                             A:29 X:FF
								>       FB65  18        CLC                             A:29 X:FF
								>       FB66  A9 42     LDA #$42                        A:29 X:FF
								>       FB68  60        RTS                             A:42 X:FF
								>       F2A6  3F 48 05 *RLA $0548,X @ 0647 = 29         A:42 X:FF
								>       F2A9  EA        NOP                             A:42 X:FF
								>       F2AA  EA        NOP                             A:42 X:FF
								>       F2AB  EA        NOP                             A:42 X:FF
								>       F2AC  EA        NOP                             A:42 X:FF
								>       F2AD  20 69 FB  JSR $FB69                       A:42 X:FF
								>       FB69  70 0A     BVS $FB75                       A:42 X:FF
								>       FB6B  F0 08     BEQ $FB75                       A:42 X:FF
								>       FB6D  30 06     BMI $FB75                       A:42 X:FF
								>       FB6F  B0 04     BCS $FB75                       A:42 X:FF
								>       FB71  C9 42     CMP #$42                        A:42 X:FF
								>       FB73  F0 02     BEQ $FB77                       A:42 X:FF
								>       FB77  60        RTS                             A:42 X:FF
								>       F2B0  AD 47 06  LDA $0647 = 52                  A:42 X:FF
								>       F2B3  C9 52     CMP #$52                        A:52 X:FF
								>       F2B5  F0 02     BEQ $F2B9                       A:52 X:FF
								>       F2B9  C8        INY                             A:52 X:FF
								>       F2BA  A9 37     LDA #$37                        A:52 X:FF
								>       F2BC  8D 47 06  STA $0647 = 52                  A:37 X:FF
								>       F2BF  20 68 FA  JSR $FA68                       A:37 X:FF
								>       FA68  24 01     BIT $01 = FF                    A:37 X:FF
								>       FA6A  38        SEC                             A:37 X:FF
								>       FA6B  A9 75     LDA #$75                        A:37 X:FF
								>       FA6D  60        RTS                             A:75 X:FF
								>       F2C2  3F 48 05 *RLA $0548,X @ 0647 = 37         A:75 X:FF
								>       F2C5  EA        NOP                             A:65 X:FF
								>       F2C6  EA        NOP                             A:65 X:FF
								>       F2C7  EA        NOP                             A:65 X:FF
								>       F2C8  EA        NOP                             A:65 X:FF
								>       F2C9  20 6E FA  JSR $FA6E                       A:65 X:FF
								>       FA6E  50 76     BVC $FAE6                       A:65 X:FF
								>       FA70  F0 74     BEQ $FAE6                       A:65 X:FF
								>       FA72  30 72     BMI $FAE6                       A:65 X:FF
								>       FA74  B0 70     BCS $FAE6                       A:65 X:FF
								>       FA76  C9 65     CMP #$65                        A:65 X:FF
								>       FA78  D0 6C     BNE $FAE6                       A:65 X:FF
								>       FA7A  60        RTS                             A:65 X:FF
								>       F2CC  AD 47 06  LDA $0647 = 6F                  A:65 X:FF
								>       F2CF  C9 6F     CMP #$6F                        A:6F X:FF
								>       F2D1  F0 02     BEQ $F2D5                       A:6F X:FF
								>       F2D5  60        RTS                             A:6F X:FF
								>       C647  20 D6 F2  JSR $F2D6                       A:6F X:FF
								>       F2D6  A9 FF     LDA #$FF                        A:6F X:FF
								>       F2D8  85 01     STA $01 = FF                    A:FF X:FF
								>       F2DA  A0 E9     LDY #$E9                        A:FF X:FF
								>       F2DC  A2 02     LDX #$02                        A:FF X:FF
								>       F2DE  A9 47     LDA #$47                        A:FF X:02
								>       F2E0  85 47     STA $47 = 6F                    A:47 X:02
								>       F2E2  A9 06     LDA #$06                        A:47 X:02
								>       F2E4  85 48     STA $48 = 06                    A:06 X:02
								>       F2E6  A9 A5     LDA #$A5                        A:06 X:02
								>       F2E8  8D 47 06  STA $0647 = 6F                  A:A5 X:02
								>       F2EB  20 1D FB  JSR $FB1D                       A:A5 X:02
								>       FB1D  24 01     BIT $01 = FF                    A:A5 X:02
								>       FB1F  18        CLC                             A:A5 X:02
								>       FB20  A9 B3     LDA #$B3                        A:A5 X:02
								>       FB22  60        RTS                             A:B3 X:02
								>       F2EE  43 45    *SRE ($45,X) @ 47 = 0647 = A5    A:B3 X:02
								>       F2F0  EA        NOP                             A:E1 X:02
								>       F2F1  EA        NOP                             A:E1 X:02
								>       F2F2  EA        NOP                             A:E1 X:02
								>       F2F3  EA        NOP                             A:E1 X:02
								>       F2F4  20 23 FB  JSR $FB23                       A:E1 X:02
								>       FB23  50 50     BVC $FB75                       A:E1 X:02
								>       FB25  90 4E     BCC $FB75                       A:E1 X:02
								>       FB27  10 4C     BPL $FB75                       A:E1 X:02
								>       FB29  C9 E1     CMP #$E1                        A:E1 X:02
								>       FB2B  D0 48     BNE $FB75                       A:E1 X:02
								>       FB2D  60        RTS                             A:E1 X:02
								>       F2F7  AD 47 06  LDA $0647 = 52                  A:E1 X:02
								>       F2FA  C9 52     CMP #$52                        A:52 X:02
								>       F2FC  F0 02     BEQ $F300                       A:52 X:02
								>       F300  C8        INY                             A:52 X:02
								>       F301  A9 29     LDA #$29                        A:52 X:02
								>       F303  8D 47 06  STA $0647 = 52                  A:29 X:02
								>       F306  20 2E FB  JSR $FB2E                       A:29 X:02
								>       FB2E  B8        CLV                             A:29 X:02
								>       FB2F  18        CLC                             A:29 X:02
								>       FB30  A9 42     LDA #$42                        A:29 X:02
								>       FB32  60        RTS                             A:42 X:02
								>       F309  43 45    *SRE ($45,X) @ 47 = 0647 = 29    A:42 X:02
								>       F30B  EA        NOP                             A:56 X:02
								>       F30C  EA        NOP                             A:56 X:02
								>       F30D  EA        NOP                             A:56 X:02
								>       F30E  EA        NOP                             A:56 X:02
								>       F30F  20 33 FB  JSR $FB33                       A:56 X:02
								>       FB33  70 40     BVS $FB75                       A:56 X:02
								>       FB35  F0 3E     BEQ $FB75                       A:56 X:02
								>       FB37  30 3C     BMI $FB75                       A:56 X:02
								>       FB39  90 3A     BCC $FB75                       A:56 X:02
								>       FB3B  C9 56     CMP #$56                        A:56 X:02
								>       FB3D  D0 36     BNE $FB75                       A:56 X:02
								>       FB3F  60        RTS                             A:56 X:02
								>       F312  AD 47 06  LDA $0647 = 14                  A:56 X:02
								>       F315  C9 14     CMP #$14                        A:14 X:02
								>       F317  F0 02     BEQ $F31B                       A:14 X:02
								>       F31B  C8        INY                             A:14 X:02
								>       F31C  A9 37     LDA #$37                        A:14 X:02
								>       F31E  8D 47 06  STA $0647 = 14                  A:37 X:02
								>       F321  20 40 FB  JSR $FB40                       A:37 X:02
								>       FB40  24 01     BIT $01 = FF                    A:37 X:02
								>       FB42  38        SEC                             A:37 X:02
								>       FB43  A9 75     LDA #$75                        A:37 X:02
								>       FB45  60        RTS                             A:75 X:02
								>       F324  43 45    *SRE ($45,X) @ 47 = 0647 = 37    A:75 X:02
								>       F326  EA        NOP                             A:6E X:02
								>       F327  EA        NOP                             A:6E X:02
								>       F328  EA        NOP                             A:6E X:02
								>       F329  EA        NOP                             A:6E X:02
								>       F32A  20 46 FB  JSR $FB46                       A:6E X:02
								>       FB46  50 2D     BVC $FB75                       A:6E X:02
								>       FB48  F0 2B     BEQ $FB75                       A:6E X:02
								>       FB4A  30 29     BMI $FB75                       A:6E X:02
								>       FB4C  90 27     BCC $FB75                       A:6E X:02
								>       FB4E  C9 6E     CMP #$6E                        A:6E X:02
								>       FB50  D0 23     BNE $FB75                       A:6E X:02
								>       FB52  60        RTS                             A:6E X:02
								>       F32D  AD 47 06  LDA $0647 = 1B                  A:6E X:02
								>       F330  C9 1B     CMP #$1B                        A:1B X:02
								>       F332  F0 02     BEQ $F336                       A:1B X:02
								>       F336  C8        INY                             A:1B X:02
								>       F337  A9 A5     LDA #$A5                        A:1B X:02
								>       F339  85 47     STA $47 = 47                    A:A5 X:02
								>       F33B  20 1D FB  JSR $FB1D                       A:A5 X:02
								>       FB1D  24 01     BIT $01 = FF                    A:A5 X:02
								>       FB1F  18        CLC                             A:A5 X:02
								>       FB20  A9 B3     LDA #$B3                        A:A5 X:02
								>       FB22  60        RTS                             A:B3 X:02
								>       F33E  47 47    *SRE $47 = A5                    A:B3 X:02
								>       F340  EA        NOP                             A:E1 X:02
								>       F341  EA        NOP                             A:E1 X:02
								>       F342  EA        NOP                             A:E1 X:02
								>       F343  EA        NOP                             A:E1 X:02
								>       F344  20 23 FB  JSR $FB23                       A:E1 X:02
								>       FB23  50 50     BVC $FB75                       A:E1 X:02
								>       FB25  90 4E     BCC $FB75                       A:E1 X:02
								>       FB27  10 4C     BPL $FB75                       A:E1 X:02
								>       FB29  C9 E1     CMP #$E1                        A:E1 X:02
								>       FB2B  D0 48     BNE $FB75                       A:E1 X:02
								>       FB2D  60        RTS                             A:E1 X:02
								>       F347  A5 47     LDA $47 = 52                    A:E1 X:02
								>       F349  C9 52     CMP #$52                        A:52 X:02
								>       F34B  F0 02     BEQ $F34F                       A:52 X:02
								>       F34F  C8        INY                             A:52 X:02
								>       F350  A9 29     LDA #$29                        A:52 X:02
								>       F352  85 47     STA $47 = 52                    A:29 X:02
								>       F354  20 2E FB  JSR $FB2E                       A:29 X:02
								>       FB2E  B8        CLV                             A:29 X:02
								>       FB2F  18        CLC                             A:29 X:02
								>       FB30  A9 42     LDA #$42                        A:29 X:02
								>       FB32  60        RTS                             A:42 X:02
								>       F357  47 47    *SRE $47 = 29                    A:42 X:02
								>       F359  EA        NOP                             A:56 X:02
								>       F35A  EA        NOP                             A:56 X:02
								>       F35B  EA        NOP                             A:56 X:02
								>       F35C  EA        NOP                             A:56 X:02
								>       F35D  20 33 FB  JSR $FB33                       A:56 X:02
								>       FB33  70 40     BVS $FB75                       A:56 X:02
								>       FB35  F0 3E     BEQ $FB75                       A:56 X:02
								>       FB37  30 3C     BMI $FB75                       A:56 X:02
								>       FB39  90 3A     BCC $FB75                       A:56 X:02
								>       FB3B  C9 56     CMP #$56                        A:56 X:02
								>       FB3D  D0 36     BNE $FB75                       A:56 X:02
								>       FB3F  60        RTS                             A:56 X:02
								>       F360  A5 47     LDA $47 = 14                    A:56 X:02
								>       F362  C9 14     CMP #$14                        A:14 X:02
								>       F364  F0 02     BEQ $F368                       A:14 X:02
								>       F368  C8        INY                             A:14 X:02
								>       F369  A9 37     LDA #$37                        A:14 X:02
								>       F36B  85 47     STA $47 = 14                    A:37 X:02
								>       F36D  20 40 FB  JSR $FB40                       A:37 X:02
								>       FB40  24 01     BIT $01 = FF                    A:37 X:02
								>       FB42  38        SEC                             A:37 X:02
								>       FB43  A9 75     LDA #$75                        A:37 X:02
								>       FB45  60        RTS                             A:75 X:02
								>       F370  47 47    *SRE $47 = 37                    A:75 X:02
								>       F372  EA        NOP                             A:6E X:02
								>       F373  EA        NOP                             A:6E X:02
								>       F374  EA        NOP                             A:6E X:02
								>       F375  EA        NOP                             A:6E X:02
								>       F376  20 46 FB  JSR $FB46                       A:6E X:02
								>       FB46  50 2D     BVC $FB75                       A:6E X:02
								>       FB48  F0 2B     BEQ $FB75                       A:6E X:02
								>       FB4A  30 29     BMI $FB75                       A:6E X:02
								>       FB4C  90 27     BCC $FB75                       A:6E X:02
								>       FB4E  C9 6E     CMP #$6E                        A:6E X:02
								>       FB50  D0 23     BNE $FB75                       A:6E X:02
								>       FB52  60        RTS                             A:6E X:02
								>       F379  A5 47     LDA $47 = 1B                    A:6E X:02
								>       F37B  C9 1B     CMP #$1B                        A:1B X:02
								>       F37D  F0 02     BEQ $F381                       A:1B X:02
								>       F381  C8        INY                             A:1B X:02
								>       F382  A9 A5     LDA #$A5                        A:1B X:02
								>       F384  8D 47 06  STA $0647 = 1B                  A:A5 X:02
								>       F387  20 1D FB  JSR $FB1D                       A:A5 X:02
								>       FB1D  24 01     BIT $01 = FF                    A:A5 X:02
								>       FB1F  18        CLC                             A:A5 X:02
								>       FB20  A9 B3     LDA #$B3                        A:A5 X:02
								>       FB22  60        RTS                             A:B3 X:02
								>       F38A  4F 47 06 *SRE $0647 = A5                  A:B3 X:02
								>       F38D  EA        NOP                             A:E1 X:02
								>       F38E  EA        NOP                             A:E1 X:02
								>       F38F  EA        NOP                             A:E1 X:02
								>       F390  EA        NOP                             A:E1 X:02
								>       F391  20 23 FB  JSR $FB23                       A:E1 X:02
								>       FB23  50 50     BVC $FB75                       A:E1 X:02
								>       FB25  90 4E     BCC $FB75                       A:E1 X:02
								>       FB27  10 4C     BPL $FB75                       A:E1 X:02
								>       FB29  C9 E1     CMP #$E1                        A:E1 X:02
								>       FB2B  D0 48     BNE $FB75                       A:E1 X:02
								>       FB2D  60        RTS                             A:E1 X:02
								>       F394  AD 47 06  LDA $0647 = 52                  A:E1 X:02
								>       F397  C9 52     CMP #$52                        A:52 X:02
								>       F399  F0 02     BEQ $F39D                       A:52 X:02
								>       F39D  C8        INY                             A:52 X:02
								>       F39E  A9 29     LDA #$29                        A:52 X:02
								>       F3A0  8D 47 06  STA $0647 = 52                  A:29 X:02
								>       F3A3  20 2E FB  JSR $FB2E                       A:29 X:02
								>       FB2E  B8        CLV                             A:29 X:02
								>       FB2F  18        CLC                             A:29 X:02
								>       FB30  A9 42     LDA #$42                        A:29 X:02
								>       FB32  60        RTS                             A:42 X:02
								>       F3A6  4F 47 06 *SRE $0647 = 29                  A:42 X:02
								>       F3A9  EA        NOP                             A:56 X:02
								>       F3AA  EA        NOP                             A:56 X:02
								>       F3AB  EA        NOP                             A:56 X:02
								>       F3AC  EA        NOP                             A:56 X:02
								>       F3AD  20 33 FB  JSR $FB33                       A:56 X:02
								>       FB33  70 40     BVS $FB75                       A:56 X:02
								>       FB35  F0 3E     BEQ $FB75                       A:56 X:02
								>       FB37  30 3C     BMI $FB75                       A:56 X:02
								>       FB39  90 3A     BCC $FB75                       A:56 X:02
								>       FB3B  C9 56     CMP #$56                        A:56 X:02
								>       FB3D  D0 36     BNE $FB75                       A:56 X:02
								>       FB3F  60        RTS                             A:56 X:02
								>       F3B0  AD 47 06  LDA $0647 = 14                  A:56 X:02
								>       F3B3  C9 14     CMP #$14                        A:14 X:02
								>       F3B5  F0 02     BEQ $F3B9                       A:14 X:02
								>       F3B9  C8        INY                             A:14 X:02
								>       F3BA  A9 37     LDA #$37                        A:14 X:02
								>       F3BC  8D 47 06  STA $0647 = 14                  A:37 X:02
								>       F3BF  20 40 FB  JSR $FB40                       A:37 X:02
								>       FB40  24 01     BIT $01 = FF                    A:37 X:02
								>       FB42  38        SEC                             A:37 X:02
								>       FB43  A9 75     LDA #$75                        A:37 X:02
								>       FB45  60        RTS                             A:75 X:02
								>       F3C2  4F 47 06 *SRE $0647 = 37                  A:75 X:02
								>       F3C5  EA        NOP                             A:6E X:02
								>       F3C6  EA        NOP                             A:6E X:02
								>       F3C7  EA        NOP                             A:6E X:02
								>       F3C8  EA        NOP                             A:6E X:02
								>       F3C9  20 46 FB  JSR $FB46                       A:6E X:02
								>       FB46  50 2D     BVC $FB75                       A:6E X:02
								>       FB48  F0 2B     BEQ $FB75                       A:6E X:02
								>       FB4A  30 29     BMI $FB75                       A:6E X:02
								>       FB4C  90 27     BCC $FB75                       A:6E X:02
								>       FB4E  C9 6E     CMP #$6E                        A:6E X:02
								>       FB50  D0 23     BNE $FB75                       A:6E X:02
								>       FB52  60        RTS                             A:6E X:02
								>       F3CC  AD 47 06  LDA $0647 = 1B                  A:6E X:02
								>       F3CF  C9 1B     CMP #$1B                        A:1B X:02
								>       F3D1  F0 02     BEQ $F3D5                       A:1B X:02
								>       F3D5  A9 A5     LDA #$A5                        A:1B X:02
								>       F3D7  8D 47 06  STA $0647 = 1B                  A:A5 X:02
								>       F3DA  A9 48     LDA #$48                        A:A5 X:02
								>       F3DC  85 45     STA $45 = 48                    A:48 X:02
								>       F3DE  A9 05     LDA #$05                        A:48 X:02
								>       F3E0  85 46     STA $46 = 05                    A:05 X:02
								>       F3E2  A0 FF     LDY #$FF                        A:05 X:02
								>       F3E4  20 1D FB  JSR $FB1D                       A:05 X:02
								>       FB1D  24 01     BIT $01 = FF                    A:05 X:02
								>       FB1F  18        CLC                             A:05 X:02
								>       FB20  A9 B3     LDA #$B3                        A:05 X:02
								>       FB22  60        RTS                             A:B3 X:02
								>       F3E7  53 45    *SRE ($45),Y = 0548 @ 0647 = A5  A:B3 X:02
								>       F3E9  EA        NOP                             A:E1 X:02
								>       F3EA  EA        NOP                             A:E1 X:02
								>       F3EB  08        PHP                             A:E1 X:02
								>       F3EC  48        PHA                             A:E1 X:02
								>       F3ED  A0 F2     LDY #$F2                        A:E1 X:02
								>       F3EF  68        PLA                             A:E1 X:02
								>       F3F0  28        PLP                             A:E1 X:02
								>       F3F1  20 23 FB  JSR $FB23                       A:E1 X:02
								>       FB23  50 50     BVC $FB75                       A:E1 X:02
								>       FB25  90 4E     BCC $FB75                       A:E1 X:02
								>       FB27  10 4C     BPL $FB75                       A:E1 X:02
								>       FB29  C9 E1     CMP #$E1                        A:E1 X:02
								>       FB2B  D0 48     BNE $FB75                       A:E1 X:02
								>       FB2D  60        RTS                             A:E1 X:02
								>       F3F4  AD 47 06  LDA $0647 = 52                  A:E1 X:02
								>       F3F7  C9 52     CMP #$52                        A:52 X:02
								>       F3F9  F0 02     BEQ $F3FD                       A:52 X:02
								>       F3FD  A0 FF     LDY #$FF                        A:52 X:02
								>       F3FF  A9 29     LDA #$29                        A:52 X:02
								>       F401  8D 47 06  STA $0647 = 52                  A:29 X:02
								>       F404  20 2E FB  JSR $FB2E                       A:29 X:02
								>       FB2E  B8        CLV                             A:29 X:02
								>       FB2F  18        CLC                             A:29 X:02
								>       FB30  A9 42     LDA #$42                        A:29 X:02
								>       FB32  60        RTS                             A:42 X:02
								>       F407  53 45    *SRE ($45),Y = 0548 @ 0647 = 29  A:42 X:02
								>       F409  EA        NOP                             A:56 X:02
								>       F40A  EA        NOP                             A:56 X:02
								>       F40B  08        PHP                             A:56 X:02
								>       F40C  48        PHA                             A:56 X:02
								>       F40D  A0 F3     LDY #$F3                        A:56 X:02
								>       F40F  68        PLA                             A:56 X:02
								>       F410  28        PLP                             A:56 X:02
								>       F411  20 33 FB  JSR $FB33                       A:56 X:02
								>       FB33  70 40     BVS $FB75                       A:56 X:02
								>       FB35  F0 3E     BEQ $FB75                       A:56 X:02
								>       FB37  30 3C     BMI $FB75                       A:56 X:02
								>       FB39  90 3A     BCC $FB75                       A:56 X:02
								>       FB3B  C9 56     CMP #$56                        A:56 X:02
								>       FB3D  D0 36     BNE $FB75                       A:56 X:02
								>       FB3F  60        RTS                             A:56 X:02
								>       F414  AD 47 06  LDA $0647 = 14                  A:56 X:02
								>       F417  C9 14     CMP #$14                        A:14 X:02
								>       F419  F0 02     BEQ $F41D                       A:14 X:02
								>       F41D  A0 FF     LDY #$FF                        A:14 X:02
								>       F41F  A9 37     LDA #$37                        A:14 X:02
								>       F421  8D 47 06  STA $0647 = 14                  A:37 X:02
								>       F424  20 40 FB  JSR $FB40                       A:37 X:02
								>       FB40  24 01     BIT $01 = FF                    A:37 X:02
								>       FB42  38        SEC                             A:37 X:02
								>       FB43  A9 75     LDA #$75                        A:37 X:02
								>       FB45  60        RTS                             A:75 X:02
								>       F427  53 45    *SRE ($45),Y = 0548 @ 0647 = 37  A:75 X:02
								>       F429  EA        NOP                             A:6E X:02
								>       F42A  EA        NOP                             A:6E X:02
								>       F42B  08        PHP                             A:6E X:02
								>       F42C  48        PHA                             A:6E X:02
								>       F42D  A0 F4     LDY #$F4                        A:6E X:02
								>       F42F  68        PLA                             A:6E X:02
								>       F430  28        PLP                             A:6E X:02
								>       F431  20 46 FB  JSR $FB46                       A:6E X:02
								>       FB46  50 2D     BVC $FB75                       A:6E X:02
								>       FB48  F0 2B     BEQ $FB75                       A:6E X:02
								>       FB4A  30 29     BMI $FB75                       A:6E X:02
								>       FB4C  90 27     BCC $FB75                       A:6E X:02
								>       FB4E  C9 6E     CMP #$6E                        A:6E X:02
								>       FB50  D0 23     BNE $FB75                       A:6E X:02
								>       FB52  60        RTS                             A:6E X:02
								>       F434  AD 47 06  LDA $0647 = 1B                  A:6E X:02
								>       F437  C9 1B     CMP #$1B                        A:1B X:02
								>       F439  F0 02     BEQ $F43D                       A:1B X:02
								>       F43D  A0 F5     LDY #$F5                        A:1B X:02
								>       F43F  A2 FF     LDX #$FF                        A:1B X:02
								>       F441  A9 A5     LDA #$A5                        A:1B X:FF
								>       F443  85 47     STA $47 = 1B                    A:A5 X:FF
								>       F445  20 1D FB  JSR $FB1D                       A:A5 X:FF
								>       FB1D  24 01     BIT $01 = FF                    A:A5 X:FF
								>       FB1F  18        CLC                             A:A5 X:FF
								>       FB20  A9 B3     LDA #$B3                        A:A5 X:FF
								>       FB22  60        RTS                             A:B3 X:FF
								>       F448  57 48    *SRE $48,X @ 47 = A5             A:B3 X:FF
								>       F44A  EA        NOP                             A:E1 X:FF
								>       F44B  EA        NOP                             A:E1 X:FF
								>       F44C  EA        NOP                             A:E1 X:FF
								>       F44D  EA        NOP                             A:E1 X:FF
								>       F44E  20 23 FB  JSR $FB23                       A:E1 X:FF
								>       FB23  50 50     BVC $FB75                       A:E1 X:FF
								>       FB25  90 4E     BCC $FB75                       A:E1 X:FF
								>       FB27  10 4C     BPL $FB75                       A:E1 X:FF
								>       FB29  C9 E1     CMP #$E1                        A:E1 X:FF
								>       FB2B  D0 48     BNE $FB75                       A:E1 X:FF
								>       FB2D  60        RTS                             A:E1 X:FF
								>       F451  A5 47     LDA $47 = 52                    A:E1 X:FF
								>       F453  C9 52     CMP #$52                        A:52 X:FF
								>       F455  F0 02     BEQ $F459                       A:52 X:FF
								>       F459  C8        INY                             A:52 X:FF
								>       F45A  A9 29     LDA #$29                        A:52 X:FF
								>       F45C  85 47     STA $47 = 52                    A:29 X:FF
								>       F45E  20 2E FB  JSR $FB2E                       A:29 X:FF
								>       FB2E  B8        CLV                             A:29 X:FF
								>       FB2F  18        CLC                             A:29 X:FF
								>       FB30  A9 42     LDA #$42                        A:29 X:FF
								>       FB32  60        RTS                             A:42 X:FF
								>       F461  57 48    *SRE $48,X @ 47 = 29             A:42 X:FF
								>       F463  EA        NOP                             A:56 X:FF
								>       F464  EA        NOP                             A:56 X:FF
								>       F465  EA        NOP                             A:56 X:FF
								>       F466  EA        NOP                             A:56 X:FF
								>       F467  20 33 FB  JSR $FB33                       A:56 X:FF
								>       FB33  70 40     BVS $FB75                       A:56 X:FF
								>       FB35  F0 3E     BEQ $FB75                       A:56 X:FF
								>       FB37  30 3C     BMI $FB75                       A:56 X:FF
								>       FB39  90 3A     BCC $FB75                       A:56 X:FF
								>       FB3B  C9 56     CMP #$56                        A:56 X:FF
								>       FB3D  D0 36     BNE $FB75                       A:56 X:FF
								>       FB3F  60        RTS                             A:56 X:FF
								>       F46A  A5 47     LDA $47 = 14                    A:56 X:FF
								>       F46C  C9 14     CMP #$14                        A:14 X:FF
								>       F46E  F0 02     BEQ $F472                       A:14 X:FF
								>       F472  C8        INY                             A:14 X:FF
								>       F473  A9 37     LDA #$37                        A:14 X:FF
								>       F475  85 47     STA $47 = 14                    A:37 X:FF
								>       F477  20 40 FB  JSR $FB40                       A:37 X:FF
								>       FB40  24 01     BIT $01 = FF                    A:37 X:FF
								>       FB42  38        SEC                             A:37 X:FF
								>       FB43  A9 75     LDA #$75                        A:37 X:FF
								>       FB45  60        RTS                             A:75 X:FF
								>       F47A  57 48    *SRE $48,X @ 47 = 37             A:75 X:FF
								>       F47C  EA        NOP                             A:6E X:FF
								>       F47D  EA        NOP                             A:6E X:FF
								>       F47E  EA        NOP                             A:6E X:FF
								>       F47F  EA        NOP                             A:6E X:FF
								>       F480  20 46 FB  JSR $FB46                       A:6E X:FF
								>       FB46  50 2D     BVC $FB75                       A:6E X:FF
								>       FB48  F0 2B     BEQ $FB75                       A:6E X:FF
								>       FB4A  30 29     BMI $FB75                       A:6E X:FF
								>       FB4C  90 27     BCC $FB75                       A:6E X:FF
								>       FB4E  C9 6E     CMP #$6E                        A:6E X:FF
								>       FB50  D0 23     BNE $FB75                       A:6E X:FF
								>       FB52  60        RTS                             A:6E X:FF
								>       F483  A5 47     LDA $47 = 1B                    A:6E X:FF
								>       F485  C9 1B     CMP #$1B                        A:1B X:FF
								>       F487  F0 02     BEQ $F48B                       A:1B X:FF
								>       F48B  A9 A5     LDA #$A5                        A:1B X:FF
								>       F48D  8D 47 06  STA $0647 = 1B                  A:A5 X:FF
								>       F490  A0 FF     LDY #$FF                        A:A5 X:FF
								>       F492  20 1D FB  JSR $FB1D                       A:A5 X:FF
								>       FB1D  24 01     BIT $01 = FF                    A:A5 X:FF
								>       FB1F  18        CLC                             A:A5 X:FF
								>       FB20  A9 B3     LDA #$B3                        A:A5 X:FF
								>       FB22  60        RTS                             A:B3 X:FF
								>       F495  5B 48 05 *SRE $0548,Y @ 0647 = A5         A:B3 X:FF
								>       F498  EA        NOP                             A:E1 X:FF
								>       F499  EA        NOP                             A:E1 X:FF
								>       F49A  08        PHP                             A:E1 X:FF
								>       F49B  48        PHA                             A:E1 X:FF
								>       F49C  A0 F8     LDY #$F8                        A:E1 X:FF
								>       F49E  68        PLA                             A:E1 X:FF
								>       F49F  28        PLP                             A:E1 X:FF
								>       F4A0  20 23 FB  JSR $FB23                       A:E1 X:FF
								>       FB23  50 50     BVC $FB75                       A:E1 X:FF
								>       FB25  90 4E     BCC $FB75                       A:E1 X:FF
								>       FB27  10 4C     BPL $FB75                       A:E1 X:FF
								>       FB29  C9 E1     CMP #$E1                        A:E1 X:FF
								>       FB2B  D0 48     BNE $FB75                       A:E1 X:FF
								>       FB2D  60        RTS                             A:E1 X:FF
								>       F4A3  AD 47 06  LDA $0647 = 52                  A:E1 X:FF
								>       F4A6  C9 52     CMP #$52                        A:52 X:FF
								>       F4A8  F0 02     BEQ $F4AC                       A:52 X:FF
								>       F4AC  A0 FF     LDY #$FF                        A:52 X:FF
								>       F4AE  A9 29     LDA #$29                        A:52 X:FF
								>       F4B0  8D 47 06  STA $0647 = 52                  A:29 X:FF
								>       F4B3  20 2E FB  JSR $FB2E                       A:29 X:FF
								>       FB2E  B8        CLV                             A:29 X:FF
								>       FB2F  18        CLC                             A:29 X:FF
								>       FB30  A9 42     LDA #$42                        A:29 X:FF
								>       FB32  60        RTS                             A:42 X:FF
								>       F4B6  5B 48 05 *SRE $0548,Y @ 0647 = 29         A:42 X:FF
								>       F4B9  EA        NOP                             A:56 X:FF
								>       F4BA  EA        NOP                             A:56 X:FF
								>       F4BB  08        PHP                             A:56 X:FF
								>       F4BC  48        PHA                             A:56 X:FF
								>       F4BD  A0 F9     LDY #$F9                        A:56 X:FF
								>       F4BF  68        PLA                             A:56 X:FF
								>       F4C0  28        PLP                             A:56 X:FF
								>       F4C1  20 33 FB  JSR $FB33                       A:56 X:FF
								>       FB33  70 40     BVS $FB75                       A:56 X:FF
								>       FB35  F0 3E     BEQ $FB75                       A:56 X:FF
								>       FB37  30 3C     BMI $FB75                       A:56 X:FF
								>       FB39  90 3A     BCC $FB75                       A:56 X:FF
								>       FB3B  C9 56     CMP #$56                        A:56 X:FF
								>       FB3D  D0 36     BNE $FB75                       A:56 X:FF
								>       FB3F  60        RTS                             A:56 X:FF
								>       F4C4  AD 47 06  LDA $0647 = 14                  A:56 X:FF
								>       F4C7  C9 14     CMP #$14                        A:14 X:FF
								>       F4C9  F0 02     BEQ $F4CD                       A:14 X:FF
								>       F4CD  A0 FF     LDY #$FF                        A:14 X:FF
								>       F4CF  A9 37     LDA #$37                        A:14 X:FF
								>       F4D1  8D 47 06  STA $0647 = 14                  A:37 X:FF
								>       F4D4  20 40 FB  JSR $FB40                       A:37 X:FF
								>       FB40  24 01     BIT $01 = FF                    A:37 X:FF
								>       FB42  38        SEC                             A:37 X:FF
								>       FB43  A9 75     LDA #$75                        A:37 X:FF
								>       FB45  60        RTS                             A:75 X:FF
								>       F4D7  5B 48 05 *SRE $0548,Y @ 0647 = 37         A:75 X:FF
								>       F4DA  EA        NOP                             A:6E X:FF
								>       F4DB  EA        NOP                             A:6E X:FF
								>       F4DC  08        PHP                             A:6E X:FF
								>       F4DD  48        PHA                             A:6E X:FF
								>       F4DE  A0 FA     LDY #$FA                        A:6E X:FF
								>       F4E0  68        PLA                             A:6E X:FF
								>       F4E1  28        PLP                             A:6E X:FF
								>       F4E2  20 46 FB  JSR $FB46                       A:6E X:FF
								>       FB46  50 2D     BVC $FB75                       A:6E X:FF
								>       FB48  F0 2B     BEQ $FB75                       A:6E X:FF
								>       FB4A  30 29     BMI $FB75                       A:6E X:FF
								>       FB4C  90 27     BCC $FB75                       A:6E X:FF
								>       FB4E  C9 6E     CMP #$6E                        A:6E X:FF
								>       FB50  D0 23     BNE $FB75                       A:6E X:FF
								>       FB52  60        RTS                             A:6E X:FF
								>       F4E5  AD 47 06  LDA $0647 = 1B                  A:6E X:FF
								>       F4E8  C9 1B     CMP #$1B                        A:1B X:FF
								>       F4EA  F0 02     BEQ $F4EE                       A:1B X:FF
								>       F4EE  A0 FB     LDY #$FB                        A:1B X:FF
								>       F4F0  A2 FF     LDX #$FF                        A:1B X:FF
								>       F4F2  A9 A5     LDA #$A5                        A:1B X:FF
								>       F4F4  8D 47 06  STA $0647 = 1B                  A:A5 X:FF
								>       F4F7  20 1D FB  JSR $FB1D                       A:A5 X:FF
								>       FB1D  24 01     BIT $01 = FF                    A:A5 X:FF
								>       FB1F  18        CLC                             A:A5 X:FF
								>       FB20  A9 B3     LDA #$B3                        A:A5 X:FF
								>       FB22  60        RTS                             A:B3 X:FF
								>       F4FA  5F 48 05 *SRE $0548,X @ 0647 = A5         A:B3 X:FF
								>       F4FD  EA        NOP                             A:E1 X:FF
								>       F4FE  EA        NOP                             A:E1 X:FF
								>       F4FF  EA        NOP                             A:E1 X:FF
								>       F500  EA        NOP                             A:E1 X:FF
								>       F501  20 23 FB  JSR $FB23                       A:E1 X:FF
								>       FB23  50 50     BVC $FB75                       A:E1 X:FF
								>       FB25  90 4E     BCC $FB75                       A:E1 X:FF
								>       FB27  10 4C     BPL $FB75                       A:E1 X:FF
								>       FB29  C9 E1     CMP #$E1                        A:E1 X:FF
								>       FB2B  D0 48     BNE $FB75                       A:E1 X:FF
								>       FB2D  60        RTS                             A:E1 X:FF
								>       F504  AD 47 06  LDA $0647 = 52                  A:E1 X:FF
								>       F507  C9 52     CMP #$52                        A:52 X:FF
								>       F509  F0 02     BEQ $F50D                       A:52 X:FF
								>       F50D  C8        INY                             A:52 X:FF
								>       F50E  A9 29     LDA #$29                        A:52 X:FF
								>       F510  8D 47 06  STA $0647 = 52                  A:29 X:FF
								>       F513  20 2E FB  JSR $FB2E                       A:29 X:FF
								>       FB2E  B8        CLV                             A:29 X:FF
								>       FB2F  18        CLC                             A:29 X:FF
								>       FB30  A9 42     LDA #$42                        A:29 X:FF
								>       FB32  60        RTS                             A:42 X:FF
								>       F516  5F 48 05 *SRE $0548,X @ 0647 = 29         A:42 X:FF
								>       F519  EA        NOP                             A:56 X:FF
								>       F51A  EA        NOP                             A:56 X:FF
								>       F51B  EA        NOP                             A:56 X:FF
								>       F51C  EA        NOP                             A:56 X:FF
								>       F51D  20 33 FB  JSR $FB33                       A:56 X:FF
								>       FB33  70 40     BVS $FB75                       A:56 X:FF
								>       FB35  F0 3E     BEQ $FB75                       A:56 X:FF
								>       FB37  30 3C     BMI $FB75                       A:56 X:FF
								>       FB39  90 3A     BCC $FB75                       A:56 X:FF
								>       FB3B  C9 56     CMP #$56                        A:56 X:FF
								>       FB3D  D0 36     BNE $FB75                       A:56 X:FF
								>       FB3F  60        RTS                             A:56 X:FF
								>       F520  AD 47 06  LDA $0647 = 14                  A:56 X:FF
								>       F523  C9 14     CMP #$14                        A:14 X:FF
								>       F525  F0 02     BEQ $F529                       A:14 X:FF
								>       F529  C8        INY                             A:14 X:FF
								>       F52A  A9 37     LDA #$37                        A:14 X:FF
								>       F52C  8D 47 06  STA $0647 = 14                  A:37 X:FF
								>       F52F  20 40 FB  JSR $FB40                       A:37 X:FF
								>       FB40  24 01     BIT $01 = FF                    A:37 X:FF
								>       FB42  38        SEC                             A:37 X:FF
								>       FB43  A9 75     LDA #$75                        A:37 X:FF
								>       FB45  60        RTS                             A:75 X:FF
								>       F532  5F 48 05 *SRE $0548,X @ 0647 = 37         A:75 X:FF
								>       F535  EA        NOP                             A:6E X:FF
								>       F536  EA        NOP                             A:6E X:FF
								>       F537  EA        NOP                             A:6E X:FF
								>       F538  EA        NOP                             A:6E X:FF
								>       F539  20 46 FB  JSR $FB46                       A:6E X:FF
								>       FB46  50 2D     BVC $FB75                       A:6E X:FF
								>       FB48  F0 2B     BEQ $FB75                       A:6E X:FF
								>       FB4A  30 29     BMI $FB75                       A:6E X:FF
								>       FB4C  90 27     BCC $FB75                       A:6E X:FF
								>       FB4E  C9 6E     CMP #$6E                        A:6E X:FF
								>       FB50  D0 23     BNE $FB75                       A:6E X:FF
								>       FB52  60        RTS                             A:6E X:FF
								>       F53C  AD 47 06  LDA $0647 = 1B                  A:6E X:FF
								>       F53F  C9 1B     CMP #$1B                        A:1B X:FF
								>       F541  F0 02     BEQ $F545                       A:1B X:FF
								>       F545  60        RTS                             A:1B X:FF
								>       C64A  A5 00     LDA $00 = 00                    A:1B X:FF
								>       C64C  85 11     STA $11 = 00                    A:00 X:FF
								>       C64E  A9 00     LDA #$00                        A:00 X:FF
								>       C650  85 00     STA $00 = 00                    A:00 X:FF
								>       C652  20 46 F5  JSR $F546                       A:00 X:FF
								>       F546  A9 FF     LDA #$FF                        A:00 X:FF
								>       F548  85 01     STA $01 = FF                    A:FF X:FF
								>       F54A  A0 01     LDY #$01                        A:FF X:FF
								>       F54C  A2 02     LDX #$02                        A:FF X:FF
								>       F54E  A9 47     LDA #$47                        A:FF X:02
								>       F550  85 47     STA $47 = 1B                    A:47 X:02
								>       F552  A9 06     LDA #$06                        A:47 X:02
								>       F554  85 48     STA $48 = 06                    A:06 X:02
								>       F556  A9 A5     LDA #$A5                        A:06 X:02
								>       F558  8D 47 06  STA $0647 = 1B                  A:A5 X:02
								>       F55B  20 E9 FA  JSR $FAE9                       A:A5 X:02
								>       FAE9  24 01     BIT $01 = FF                    A:A5 X:02
								>       FAEB  18        CLC                             A:A5 X:02
								>       FAEC  A9 B2     LDA #$B2                        A:A5 X:02
								>       FAEE  60        RTS                             A:B2 X:02
								>       F55E  63 45    *RRA ($45,X) @ 47 = 0647 = A5    A:B2 X:02
								>       F560  EA        NOP                             A:05 X:02
								>       F561  EA        NOP                             A:05 X:02
								>       F562  EA        NOP                             A:05 X:02
								>       F563  EA        NOP                             A:05 X:02
								>       F564  20 EF FA  JSR $FAEF                       A:05 X:02
								>       FAEF  70 2A     BVS $FB1B                       A:05 X:02
								>       FAF1  90 28     BCC $FB1B                       A:05 X:02
								>       FAF3  30 26     BMI $FB1B                       A:05 X:02
								>       FAF5  C9 05     CMP #$05                        A:05 X:02
								>       FAF7  D0 22     BNE $FB1B                       A:05 X:02
								>       FAF9  60        RTS                             A:05 X:02
								>       F567  AD 47 06  LDA $0647 = 52                  A:05 X:02
								>       F56A  C9 52     CMP #$52                        A:52 X:02
								>       F56C  F0 02     BEQ $F570                       A:52 X:02
								>       F570  C8        INY                             A:52 X:02
								>       F571  A9 29     LDA #$29                        A:52 X:02
								>       F573  8D 47 06  STA $0647 = 52                  A:29 X:02
								>       F576  20 FA FA  JSR $FAFA                       A:29 X:02
								>       FAFA  B8        CLV                             A:29 X:02
								>       FAFB  18        CLC                             A:29 X:02
								>       FAFC  A9 42     LDA #$42                        A:29 X:02
								>       FAFE  60        RTS                             A:42 X:02
								>       F579  63 45    *RRA ($45,X) @ 47 = 0647 = 29    A:42 X:02
								>       F57B  EA        NOP                             A:57 X:02
								>       F57C  EA        NOP                             A:57 X:02
								>       F57D  EA        NOP                             A:57 X:02
								>       F57E  EA        NOP                             A:57 X:02
								>       F57F  20 FF FA  JSR $FAFF                       A:57 X:02
								>       FAFF  70 1A     BVS $FB1B                       A:57 X:02
								>       FB01  30 18     BMI $FB1B                       A:57 X:02
								>       FB03  B0 16     BCS $FB1B                       A:57 X:02
								>       FB05  C9 57     CMP #$57                        A:57 X:02
								>       FB07  D0 12     BNE $FB1B                       A:57 X:02
								>       FB09  60        RTS                             A:57 X:02
								>       F582  AD 47 06  LDA $0647 = 14                  A:57 X:02
								>       F585  C9 14     CMP #$14                        A:14 X:02
								>       F587  F0 02     BEQ $F58B                       A:14 X:02
								>       F58B  C8        INY                             A:14 X:02
								>       F58C  A9 37     LDA #$37                        A:14 X:02
								>       F58E  8D 47 06  STA $0647 = 14                  A:37 X:02
								>       F591  20 0A FB  JSR $FB0A                       A:37 X:02
								>       FB0A  24 01     BIT $01 = FF                    A:37 X:02
								>       FB0C  38        SEC                             A:37 X:02
								>       FB0D  A9 75     LDA #$75                        A:37 X:02
								>       FB0F  60        RTS                             A:75 X:02
								>       F594  63 45    *RRA ($45,X) @ 47 = 0647 = 37    A:75 X:02
								>       F596  EA        NOP                             A:11 X:02
								>       F597  EA        NOP                             A:11 X:02
								>       F598  EA        NOP                             A:11 X:02
								>       F599  EA        NOP                             A:11 X:02
								>       F59A  20 10 FB  JSR $FB10                       A:11 X:02
								>       FB10  70 09     BVS $FB1B                       A:11 X:02
								>       FB12  30 07     BMI $FB1B                       A:11 X:02
								>       FB14  90 05     BCC $FB1B                       A:11 X:02
								>       FB16  C9 11     CMP #$11                        A:11 X:02
								>       FB18  D0 01     BNE $FB1B                       A:11 X:02
								>       FB1A  60        RTS                             A:11 X:02
								>       F59D  AD 47 06  LDA $0647 = 9B                  A:11 X:02
								>       F5A0  C9 9B     CMP #$9B                        A:9B X:02
								>       F5A2  F0 02     BEQ $F5A6                       A:9B X:02
								>       F5A6  C8        INY                             A:9B X:02
								>       F5A7  A9 A5     LDA #$A5                        A:9B X:02
								>       F5A9  85 47     STA $47 = 47                    A:A5 X:02
								>       F5AB  20 E9 FA  JSR $FAE9                       A:A5 X:02
								>       FAE9  24 01     BIT $01 = FF                    A:A5 X:02
								>       FAEB  18        CLC                             A:A5 X:02
								>       FAEC  A9 B2     LDA #$B2                        A:A5 X:02
								>       FAEE  60        RTS                             A:B2 X:02
								>       F5AE  67 47    *RRA $47 = A5                    A:B2 X:02
								>       F5B0  EA        NOP                             A:05 X:02
								>       F5B1  EA        NOP                             A:05 X:02
								>       F5B2  EA        NOP                             A:05 X:02
								>       F5B3  EA        NOP                             A:05 X:02
								>       F5B4  20 EF FA  JSR $FAEF                       A:05 X:02
								>       FAEF  70 2A     BVS $FB1B                       A:05 X:02
								>       FAF1  90 28     BCC $FB1B                       A:05 X:02
								>       FAF3  30 26     BMI $FB1B                       A:05 X:02
								>       FAF5  C9 05     CMP #$05                        A:05 X:02
								>       FAF7  D0 22     BNE $FB1B                       A:05 X:02
								>       FAF9  60        RTS                             A:05 X:02
								>       F5B7  A5 47     LDA $47 = 52                    A:05 X:02
								>       F5B9  C9 52     CMP #$52                        A:52 X:02
								>       F5BB  F0 02     BEQ $F5BF                       A:52 X:02
								>       F5BF  C8        INY                             A:52 X:02
								>       F5C0  A9 29     LDA #$29                        A:52 X:02
								>       F5C2  85 47     STA $47 = 52                    A:29 X:02
								>       F5C4  20 FA FA  JSR $FAFA                       A:29 X:02
								>       FAFA  B8        CLV                             A:29 X:02
								>       FAFB  18        CLC                             A:29 X:02
								>       FAFC  A9 42     LDA #$42                        A:29 X:02
								>       FAFE  60        RTS                             A:42 X:02
								>       F5C7  67 47    *RRA $47 = 29                    A:42 X:02
								>       F5C9  EA        NOP                             A:57 X:02
								>       F5CA  EA        NOP                             A:57 X:02
								>       F5CB  EA        NOP                             A:57 X:02
								>       F5CC  EA        NOP                             A:57 X:02
								>       F5CD  20 FF FA  JSR $FAFF                       A:57 X:02
								>       FAFF  70 1A     BVS $FB1B                       A:57 X:02
								>       FB01  30 18     BMI $FB1B                       A:57 X:02
								>       FB03  B0 16     BCS $FB1B                       A:57 X:02
								>       FB05  C9 57     CMP #$57                        A:57 X:02
								>       FB07  D0 12     BNE $FB1B                       A:57 X:02
								>       FB09  60        RTS                             A:57 X:02
								>       F5D0  A5 47     LDA $47 = 14                    A:57 X:02
								>       F5D2  C9 14     CMP #$14                        A:14 X:02
								>       F5D4  F0 02     BEQ $F5D8                       A:14 X:02
								>       F5D8  C8        INY                             A:14 X:02
								>       F5D9  A9 37     LDA #$37                        A:14 X:02
								>       F5DB  85 47     STA $47 = 14                    A:37 X:02
								>       F5DD  20 0A FB  JSR $FB0A                       A:37 X:02
								>       FB0A  24 01     BIT $01 = FF                    A:37 X:02
								>       FB0C  38        SEC                             A:37 X:02
								>       FB0D  A9 75     LDA #$75                        A:37 X:02
								>       FB0F  60        RTS                             A:75 X:02
								>       F5E0  67 47    *RRA $47 = 37                    A:75 X:02
								>       F5E2  EA        NOP                             A:11 X:02
								>       F5E3  EA        NOP                             A:11 X:02
								>       F5E4  EA        NOP                             A:11 X:02
								>       F5E5  EA        NOP                             A:11 X:02
								>       F5E6  20 10 FB  JSR $FB10                       A:11 X:02
								>       FB10  70 09     BVS $FB1B                       A:11 X:02
								>       FB12  30 07     BMI $FB1B                       A:11 X:02
								>       FB14  90 05     BCC $FB1B                       A:11 X:02
								>       FB16  C9 11     CMP #$11                        A:11 X:02
								>       FB18  D0 01     BNE $FB1B                       A:11 X:02
								>       FB1A  60        RTS                             A:11 X:02
								>       F5E9  A5 47     LDA $47 = 9B                    A:11 X:02
								>       F5EB  C9 9B     CMP #$9B                        A:9B X:02
								>       F5ED  F0 02     BEQ $F5F1                       A:9B X:02
								>       F5F1  C8        INY                             A:9B X:02
								>       F5F2  A9 A5     LDA #$A5                        A:9B X:02
								>       F5F4  8D 47 06  STA $0647 = 9B                  A:A5 X:02
								>       F5F7  20 E9 FA  JSR $FAE9                       A:A5 X:02
								>       FAE9  24 01     BIT $01 = FF                    A:A5 X:02
								>       FAEB  18        CLC                             A:A5 X:02
								>       FAEC  A9 B2     LDA #$B2                        A:A5 X:02
								>       FAEE  60        RTS                             A:B2 X:02
								>       F5FA  6F 47 06 *RRA $0647 = A5                  A:B2 X:02
								>       F5FD  EA        NOP                             A:05 X:02
								>       F5FE  EA        NOP                             A:05 X:02
								>       F5FF  EA        NOP                             A:05 X:02
								>       F600  EA        NOP                             A:05 X:02
								>       F601  20 EF FA  JSR $FAEF                       A:05 X:02
								>       FAEF  70 2A     BVS $FB1B                       A:05 X:02
								>       FAF1  90 28     BCC $FB1B                       A:05 X:02
								>       FAF3  30 26     BMI $FB1B                       A:05 X:02
								>       FAF5  C9 05     CMP #$05                        A:05 X:02
								>       FAF7  D0 22     BNE $FB1B                       A:05 X:02
								>       FAF9  60        RTS                             A:05 X:02
								>       F604  AD 47 06  LDA $0647 = 52                  A:05 X:02
								>       F607  C9 52     CMP #$52                        A:52 X:02
								>       F609  F0 02     BEQ $F60D                       A:52 X:02
								>       F60D  C8        INY                             A:52 X:02
								>       F60E  A9 29     LDA #$29                        A:52 X:02
								>       F610  8D 47 06  STA $0647 = 52                  A:29 X:02
								>       F613  20 FA FA  JSR $FAFA                       A:29 X:02
								>       FAFA  B8        CLV                             A:29 X:02
								>       FAFB  18        CLC                             A:29 X:02
								>       FAFC  A9 42     LDA #$42                        A:29 X:02
								>       FAFE  60        RTS                             A:42 X:02
								>       F616  6F 47 06 *RRA $0647 = 29                  A:42 X:02
								>       F619  EA        NOP                             A:57 X:02
								>       F61A  EA        NOP                             A:57 X:02
								>       F61B  EA        NOP                             A:57 X:02
								>       F61C  EA        NOP                             A:57 X:02
								>       F61D  20 FF FA  JSR $FAFF                       A:57 X:02
								>       FAFF  70 1A     BVS $FB1B                       A:57 X:02
								>       FB01  30 18     BMI $FB1B                       A:57 X:02
								>       FB03  B0 16     BCS $FB1B                       A:57 X:02
								>       FB05  C9 57     CMP #$57                        A:57 X:02
								>       FB07  D0 12     BNE $FB1B                       A:57 X:02
								>       FB09  60        RTS                             A:57 X:02
								>       F620  AD 47 06  LDA $0647 = 14                  A:57 X:02
								>       F623  C9 14     CMP #$14                        A:14 X:02
								>       F625  F0 02     BEQ $F629                       A:14 X:02
								>       F629  C8        INY                             A:14 X:02
								>       F62A  A9 37     LDA #$37                        A:14 X:02
								>       F62C  8D 47 06  STA $0647 = 14                  A:37 X:02
								>       F62F  20 0A FB  JSR $FB0A                       A:37 X:02
								>       FB0A  24 01     BIT $01 = FF                    A:37 X:02
								>       FB0C  38        SEC                             A:37 X:02
								>       FB0D  A9 75     LDA #$75                        A:37 X:02
								>       FB0F  60        RTS                             A:75 X:02
								>       F632  6F 47 06 *RRA $0647 = 37                  A:75 X:02
								>       F635  EA        NOP                             A:11 X:02
								>       F636  EA        NOP                             A:11 X:02
								>       F637  EA        NOP                             A:11 X:02
								>       F638  EA        NOP                             A:11 X:02
								>       F639  20 10 FB  JSR $FB10                       A:11 X:02
								>       FB10  70 09     BVS $FB1B                       A:11 X:02
								>       FB12  30 07     BMI $FB1B                       A:11 X:02
								>       FB14  90 05     BCC $FB1B                       A:11 X:02
								>       FB16  C9 11     CMP #$11                        A:11 X:02
								>       FB18  D0 01     BNE $FB1B                       A:11 X:02
								>       FB1A  60        RTS                             A:11 X:02
								>       F63C  AD 47 06  LDA $0647 = 9B                  A:11 X:02
								>       F63F  C9 9B     CMP #$9B                        A:9B X:02
								>       F641  F0 02     BEQ $F645                       A:9B X:02
								>       F645  A9 A5     LDA #$A5                        A:9B X:02
								>       F647  8D 47 06  STA $0647 = 9B                  A:A5 X:02
								>       F64A  A9 48     LDA #$48                        A:A5 X:02
								>       F64C  85 45     STA $45 = 48                    A:48 X:02
								>       F64E  A9 05     LDA #$05                        A:48 X:02
								>       F650  85 46     STA $46 = 05                    A:05 X:02
								>       F652  A0 FF     LDY #$FF                        A:05 X:02
								>       F654  20 E9 FA  JSR $FAE9                       A:05 X:02
								>       FAE9  24 01     BIT $01 = FF                    A:05 X:02
								>       FAEB  18        CLC                             A:05 X:02
								>       FAEC  A9 B2     LDA #$B2                        A:05 X:02
								>       FAEE  60        RTS                             A:B2 X:02
								>       F657  73 45    *RRA ($45),Y = 0548 @ 0647 = A5  A:B2 X:02
								>       F659  EA        NOP                             A:05 X:02
								>       F65A  EA        NOP                             A:05 X:02
								>       F65B  08        PHP                             A:05 X:02
								>       F65C  48        PHA                             A:05 X:02
								>       F65D  A0 0A     LDY #$0A                        A:05 X:02
								>       F65F  68        PLA                             A:05 X:02
								>       F660  28        PLP                             A:05 X:02
								>       F661  20 EF FA  JSR $FAEF                       A:05 X:02
								>       FAEF  70 2A     BVS $FB1B                       A:05 X:02
								>       FAF1  90 28     BCC $FB1B                       A:05 X:02
								>       FAF3  30 26     BMI $FB1B                       A:05 X:02
								>       FAF5  C9 05     CMP #$05                        A:05 X:02
								>       FAF7  D0 22     BNE $FB1B                       A:05 X:02
								>       FAF9  60        RTS                             A:05 X:02
								>       F664  AD 47 06  LDA $0647 = 52                  A:05 X:02
								>       F667  C9 52     CMP #$52                        A:52 X:02
								>       F669  F0 02     BEQ $F66D                       A:52 X:02
								>       F66D  A0 FF     LDY #$FF                        A:52 X:02
								>       F66F  A9 29     LDA #$29                        A:52 X:02
								>       F671  8D 47 06  STA $0647 = 52                  A:29 X:02
								>       F674  20 FA FA  JSR $FAFA                       A:29 X:02
								>       FAFA  B8        CLV                             A:29 X:02
								>       FAFB  18        CLC                             A:29 X:02
								>       FAFC  A9 42     LDA #$42                        A:29 X:02
								>       FAFE  60        RTS                             A:42 X:02
								>       F677  73 45    *RRA ($45),Y = 0548 @ 0647 = 29  A:42 X:02
								>       F679  EA        NOP                             A:57 X:02
								>       F67A  EA        NOP                             A:57 X:02
								>       F67B  08        PHP                             A:57 X:02
								>       F67C  48        PHA                             A:57 X:02
								>       F67D  A0 0B     LDY #$0B                        A:57 X:02
								>       F67F  68        PLA                             A:57 X:02
								>       F680  28        PLP                             A:57 X:02
								>       F681  20 FF FA  JSR $FAFF                       A:57 X:02
								>       FAFF  70 1A     BVS $FB1B                       A:57 X:02
								>       FB01  30 18     BMI $FB1B                       A:57 X:02
								>       FB03  B0 16     BCS $FB1B                       A:57 X:02
								>       FB05  C9 57     CMP #$57                        A:57 X:02
								>       FB07  D0 12     BNE $FB1B                       A:57 X:02
								>       FB09  60        RTS                             A:57 X:02
								>       F684  AD 47 06  LDA $0647 = 14                  A:57 X:02
								>       F687  C9 14     CMP #$14                        A:14 X:02
								>       F689  F0 02     BEQ $F68D                       A:14 X:02
								>       F68D  A0 FF     LDY #$FF                        A:14 X:02
								>       F68F  A9 37     LDA #$37                        A:14 X:02
								>       F691  8D 47 06  STA $0647 = 14                  A:37 X:02
								>       F694  20 0A FB  JSR $FB0A                       A:37 X:02
								>       FB0A  24 01     BIT $01 = FF                    A:37 X:02
								>       FB0C  38        SEC                             A:37 X:02
								>       FB0D  A9 75     LDA #$75                        A:37 X:02
								>       FB0F  60        RTS                             A:75 X:02
								>       F697  73 45    *RRA ($45),Y = 0548 @ 0647 = 37  A:75 X:02
								>       F699  EA        NOP                             A:11 X:02
								>       F69A  EA        NOP                             A:11 X:02
								>       F69B  08        PHP                             A:11 X:02
								>       F69C  48        PHA                             A:11 X:02
								>       F69D  A0 0C     LDY #$0C                        A:11 X:02
								>       F69F  68        PLA                             A:11 X:02
								>       F6A0  28        PLP                             A:11 X:02
								>       F6A1  20 10 FB  JSR $FB10                       A:11 X:02
								>       FB10  70 09     BVS $FB1B                       A:11 X:02
								>       FB12  30 07     BMI $FB1B                       A:11 X:02
								>       FB14  90 05     BCC $FB1B                       A:11 X:02
								>       FB16  C9 11     CMP #$11                        A:11 X:02
								>       FB18  D0 01     BNE $FB1B                       A:11 X:02
								>       FB1A  60        RTS                             A:11 X:02
								>       F6A4  AD 47 06  LDA $0647 = 9B                  A:11 X:02
								>       F6A7  C9 9B     CMP #$9B                        A:9B X:02
								>       F6A9  F0 02     BEQ $F6AD                       A:9B X:02
								>       F6AD  A0 0D     LDY #$0D                        A:9B X:02
								>       F6AF  A2 FF     LDX #$FF                        A:9B X:02
								>       F6B1  A9 A5     LDA #$A5                        A:9B X:FF
								>       F6B3  85 47     STA $47 = 9B                    A:A5 X:FF
								>       F6B5  20 E9 FA  JSR $FAE9                       A:A5 X:FF
								>       FAE9  24 01     BIT $01 = FF                    A:A5 X:FF
								>       FAEB  18        CLC                             A:A5 X:FF
								>       FAEC  A9 B2     LDA #$B2                        A:A5 X:FF
								>       FAEE  60        RTS                             A:B2 X:FF
								>       F6B8  77 48    *RRA $48,X @ 47 = A5             A:B2 X:FF
								>       F6BA  EA        NOP                             A:05 X:FF
								>       F6BB  EA        NOP                             A:05 X:FF
								>       F6BC  EA        NOP                             A:05 X:FF
								>       F6BD  EA        NOP                             A:05 X:FF
								>       F6BE  20 EF FA  JSR $FAEF                       A:05 X:FF
								>       FAEF  70 2A     BVS $FB1B                       A:05 X:FF
								>       FAF1  90 28     BCC $FB1B                       A:05 X:FF
								>       FAF3  30 26     BMI $FB1B                       A:05 X:FF
								>       FAF5  C9 05     CMP #$05                        A:05 X:FF
								>       FAF7  D0 22     BNE $FB1B                       A:05 X:FF
								>       FAF9  60        RTS                             A:05 X:FF
								>       F6C1  A5 47     LDA $47 = 52                    A:05 X:FF
								>       F6C3  C9 52     CMP #$52                        A:52 X:FF
								>       F6C5  F0 02     BEQ $F6C9                       A:52 X:FF
								>       F6C9  C8        INY                             A:52 X:FF
								>       F6CA  A9 29     LDA #$29                        A:52 X:FF
								>       F6CC  85 47     STA $47 = 52                    A:29 X:FF
								>       F6CE  20 FA FA  JSR $FAFA                       A:29 X:FF
								>       FAFA  B8        CLV                             A:29 X:FF
								>       FAFB  18        CLC                             A:29 X:FF
								>       FAFC  A9 42     LDA #$42                        A:29 X:FF
								>       FAFE  60        RTS                             A:42 X:FF
								>       F6D1  77 48    *RRA $48,X @ 47 = 29             A:42 X:FF
								>       F6D3  EA        NOP                             A:57 X:FF
								>       F6D4  EA        NOP                             A:57 X:FF
								>       F6D5  EA        NOP                             A:57 X:FF
								>       F6D6  EA        NOP                             A:57 X:FF
								>       F6D7  20 FF FA  JSR $FAFF                       A:57 X:FF
								>       FAFF  70 1A     BVS $FB1B                       A:57 X:FF
								>       FB01  30 18     BMI $FB1B                       A:57 X:FF
								>       FB03  B0 16     BCS $FB1B                       A:57 X:FF
								>       FB05  C9 57     CMP #$57                        A:57 X:FF
								>       FB07  D0 12     BNE $FB1B                       A:57 X:FF
								>       FB09  60        RTS                             A:57 X:FF
								>       F6DA  A5 47     LDA $47 = 14                    A:57 X:FF
								>       F6DC  C9 14     CMP #$14                        A:14 X:FF
								>       F6DE  F0 02     BEQ $F6E2                       A:14 X:FF
								>       F6E2  C8        INY                             A:14 X:FF
								>       F6E3  A9 37     LDA #$37                        A:14 X:FF
								>       F6E5  85 47     STA $47 = 14                    A:37 X:FF
								>       F6E7  20 0A FB  JSR $FB0A                       A:37 X:FF
								>       FB0A  24 01     BIT $01 = FF                    A:37 X:FF
								>       FB0C  38        SEC                             A:37 X:FF
								>       FB0D  A9 75     LDA #$75                        A:37 X:FF
								>       FB0F  60        RTS                             A:75 X:FF
								>       F6EA  77 48    *RRA $48,X @ 47 = 37             A:75 X:FF
								>       F6EC  EA        NOP                             A:11 X:FF
								>       F6ED  EA        NOP                             A:11 X:FF
								>       F6EE  EA        NOP                             A:11 X:FF
								>       F6EF  EA        NOP                             A:11 X:FF
								>       F6F0  20 10 FB  JSR $FB10                       A:11 X:FF
								>       FB10  70 09     BVS $FB1B                       A:11 X:FF
								>       FB12  30 07     BMI $FB1B                       A:11 X:FF
								>       FB14  90 05     BCC $FB1B                       A:11 X:FF
								>       FB16  C9 11     CMP #$11                        A:11 X:FF
								>       FB18  D0 01     BNE $FB1B                       A:11 X:FF
								>       FB1A  60        RTS                             A:11 X:FF
								>       F6F3  A5 47     LDA $47 = 9B                    A:11 X:FF
								>       F6F5  C9 9B     CMP #$9B                        A:9B X:FF
								>       F6F7  F0 02     BEQ $F6FB                       A:9B X:FF
								>       F6FB  A9 A5     LDA #$A5                        A:9B X:FF
								>       F6FD  8D 47 06  STA $0647 = 9B                  A:A5 X:FF
								>       F700  A0 FF     LDY #$FF                        A:A5 X:FF
								>       F702  20 E9 FA  JSR $FAE9                       A:A5 X:FF
								>       FAE9  24 01     BIT $01 = FF                    A:A5 X:FF
								>       FAEB  18        CLC                             A:A5 X:FF
								>       FAEC  A9 B2     LDA #$B2                        A:A5 X:FF
								>       FAEE  60        RTS                             A:B2 X:FF
								>       F705  7B 48 05 *RRA $0548,Y @ 0647 = A5         A:B2 X:FF
								>       F708  EA        NOP                             A:05 X:FF
								>       F709  EA        NOP                             A:05 X:FF
								>       F70A  08        PHP                             A:05 X:FF
								>       F70B  48        PHA                             A:05 X:FF
								>       F70C  A0 10     LDY #$10                        A:05 X:FF
								>       F70E  68        PLA                             A:05 X:FF
								>       F70F  28        PLP                             A:05 X:FF
								>       F710  20 EF FA  JSR $FAEF                       A:05 X:FF
								>       FAEF  70 2A     BVS $FB1B                       A:05 X:FF
								>       FAF1  90 28     BCC $FB1B                       A:05 X:FF
								>       FAF3  30 26     BMI $FB1B                       A:05 X:FF
								>       FAF5  C9 05     CMP #$05                        A:05 X:FF
								>       FAF7  D0 22     BNE $FB1B                       A:05 X:FF
								>       FAF9  60        RTS                             A:05 X:FF
								>       F713  AD 47 06  LDA $0647 = 52                  A:05 X:FF
								>       F716  C9 52     CMP #$52                        A:52 X:FF
								>       F718  F0 02     BEQ $F71C                       A:52 X:FF
								>       F71C  A0 FF     LDY #$FF                        A:52 X:FF
								>       F71E  A9 29     LDA #$29                        A:52 X:FF
								>       F720  8D 47 06  STA $0647 = 52                  A:29 X:FF
								>       F723  20 FA FA  JSR $FAFA                       A:29 X:FF
								>       FAFA  B8        CLV                             A:29 X:FF
								>       FAFB  18        CLC                             A:29 X:FF
								>       FAFC  A9 42     LDA #$42                        A:29 X:FF
								>       FAFE  60        RTS                             A:42 X:FF
								>       F726  7B 48 05 *RRA $0548,Y @ 0647 = 29         A:42 X:FF
								>       F729  EA        NOP                             A:57 X:FF
								>       F72A  EA        NOP                             A:57 X:FF
								>       F72B  08        PHP                             A:57 X:FF
								>       F72C  48        PHA                             A:57 X:FF
								>       F72D  A0 11     LDY #$11                        A:57 X:FF
								>       F72F  68        PLA                             A:57 X:FF
								>       F730  28        PLP                             A:57 X:FF
								>       F731  20 FF FA  JSR $FAFF                       A:57 X:FF
								>       FAFF  70 1A     BVS $FB1B                       A:57 X:FF
								>       FB01  30 18     BMI $FB1B                       A:57 X:FF
								>       FB03  B0 16     BCS $FB1B                       A:57 X:FF
								>       FB05  C9 57     CMP #$57                        A:57 X:FF
								>       FB07  D0 12     BNE $FB1B                       A:57 X:FF
								>       FB09  60        RTS                             A:57 X:FF
								>       F734  AD 47 06  LDA $0647 = 14                  A:57 X:FF
								>       F737  C9 14     CMP #$14                        A:14 X:FF
								>       F739  F0 02     BEQ $F73D                       A:14 X:FF
								>       F73D  A0 FF     LDY #$FF                        A:14 X:FF
								>       F73F  A9 37     LDA #$37                        A:14 X:FF
								>       F741  8D 47 06  STA $0647 = 14                  A:37 X:FF
								>       F744  20 0A FB  JSR $FB0A                       A:37 X:FF
								>       FB0A  24 01     BIT $01 = FF                    A:37 X:FF
								>       FB0C  38        SEC                             A:37 X:FF
								>       FB0D  A9 75     LDA #$75                        A:37 X:FF
								>       FB0F  60        RTS                             A:75 X:FF
								>       F747  7B 48 05 *RRA $0548,Y @ 0647 = 37         A:75 X:FF
								>       F74A  EA        NOP                             A:11 X:FF
								>       F74B  EA        NOP                             A:11 X:FF
								>       F74C  08        PHP                             A:11 X:FF
								>       F74D  48        PHA                             A:11 X:FF
								>       F74E  A0 12     LDY #$12                        A:11 X:FF
								>       F750  68        PLA                             A:11 X:FF
								>       F751  28        PLP                             A:11 X:FF
								>       F752  20 10 FB  JSR $FB10                       A:11 X:FF
								>       FB10  70 09     BVS $FB1B                       A:11 X:FF
								>       FB12  30 07     BMI $FB1B                       A:11 X:FF
								>       FB14  90 05     BCC $FB1B                       A:11 X:FF
								>       FB16  C9 11     CMP #$11                        A:11 X:FF
								>       FB18  D0 01     BNE $FB1B                       A:11 X:FF
								>       FB1A  60        RTS                             A:11 X:FF
								>       F755  AD 47 06  LDA $0647 = 9B                  A:11 X:FF
								>       F758  C9 9B     CMP #$9B                        A:9B X:FF
								>       F75A  F0 02     BEQ $F75E                       A:9B X:FF
								>       F75E  A0 13     LDY #$13                        A:9B X:FF
								>       F760  A2 FF     LDX #$FF                        A:9B X:FF
								>       F762  A9 A5     LDA #$A5                        A:9B X:FF
								>       F764  8D 47 06  STA $0647 = 9B                  A:A5 X:FF
								>       F767  20 E9 FA  JSR $FAE9                       A:A5 X:FF
								>       FAE9  24 01     BIT $01 = FF                    A:A5 X:FF
								>       FAEB  18        CLC                             A:A5 X:FF
								>       FAEC  A9 B2     LDA #$B2                        A:A5 X:FF
								>       FAEE  60        RTS                             A:B2 X:FF
								>       F76A  7F 48 05 *RRA $0548,X @ 0647 = A5         A:B2 X:FF
								>       F76D  EA        NOP                             A:05 X:FF
								>       F76E  EA        NOP                             A:05 X:FF
								>       F76F  EA        NOP                             A:05 X:FF
								>       F770  EA        NOP                             A:05 X:FF
								>       F771  20 EF FA  JSR $FAEF                       A:05 X:FF
								>       FAEF  70 2A     BVS $FB1B                       A:05 X:FF
								>       FAF1  90 28     BCC $FB1B                       A:05 X:FF
								>       FAF3  30 26     BMI $FB1B                       A:05 X:FF
								>       FAF5  C9 05     CMP #$05                        A:05 X:FF
								>       FAF7  D0 22     BNE $FB1B                       A:05 X:FF
								>       FAF9  60        RTS                             A:05 X:FF
								>       F774  AD 47 06  LDA $0647 = 52                  A:05 X:FF
								>       F777  C9 52     CMP #$52                        A:52 X:FF
								>       F779  F0 02     BEQ $F77D                       A:52 X:FF
								>       F77D  C8        INY                             A:52 X:FF
								>       F77E  A9 29     LDA #$29                        A:52 X:FF
								>       F780  8D 47 06  STA $0647 = 52                  A:29 X:FF
								>       F783  20 FA FA  JSR $FAFA                       A:29 X:FF
								>       FAFA  B8        CLV                             A:29 X:FF
								>       FAFB  18        CLC                             A:29 X:FF
								>       FAFC  A9 42     LDA #$42                        A:29 X:FF
								>       FAFE  60        RTS                             A:42 X:FF
								>       F786  7F 48 05 *RRA $0548,X @ 0647 = 29         A:42 X:FF
								>       F789  EA        NOP                             A:57 X:FF
								>       F78A  EA        NOP                             A:57 X:FF
								>       F78B  EA        NOP                             A:57 X:FF
								>       F78C  EA        NOP                             A:57 X:FF
								>       F78D  20 FF FA  JSR $FAFF                       A:57 X:FF
								>       FAFF  70 1A     BVS $FB1B                       A:57 X:FF
								>       FB01  30 18     BMI $FB1B                       A:57 X:FF
								>       FB03  B0 16     BCS $FB1B                       A:57 X:FF
								>       FB05  C9 57     CMP #$57                        A:57 X:FF
								>       FB07  D0 12     BNE $FB1B                       A:57 X:FF
								>       FB09  60        RTS                             A:57 X:FF
								>       F790  AD 47 06  LDA $0647 = 14                  A:57 X:FF
								>       F793  C9 14     CMP #$14                        A:14 X:FF
								>       F795  F0 02     BEQ $F799                       A:14 X:FF
								>       F799  C8        INY                             A:14 X:FF
								>       F79A  A9 37     LDA #$37                        A:14 X:FF
								>       F79C  8D 47 06  STA $0647 = 14                  A:37 X:FF
								>       F79F  20 0A FB  JSR $FB0A                       A:37 X:FF
								>       FB0A  24 01     BIT $01 = FF                    A:37 X:FF
								>       FB0C  38        SEC                             A:37 X:FF
								>       FB0D  A9 75     LDA #$75                        A:37 X:FF
								>       FB0F  60        RTS                             A:75 X:FF
								>       F7A2  7F 48 05 *RRA $0548,X @ 0647 = 37         A:75 X:FF
								>       F7A5  EA        NOP                             A:11 X:FF
								>       F7A6  EA        NOP                             A:11 X:FF
								>       F7A7  EA        NOP                             A:11 X:FF
								>       F7A8  EA        NOP                             A:11 X:FF
								>       F7A9  20 10 FB  JSR $FB10                       A:11 X:FF
								>       FB10  70 09     BVS $FB1B                       A:11 X:FF
								>       FB12  30 07     BMI $FB1B                       A:11 X:FF
								>       FB14  90 05     BCC $FB1B                       A:11 X:FF
								>       FB16  C9 11     CMP #$11                        A:11 X:FF
								>       FB18  D0 01     BNE $FB1B                       A:11 X:FF
								>       FB1A  60        RTS                             A:11 X:FF
								>       F7AC  AD 47 06  LDA $0647 = 9B                  A:11 X:FF
								>       F7AF  C9 9B     CMP #$9B                        A:9B X:FF
								>       F7B1  F0 02     BEQ $F7B5                       A:9B X:FF
								>       F7B5  60        RTS                             A:9B X:FF
								>       C655  A5 00     LDA $00 = 00                    A:9B X:FF
								>       C657  05 10     ORA $10 = 00                    A:00 X:FF
								>       C659  05 11     ORA $11 = 00                    A:00 X:FF
								>       C65B  F0 0E     BEQ $C66B                       A:00 X:FF
								>       C66B  20 89 C6  JSR $C689                       A:00 X:FF
								>       C689  A9 02     LDA #$02                        A:00 X:FF
								>       C68B  8D 15 40  STA $4015 = FF                  A:02 X:FF
								>       C68E  A9 3F     LDA #$3F                        A:02 X:FF
								>       C690  8D 04 40  STA $4004 = FF                  A:3F X:FF
								>       C693  A9 9A     LDA #$9A                        A:3F X:FF
								>       C695  8D 05 40  STA $4005 = FF                  A:9A X:FF
								>       C698  A9 FF     LDA #$FF                        A:9A X:FF
								>       C69A  8D 06 40  STA $4006 = FF                  A:FF X:FF
								>       C69D  A9 00     LDA #$00                        A:FF X:FF
								>       C69F  8D 07 40  STA $4007 = FF                  A:00 X:FF
								>       C6A2  60        RTS                             A:00 X:FF
								>       C66E  60        RTS                             A:00 X:FF
